Archive member included because of file (symbol)

j:/altera/13.0sp1/nios2eds/bin/gnu/h-i686-mingw32/bin/../lib/gcc/nios2-elf/4.1.2\libgcc.a(_fixunsdfsi.o)
                              obj/default/dm9000a.o (__fixunsdfsi)
j:/altera/13.0sp1/nios2eds/bin/gnu/h-i686-mingw32/bin/../lib/gcc/nios2-elf/4.1.2\libgcc.a(_addsub_df.o)
                              j:/altera/13.0sp1/nios2eds/bin/gnu/h-i686-mingw32/bin/../lib/gcc/nios2-elf/4.1.2\libgcc.a(_fixunsdfsi.o) (__subdf3)
j:/altera/13.0sp1/nios2eds/bin/gnu/h-i686-mingw32/bin/../lib/gcc/nios2-elf/4.1.2\libgcc.a(_mul_df.o)
                              obj/default/dm9000a.o (__muldf3)
j:/altera/13.0sp1/nios2eds/bin/gnu/h-i686-mingw32/bin/../lib/gcc/nios2-elf/4.1.2\libgcc.a(_ge_df.o)
                              j:/altera/13.0sp1/nios2eds/bin/gnu/h-i686-mingw32/bin/../lib/gcc/nios2-elf/4.1.2\libgcc.a(_fixunsdfsi.o) (__gedf2)
j:/altera/13.0sp1/nios2eds/bin/gnu/h-i686-mingw32/bin/../lib/gcc/nios2-elf/4.1.2\libgcc.a(_df_to_si.o)
                              j:/altera/13.0sp1/nios2eds/bin/gnu/h-i686-mingw32/bin/../lib/gcc/nios2-elf/4.1.2\libgcc.a(_fixunsdfsi.o) (__fixdfsi)
j:/altera/13.0sp1/nios2eds/bin/gnu/h-i686-mingw32/bin/../lib/gcc/nios2-elf/4.1.2\libgcc.a(_thenan_df.o)
                              j:/altera/13.0sp1/nios2eds/bin/gnu/h-i686-mingw32/bin/../lib/gcc/nios2-elf/4.1.2\libgcc.a(_addsub_df.o) (__thenan_df)
j:/altera/13.0sp1/nios2eds/bin/gnu/h-i686-mingw32/bin/../lib/gcc/nios2-elf/4.1.2\libgcc.a(_usi_to_df.o)
                              obj/default/dm9000a.o (__floatunsidf)
j:/altera/13.0sp1/nios2eds/bin/gnu/h-i686-mingw32/bin/../lib/gcc/nios2-elf/4.1.2\libgcc.a(_muldi3.o)
                              j:/altera/13.0sp1/nios2eds/bin/gnu/h-i686-mingw32/bin/../lib/gcc/nios2-elf/4.1.2\libgcc.a(_mul_df.o) (__muldi3)
j:/altera/13.0sp1/nios2eds/bin/gnu/h-i686-mingw32/bin/../lib/gcc/nios2-elf/4.1.2\libgcc.a(_clzsi2.o)
                              j:/altera/13.0sp1/nios2eds/bin/gnu/h-i686-mingw32/bin/../lib/gcc/nios2-elf/4.1.2\libgcc.a(_usi_to_df.o) (__clzsi2)
j:/altera/13.0sp1/nios2eds/bin/gnu/h-i686-mingw32/bin/../lib/gcc/nios2-elf/4.1.2\libgcc.a(_pack_df.o)
                              j:/altera/13.0sp1/nios2eds/bin/gnu/h-i686-mingw32/bin/../lib/gcc/nios2-elf/4.1.2\libgcc.a(_addsub_df.o) (__pack_d)
j:/altera/13.0sp1/nios2eds/bin/gnu/h-i686-mingw32/bin/../lib/gcc/nios2-elf/4.1.2\libgcc.a(_unpack_df.o)
                              j:/altera/13.0sp1/nios2eds/bin/gnu/h-i686-mingw32/bin/../lib/gcc/nios2-elf/4.1.2\libgcc.a(_addsub_df.o) (__unpack_d)
j:/altera/13.0sp1/nios2eds/bin/gnu/h-i686-mingw32/bin/../lib/gcc/nios2-elf/4.1.2\libgcc.a(_fpcmp_parts_df.o)
                              j:/altera/13.0sp1/nios2eds/bin/gnu/h-i686-mingw32/bin/../lib/gcc/nios2-elf/4.1.2\libgcc.a(_ge_df.o) (__fpcmp_parts_d)
j:/altera/13.0sp1/nios2eds/bin/gnu/h-i686-mingw32/bin/../lib/gcc/nios2-elf/4.1.2\libgcc.a(_clz.o)
                              j:/altera/13.0sp1/nios2eds/bin/gnu/h-i686-mingw32/bin/../lib/gcc/nios2-elf/4.1.2\libgcc.a(_clzsi2.o) (__clz_tab)
j:/altera/13.0sp1/nios2eds/bin/gnu/h-i686-mingw32/bin/../lib/gcc/nios2-elf/4.1.2/../../../../nios2-elf/lib\libc.a(lib_a-ctype_.o)
                              obj/default/network_utilities.o (__ctype_ptr)
j:/altera/13.0sp1/nios2eds/bin/gnu/h-i686-mingw32/bin/../lib/gcc/nios2-elf/4.1.2/../../../../nios2-elf/lib\libc.a(lib_a-exit.o)
                              obj/default/iniche_init.o (exit)
j:/altera/13.0sp1/nios2eds/bin/gnu/h-i686-mingw32/bin/../lib/gcc/nios2-elf/4.1.2/../../../../nios2-elf/lib\libc.a(lib_a-fprintf.o)
                              obj/default/alt_error_handler.o (fprintf)
j:/altera/13.0sp1/nios2eds/bin/gnu/h-i686-mingw32/bin/../lib/gcc/nios2-elf/4.1.2/../../../../nios2-elf/lib\libc.a(lib_a-fwrite.o)
                              obj/default/alt_error_handler.o (fwrite)
j:/altera/13.0sp1/nios2eds/bin/gnu/h-i686-mingw32/bin/../lib/gcc/nios2-elf/4.1.2/../../../../nios2-elf/lib\libc.a(lib_a-getc.o)
                              obj/default/network_utilities.o (getc)
j:/altera/13.0sp1/nios2eds/bin/gnu/h-i686-mingw32/bin/../lib/gcc/nios2-elf/4.1.2/../../../../nios2-elf/lib\libc.a(lib_a-impure.o)
                              obj/default/alt_error_handler.o (_impure_ptr)
j:/altera/13.0sp1/nios2eds/bin/gnu/h-i686-mingw32/bin/../lib/gcc/nios2-elf/4.1.2/../../../../nios2-elf/lib\libc.a(lib_a-memcpy.o)
                              obj/default/iniche_init.o (memcpy)
j:/altera/13.0sp1/nios2eds/bin/gnu/h-i686-mingw32/bin/../lib/gcc/nios2-elf/4.1.2/../../../../nios2-elf/lib\libc.a(lib_a-memmove.o)
                              obj/default/simple_socket_server.o (memmove)
j:/altera/13.0sp1/nios2eds/bin/gnu/h-i686-mingw32/bin/../lib/gcc/nios2-elf/4.1.2/../../../../nios2-elf/lib\libc.a(lib_a-memset.o)
                              obj/default/simple_socket_server.o (memset)
j:/altera/13.0sp1/nios2eds/bin/gnu/h-i686-mingw32/bin/../lib/gcc/nios2-elf/4.1.2/../../../../nios2-elf/lib\libc.a(lib_a-perror.o)
                              obj/default/alt_error_handler.o (perror)
j:/altera/13.0sp1/nios2eds/bin/gnu/h-i686-mingw32/bin/../lib/gcc/nios2-elf/4.1.2/../../../../nios2-elf/lib\libc.a(lib_a-printf.o)
                              obj/default/SSS_DE2_115.o (printf)
j:/altera/13.0sp1/nios2eds/bin/gnu/h-i686-mingw32/bin/../lib/gcc/nios2-elf/4.1.2/../../../../nios2-elf/lib\libc.a(lib_a-putc.o)
                              obj/default/network_utilities.o (putc)
j:/altera/13.0sp1/nios2eds/bin/gnu/h-i686-mingw32/bin/../lib/gcc/nios2-elf/4.1.2/../../../../nios2-elf/lib\libc.a(lib_a-putchar.o)
                              obj/default/network_utilities.o (putchar)
j:/altera/13.0sp1/nios2eds/bin/gnu/h-i686-mingw32/bin/../lib/gcc/nios2-elf/4.1.2/../../../../nios2-elf/lib\libc.a(lib_a-puts.o)
                              obj/default/SSS_DE2_115.o (puts)
j:/altera/13.0sp1/nios2eds/bin/gnu/h-i686-mingw32/bin/../lib/gcc/nios2-elf/4.1.2/../../../../nios2-elf/lib\libc.a(lib_a-rget.o)
                              j:/altera/13.0sp1/nios2eds/bin/gnu/h-i686-mingw32/bin/../lib/gcc/nios2-elf/4.1.2/../../../../nios2-elf/lib\libc.a(lib_a-getc.o) (__srget_r)
j:/altera/13.0sp1/nios2eds/bin/gnu/h-i686-mingw32/bin/../lib/gcc/nios2-elf/4.1.2/../../../../nios2-elf/lib\libc.a(lib_a-strchr.o)
                              obj/default/simple_socket_server.o (strchr)
j:/altera/13.0sp1/nios2eds/bin/gnu/h-i686-mingw32/bin/../lib/gcc/nios2-elf/4.1.2/../../../../nios2-elf/lib\libc.a(lib_a-strerror.o)
                              j:/altera/13.0sp1/nios2eds/bin/gnu/h-i686-mingw32/bin/../lib/gcc/nios2-elf/4.1.2/../../../../nios2-elf/lib\libc.a(lib_a-perror.o) (strerror)
j:/altera/13.0sp1/nios2eds/bin/gnu/h-i686-mingw32/bin/../lib/gcc/nios2-elf/4.1.2/../../../../nios2-elf/lib\libc.a(lib_a-strlen.o)
                              obj/default/LCD.o (strlen)
j:/altera/13.0sp1/nios2eds/bin/gnu/h-i686-mingw32/bin/../lib/gcc/nios2-elf/4.1.2/../../../../nios2-elf/lib\libc.a(lib_a-u_strerr.o)
                              j:/altera/13.0sp1/nios2eds/bin/gnu/h-i686-mingw32/bin/../lib/gcc/nios2-elf/4.1.2/../../../../nios2-elf/lib\libc.a(lib_a-strerror.o) (_user_strerror)
j:/altera/13.0sp1/nios2eds/bin/gnu/h-i686-mingw32/bin/../lib/gcc/nios2-elf/4.1.2/../../../../nios2-elf/lib\libc.a(lib_a-vfprintf.o)
                              j:/altera/13.0sp1/nios2eds/bin/gnu/h-i686-mingw32/bin/../lib/gcc/nios2-elf/4.1.2/../../../../nios2-elf/lib\libc.a(lib_a-printf.o) (___vfprintf_internal_r)
j:/altera/13.0sp1/nios2eds/bin/gnu/h-i686-mingw32/bin/../lib/gcc/nios2-elf/4.1.2/../../../../nios2-elf/lib\libc.a(lib_a-wbuf.o)
                              j:/altera/13.0sp1/nios2eds/bin/gnu/h-i686-mingw32/bin/../lib/gcc/nios2-elf/4.1.2/../../../../nios2-elf/lib\libc.a(lib_a-putc.o) (__swbuf_r)
j:/altera/13.0sp1/nios2eds/bin/gnu/h-i686-mingw32/bin/../lib/gcc/nios2-elf/4.1.2/../../../../nios2-elf/lib\libc.a(lib_a-wsetup.o)
                              j:/altera/13.0sp1/nios2eds/bin/gnu/h-i686-mingw32/bin/../lib/gcc/nios2-elf/4.1.2/../../../../nios2-elf/lib\libc.a(lib_a-vfprintf.o) (__swsetup_r)
j:/altera/13.0sp1/nios2eds/bin/gnu/h-i686-mingw32/bin/../lib/gcc/nios2-elf/4.1.2/../../../../nios2-elf/lib\libc.a(lib_a-__call_atexit.o)
                              j:/altera/13.0sp1/nios2eds/bin/gnu/h-i686-mingw32/bin/../lib/gcc/nios2-elf/4.1.2/../../../../nios2-elf/lib\libc.a(lib_a-exit.o) (__call_exitprocs)
j:/altera/13.0sp1/nios2eds/bin/gnu/h-i686-mingw32/bin/../lib/gcc/nios2-elf/4.1.2/../../../../nios2-elf/lib\libc.a(lib_a-dtoa.o)
                              j:/altera/13.0sp1/nios2eds/bin/gnu/h-i686-mingw32/bin/../lib/gcc/nios2-elf/4.1.2/../../../../nios2-elf/lib\libc.a(lib_a-vfprintf.o) (_dtoa_r)
j:/altera/13.0sp1/nios2eds/bin/gnu/h-i686-mingw32/bin/../lib/gcc/nios2-elf/4.1.2/../../../../nios2-elf/lib\libc.a(lib_a-fflush.o)
                              j:/altera/13.0sp1/nios2eds/bin/gnu/h-i686-mingw32/bin/../lib/gcc/nios2-elf/4.1.2/../../../../nios2-elf/lib\libc.a(lib_a-vfprintf.o) (_fflush_r)
j:/altera/13.0sp1/nios2eds/bin/gnu/h-i686-mingw32/bin/../lib/gcc/nios2-elf/4.1.2/../../../../nios2-elf/lib\libc.a(lib_a-findfp.o)
                              j:/altera/13.0sp1/nios2eds/bin/gnu/h-i686-mingw32/bin/../lib/gcc/nios2-elf/4.1.2/../../../../nios2-elf/lib\libc.a(lib_a-fwrite.o) (__sinit)
j:/altera/13.0sp1/nios2eds/bin/gnu/h-i686-mingw32/bin/../lib/gcc/nios2-elf/4.1.2/../../../../nios2-elf/lib\libc.a(lib_a-fputc.o)
                              j:/altera/13.0sp1/nios2eds/bin/gnu/h-i686-mingw32/bin/../lib/gcc/nios2-elf/4.1.2/../../../../nios2-elf/lib\libc.a(lib_a-perror.o) (fputc)
j:/altera/13.0sp1/nios2eds/bin/gnu/h-i686-mingw32/bin/../lib/gcc/nios2-elf/4.1.2/../../../../nios2-elf/lib\libc.a(lib_a-fputs.o)
                              j:/altera/13.0sp1/nios2eds/bin/gnu/h-i686-mingw32/bin/../lib/gcc/nios2-elf/4.1.2/../../../../nios2-elf/lib\libc.a(lib_a-perror.o) (fputs)
j:/altera/13.0sp1/nios2eds/bin/gnu/h-i686-mingw32/bin/../lib/gcc/nios2-elf/4.1.2/../../../../nios2-elf/lib\libc.a(lib_a-freer.o)
                              j:/altera/13.0sp1/nios2eds/bin/gnu/h-i686-mingw32/bin/../lib/gcc/nios2-elf/4.1.2/../../../../nios2-elf/lib\libc.a(lib_a-wsetup.o) (_free_r)
j:/altera/13.0sp1/nios2eds/bin/gnu/h-i686-mingw32/bin/../lib/gcc/nios2-elf/4.1.2/../../../../nios2-elf/lib\libc.a(lib_a-fvwrite.o)
                              j:/altera/13.0sp1/nios2eds/bin/gnu/h-i686-mingw32/bin/../lib/gcc/nios2-elf/4.1.2/../../../../nios2-elf/lib\libc.a(lib_a-fwrite.o) (__sfvwrite_r)
j:/altera/13.0sp1/nios2eds/bin/gnu/h-i686-mingw32/bin/../lib/gcc/nios2-elf/4.1.2/../../../../nios2-elf/lib\libc.a(lib_a-fwalk.o)
                              j:/altera/13.0sp1/nios2eds/bin/gnu/h-i686-mingw32/bin/../lib/gcc/nios2-elf/4.1.2/../../../../nios2-elf/lib\libc.a(lib_a-fflush.o) (_fwalk_reent)
j:/altera/13.0sp1/nios2eds/bin/gnu/h-i686-mingw32/bin/../lib/gcc/nios2-elf/4.1.2/../../../../nios2-elf/lib\libc.a(lib_a-locale.o)
                              j:/altera/13.0sp1/nios2eds/bin/gnu/h-i686-mingw32/bin/../lib/gcc/nios2-elf/4.1.2/../../../../nios2-elf/lib\libc.a(lib_a-vfprintf.o) (_localeconv_r)
j:/altera/13.0sp1/nios2eds/bin/gnu/h-i686-mingw32/bin/../lib/gcc/nios2-elf/4.1.2/../../../../nios2-elf/lib\libc.a(lib_a-makebuf.o)
                              j:/altera/13.0sp1/nios2eds/bin/gnu/h-i686-mingw32/bin/../lib/gcc/nios2-elf/4.1.2/../../../../nios2-elf/lib\libc.a(lib_a-wsetup.o) (__smakebuf_r)
j:/altera/13.0sp1/nios2eds/bin/gnu/h-i686-mingw32/bin/../lib/gcc/nios2-elf/4.1.2/../../../../nios2-elf/lib\libc.a(lib_a-mallocr.o)
                              j:/altera/13.0sp1/nios2eds/bin/gnu/h-i686-mingw32/bin/../lib/gcc/nios2-elf/4.1.2/../../../../nios2-elf/lib\libc.a(lib_a-findfp.o) (_malloc_r)
j:/altera/13.0sp1/nios2eds/bin/gnu/h-i686-mingw32/bin/../lib/gcc/nios2-elf/4.1.2/../../../../nios2-elf/lib\libc.a(lib_a-memchr.o)
                              j:/altera/13.0sp1/nios2eds/bin/gnu/h-i686-mingw32/bin/../lib/gcc/nios2-elf/4.1.2/../../../../nios2-elf/lib\libc.a(lib_a-vfprintf.o) (memchr)
j:/altera/13.0sp1/nios2eds/bin/gnu/h-i686-mingw32/bin/../lib/gcc/nios2-elf/4.1.2/../../../../nios2-elf/lib\libc.a(lib_a-mprec.o)
                              j:/altera/13.0sp1/nios2eds/bin/gnu/h-i686-mingw32/bin/../lib/gcc/nios2-elf/4.1.2/../../../../nios2-elf/lib\libc.a(lib_a-dtoa.o) (_Bfree)
j:/altera/13.0sp1/nios2eds/bin/gnu/h-i686-mingw32/bin/../lib/gcc/nios2-elf/4.1.2/../../../../nios2-elf/lib\libc.a(lib_a-reallocr.o)
                              j:/altera/13.0sp1/nios2eds/bin/gnu/h-i686-mingw32/bin/../lib/gcc/nios2-elf/4.1.2/../../../../nios2-elf/lib\libc.a(lib_a-fvwrite.o) (_realloc_r)
j:/altera/13.0sp1/nios2eds/bin/gnu/h-i686-mingw32/bin/../lib/gcc/nios2-elf/4.1.2/../../../../nios2-elf/lib\libc.a(lib_a-refill.o)
                              j:/altera/13.0sp1/nios2eds/bin/gnu/h-i686-mingw32/bin/../lib/gcc/nios2-elf/4.1.2/../../../../nios2-elf/lib\libc.a(lib_a-rget.o) (__srefill_r)
j:/altera/13.0sp1/nios2eds/bin/gnu/h-i686-mingw32/bin/../lib/gcc/nios2-elf/4.1.2/../../../../nios2-elf/lib\libc.a(lib_a-s_isinfd.o)
                              j:/altera/13.0sp1/nios2eds/bin/gnu/h-i686-mingw32/bin/../lib/gcc/nios2-elf/4.1.2/../../../../nios2-elf/lib\libc.a(lib_a-vfprintf.o) (__isinfd)
j:/altera/13.0sp1/nios2eds/bin/gnu/h-i686-mingw32/bin/../lib/gcc/nios2-elf/4.1.2/../../../../nios2-elf/lib\libc.a(lib_a-s_isnand.o)
                              j:/altera/13.0sp1/nios2eds/bin/gnu/h-i686-mingw32/bin/../lib/gcc/nios2-elf/4.1.2/../../../../nios2-elf/lib\libc.a(lib_a-vfprintf.o) (__isnand)
j:/altera/13.0sp1/nios2eds/bin/gnu/h-i686-mingw32/bin/../lib/gcc/nios2-elf/4.1.2/../../../../nios2-elf/lib\libc.a(lib_a-sbrkr.o)
                              j:/altera/13.0sp1/nios2eds/bin/gnu/h-i686-mingw32/bin/../lib/gcc/nios2-elf/4.1.2/../../../../nios2-elf/lib\libc.a(lib_a-freer.o) (_sbrk_r)
j:/altera/13.0sp1/nios2eds/bin/gnu/h-i686-mingw32/bin/../lib/gcc/nios2-elf/4.1.2/../../../../nios2-elf/lib\libc.a(lib_a-stdio.o)
                              j:/altera/13.0sp1/nios2eds/bin/gnu/h-i686-mingw32/bin/../lib/gcc/nios2-elf/4.1.2/../../../../nios2-elf/lib\libc.a(lib_a-findfp.o) (__sclose)
j:/altera/13.0sp1/nios2eds/bin/gnu/h-i686-mingw32/bin/../lib/gcc/nios2-elf/4.1.2/../../../../nios2-elf/lib\libc.a(lib_a-strcmp.o)
                              j:/altera/13.0sp1/nios2eds/bin/gnu/h-i686-mingw32/bin/../lib/gcc/nios2-elf/4.1.2/../../../../nios2-elf/lib\libc.a(lib_a-locale.o) (strcmp)
j:/altera/13.0sp1/nios2eds/bin/gnu/h-i686-mingw32/bin/../lib/gcc/nios2-elf/4.1.2/../../../../nios2-elf/lib\libc.a(lib_a-writer.o)
                              j:/altera/13.0sp1/nios2eds/bin/gnu/h-i686-mingw32/bin/../lib/gcc/nios2-elf/4.1.2/../../../../nios2-elf/lib\libc.a(lib_a-stdio.o) (_write_r)
j:/altera/13.0sp1/nios2eds/bin/gnu/h-i686-mingw32/bin/../lib/gcc/nios2-elf/4.1.2/../../../../nios2-elf/lib\libc.a(lib_a-callocr.o)
                              j:/altera/13.0sp1/nios2eds/bin/gnu/h-i686-mingw32/bin/../lib/gcc/nios2-elf/4.1.2/../../../../nios2-elf/lib\libc.a(lib_a-mprec.o) (_calloc_r)
j:/altera/13.0sp1/nios2eds/bin/gnu/h-i686-mingw32/bin/../lib/gcc/nios2-elf/4.1.2/../../../../nios2-elf/lib\libc.a(lib_a-closer.o)
                              j:/altera/13.0sp1/nios2eds/bin/gnu/h-i686-mingw32/bin/../lib/gcc/nios2-elf/4.1.2/../../../../nios2-elf/lib\libc.a(lib_a-stdio.o) (_close_r)
j:/altera/13.0sp1/nios2eds/bin/gnu/h-i686-mingw32/bin/../lib/gcc/nios2-elf/4.1.2/../../../../nios2-elf/lib\libc.a(lib_a-fclose.o)
                              j:/altera/13.0sp1/nios2eds/bin/gnu/h-i686-mingw32/bin/../lib/gcc/nios2-elf/4.1.2/../../../../nios2-elf/lib\libc.a(lib_a-findfp.o) (fclose)
j:/altera/13.0sp1/nios2eds/bin/gnu/h-i686-mingw32/bin/../lib/gcc/nios2-elf/4.1.2/../../../../nios2-elf/lib\libc.a(lib_a-fstatr.o)
                              j:/altera/13.0sp1/nios2eds/bin/gnu/h-i686-mingw32/bin/../lib/gcc/nios2-elf/4.1.2/../../../../nios2-elf/lib\libc.a(lib_a-makebuf.o) (_fstat_r)
j:/altera/13.0sp1/nios2eds/bin/gnu/h-i686-mingw32/bin/../lib/gcc/nios2-elf/4.1.2/../../../../nios2-elf/lib\libc.a(lib_a-int_errno.o)
                              j:/altera/13.0sp1/nios2eds/bin/gnu/h-i686-mingw32/bin/../lib/gcc/nios2-elf/4.1.2/../../../../nios2-elf/lib\libc.a(lib_a-sbrkr.o) (errno)
j:/altera/13.0sp1/nios2eds/bin/gnu/h-i686-mingw32/bin/../lib/gcc/nios2-elf/4.1.2/../../../../nios2-elf/lib\libc.a(lib_a-isattyr.o)
                              j:/altera/13.0sp1/nios2eds/bin/gnu/h-i686-mingw32/bin/../lib/gcc/nios2-elf/4.1.2/../../../../nios2-elf/lib\libc.a(lib_a-makebuf.o) (_isatty_r)
j:/altera/13.0sp1/nios2eds/bin/gnu/h-i686-mingw32/bin/../lib/gcc/nios2-elf/4.1.2/../../../../nios2-elf/lib\libc.a(lib_a-lseekr.o)
                              j:/altera/13.0sp1/nios2eds/bin/gnu/h-i686-mingw32/bin/../lib/gcc/nios2-elf/4.1.2/../../../../nios2-elf/lib\libc.a(lib_a-stdio.o) (_lseek_r)
j:/altera/13.0sp1/nios2eds/bin/gnu/h-i686-mingw32/bin/../lib/gcc/nios2-elf/4.1.2/../../../../nios2-elf/lib\libc.a(lib_a-readr.o)
                              j:/altera/13.0sp1/nios2eds/bin/gnu/h-i686-mingw32/bin/../lib/gcc/nios2-elf/4.1.2/../../../../nios2-elf/lib\libc.a(lib_a-stdio.o) (_read_r)
j:/altera/13.0sp1/nios2eds/bin/gnu/h-i686-mingw32/bin/../lib/gcc/nios2-elf/4.1.2\libgcc.a(_udivdi3.o)
                              j:/altera/13.0sp1/nios2eds/bin/gnu/h-i686-mingw32/bin/../lib/gcc/nios2-elf/4.1.2/../../../../nios2-elf/lib\libc.a(lib_a-vfprintf.o) (__udivdi3)
j:/altera/13.0sp1/nios2eds/bin/gnu/h-i686-mingw32/bin/../lib/gcc/nios2-elf/4.1.2\libgcc.a(_umoddi3.o)
                              j:/altera/13.0sp1/nios2eds/bin/gnu/h-i686-mingw32/bin/../lib/gcc/nios2-elf/4.1.2/../../../../nios2-elf/lib\libc.a(lib_a-vfprintf.o) (__umoddi3)
j:/altera/13.0sp1/nios2eds/bin/gnu/h-i686-mingw32/bin/../lib/gcc/nios2-elf/4.1.2\libgcc.a(_div_df.o)
                              j:/altera/13.0sp1/nios2eds/bin/gnu/h-i686-mingw32/bin/../lib/gcc/nios2-elf/4.1.2/../../../../nios2-elf/lib\libc.a(lib_a-dtoa.o) (__divdf3)
j:/altera/13.0sp1/nios2eds/bin/gnu/h-i686-mingw32/bin/../lib/gcc/nios2-elf/4.1.2\libgcc.a(_eq_df.o)
                              j:/altera/13.0sp1/nios2eds/bin/gnu/h-i686-mingw32/bin/../lib/gcc/nios2-elf/4.1.2/../../../../nios2-elf/lib\libc.a(lib_a-vfprintf.o) (__eqdf2)
j:/altera/13.0sp1/nios2eds/bin/gnu/h-i686-mingw32/bin/../lib/gcc/nios2-elf/4.1.2\libgcc.a(_ne_df.o)
                              j:/altera/13.0sp1/nios2eds/bin/gnu/h-i686-mingw32/bin/../lib/gcc/nios2-elf/4.1.2/../../../../nios2-elf/lib\libc.a(lib_a-vfprintf.o) (__nedf2)
j:/altera/13.0sp1/nios2eds/bin/gnu/h-i686-mingw32/bin/../lib/gcc/nios2-elf/4.1.2\libgcc.a(_gt_df.o)
                              j:/altera/13.0sp1/nios2eds/bin/gnu/h-i686-mingw32/bin/../lib/gcc/nios2-elf/4.1.2/../../../../nios2-elf/lib\libc.a(lib_a-dtoa.o) (__gtdf2)
j:/altera/13.0sp1/nios2eds/bin/gnu/h-i686-mingw32/bin/../lib/gcc/nios2-elf/4.1.2\libgcc.a(_lt_df.o)
                              j:/altera/13.0sp1/nios2eds/bin/gnu/h-i686-mingw32/bin/../lib/gcc/nios2-elf/4.1.2/../../../../nios2-elf/lib\libc.a(lib_a-vfprintf.o) (__ltdf2)
j:/altera/13.0sp1/nios2eds/bin/gnu/h-i686-mingw32/bin/../lib/gcc/nios2-elf/4.1.2\libgcc.a(_si_to_df.o)
                              j:/altera/13.0sp1/nios2eds/bin/gnu/h-i686-mingw32/bin/../lib/gcc/nios2-elf/4.1.2/../../../../nios2-elf/lib\libc.a(lib_a-dtoa.o) (__floatsidf)
j:/altera/13.0sp1/nios2eds/bin/gnu/h-i686-mingw32/bin/../lib/gcc/nios2-elf/4.1.2\libgcc.a(lib2-divmod.o)
                              j:/altera/13.0sp1/nios2eds/bin/gnu/h-i686-mingw32/bin/../lib/gcc/nios2-elf/4.1.2/../../../../nios2-elf/lib\libc.a(lib_a-vfprintf.o) (__divsi3)
../simple_socket_bsp/\libucosii_bsp.a(alt_exit.o)
                              j:/altera/13.0sp1/nios2eds/bin/gnu/h-i686-mingw32/bin/../lib/gcc/nios2-elf/4.1.2/../../../../nios2-elf/lib\libc.a(lib_a-exit.o) (_exit)
../simple_socket_bsp/\libucosii_bsp.a(alt_flash_dev.o)
                              obj/default/SSS_DE2_115.o (alt_flash_open_dev)
../simple_socket_bsp/\libucosii_bsp.a(alt_fstat.o)
                              j:/altera/13.0sp1/nios2eds/bin/gnu/h-i686-mingw32/bin/../lib/gcc/nios2-elf/4.1.2/../../../../nios2-elf/lib\libc.a(lib_a-fstatr.o) (fstat)
../simple_socket_bsp/\libucosii_bsp.a(alt_irq_register.o)
                              obj/default/dm9000a.o (alt_irq_register)
../simple_socket_bsp/\libucosii_bsp.a(alt_irq_vars.o)
                              ../simple_socket_bsp/\libucosii_bsp.a(alt_irq_register.o) (alt_irq_active)
../simple_socket_bsp/\libucosii_bsp.a(alt_isatty.o)
                              j:/altera/13.0sp1/nios2eds/bin/gnu/h-i686-mingw32/bin/../lib/gcc/nios2-elf/4.1.2/../../../../nios2-elf/lib\libc.a(lib_a-isattyr.o) (isatty)
../simple_socket_bsp/\libucosii_bsp.a(alt_lseek.o)
                              j:/altera/13.0sp1/nios2eds/bin/gnu/h-i686-mingw32/bin/../lib/gcc/nios2-elf/4.1.2/../../../../nios2-elf/lib\libc.a(lib_a-lseekr.o) (lseek)
../simple_socket_bsp/\libucosii_bsp.a(alt_main.o)
                              ../simple_socket_bsp//obj/HAL/src/crt0.o (alt_main)
../simple_socket_bsp/\libucosii_bsp.a(alt_sbrk.o)
                              j:/altera/13.0sp1/nios2eds/bin/gnu/h-i686-mingw32/bin/../lib/gcc/nios2-elf/4.1.2/../../../../nios2-elf/lib\libc.a(lib_a-sbrkr.o) (sbrk)
../simple_socket_bsp/\libucosii_bsp.a(alt_usleep.o)
                              obj/default/LCD.o (usleep)
../simple_socket_bsp/\libucosii_bsp.a(alt_env_lock.o)
                              ../simple_socket_bsp/\libucosii_bsp.a(alt_main.o) (alt_envsem)
../simple_socket_bsp/\libucosii_bsp.a(alt_malloc_lock.o)
                              j:/altera/13.0sp1/nios2eds/bin/gnu/h-i686-mingw32/bin/../lib/gcc/nios2-elf/4.1.2/../../../../nios2-elf/lib\libc.a(lib_a-freer.o) (__malloc_lock)
../simple_socket_bsp/\libucosii_bsp.a(os_core.o)
                              ../simple_socket_bsp/\libucosii_bsp.a(alt_main.o) (OSInit)
../simple_socket_bsp/\libucosii_bsp.a(os_dbg.o)
                              ../simple_socket_bsp/\libucosii_bsp.a(os_core.o) (OSDebugInit)
../simple_socket_bsp/\libucosii_bsp.a(os_flag.o)
                              obj/default/simple_socket_server.o (OSFlagCreate)
../simple_socket_bsp/\libucosii_bsp.a(os_mem.o)
                              ../simple_socket_bsp/\libucosii_bsp.a(os_core.o) (OS_MemInit)
../simple_socket_bsp/\libucosii_bsp.a(os_q.o)
                              obj/default/simple_socket_server.o (OSQCreate)
../simple_socket_bsp/\libucosii_bsp.a(os_sem.o)
                              obj/default/simple_socket_server.o (OSSemCreate)
../simple_socket_bsp/\libucosii_bsp.a(os_task.o)
                              obj/default/iniche_init.o (OSTaskCreateExt)
../simple_socket_bsp/\libucosii_bsp.a(os_time.o)
                              obj/default/iniche_init.o (OSTimeDly)
../simple_socket_bsp/\libucosii_bsp.a(alt_sys_init.o)
                              ../simple_socket_bsp/\libucosii_bsp.a(alt_main.o) (alt_irq_init)
../simple_socket_bsp/\libucosii_bsp.a(altera_avalon_cfi_flash.o)
                              ../simple_socket_bsp/\libucosii_bsp.a(alt_sys_init.o) (alt_flash_cfi_init)
../simple_socket_bsp/\libucosii_bsp.a(altera_avalon_cfi_flash_table.o)
                              ../simple_socket_bsp/\libucosii_bsp.a(altera_avalon_cfi_flash.o) (alt_set_flash_width_func)
../simple_socket_bsp/\libucosii_bsp.a(altera_avalon_epcs_flash_controller.o)
                              ../simple_socket_bsp/\libucosii_bsp.a(alt_sys_init.o) (alt_epcs_flash_init)
../simple_socket_bsp/\libucosii_bsp.a(altera_avalon_jtag_uart_fd.o)
                              ../simple_socket_bsp/\libucosii_bsp.a(alt_sys_init.o) (altera_avalon_jtag_uart_read_fd)
../simple_socket_bsp/\libucosii_bsp.a(altera_avalon_jtag_uart_init.o)
                              ../simple_socket_bsp/\libucosii_bsp.a(alt_sys_init.o) (altera_avalon_jtag_uart_init)
../simple_socket_bsp/\libucosii_bsp.a(altera_avalon_jtag_uart_ioctl.o)
                              ../simple_socket_bsp/\libucosii_bsp.a(altera_avalon_jtag_uart_fd.o) (altera_avalon_jtag_uart_ioctl)
../simple_socket_bsp/\libucosii_bsp.a(altera_avalon_jtag_uart_read.o)
                              ../simple_socket_bsp/\libucosii_bsp.a(altera_avalon_jtag_uart_fd.o) (altera_avalon_jtag_uart_read)
../simple_socket_bsp/\libucosii_bsp.a(altera_avalon_jtag_uart_write.o)
                              ../simple_socket_bsp/\libucosii_bsp.a(altera_avalon_jtag_uart_fd.o) (altera_avalon_jtag_uart_write)
../simple_socket_bsp/\libucosii_bsp.a(altera_avalon_lcd_16207.o)
                              ../simple_socket_bsp/\libucosii_bsp.a(alt_sys_init.o) (altera_avalon_lcd_16207_init)
../simple_socket_bsp/\libucosii_bsp.a(altera_avalon_lcd_16207_fd.o)
                              ../simple_socket_bsp/\libucosii_bsp.a(alt_sys_init.o) (altera_avalon_lcd_16207_write_fd)
../simple_socket_bsp/\libucosii_bsp.a(altera_avalon_timer_sc.o)
                              ../simple_socket_bsp/\libucosii_bsp.a(alt_sys_init.o) (alt_avalon_timer_sc_init)
../simple_socket_bsp/\libucosii_bsp.a(altera_avalon_uart_fd.o)
                              ../simple_socket_bsp/\libucosii_bsp.a(alt_sys_init.o) (altera_avalon_uart_read_fd)
../simple_socket_bsp/\libucosii_bsp.a(altera_avalon_uart_init.o)
                              ../simple_socket_bsp/\libucosii_bsp.a(alt_sys_init.o) (altera_avalon_uart_init)
../simple_socket_bsp/\libucosii_bsp.a(altera_avalon_uart_read.o)
                              ../simple_socket_bsp/\libucosii_bsp.a(altera_avalon_uart_fd.o) (altera_avalon_uart_read)
../simple_socket_bsp/\libucosii_bsp.a(altera_avalon_uart_write.o)
                              ../simple_socket_bsp/\libucosii_bsp.a(altera_avalon_uart_fd.o) (altera_avalon_uart_write)
../simple_socket_bsp/\libucosii_bsp.a(epcs_commands.o)
                              ../simple_socket_bsp/\libucosii_bsp.a(altera_avalon_epcs_flash_controller.o) (epcs_sector_erase)
../simple_socket_bsp/\libucosii_bsp.a(alt_iniche_close.o)
                              obj/default/iniche_init.o (close)
../simple_socket_bsp/\libucosii_bsp.a(alt_iniche_dev.o)
                              obj/default/iniche_init.o (alt_iniche_dev_list)
../simple_socket_bsp/\libucosii_bsp.a(alt_iniche_read.o)
                              j:/altera/13.0sp1/nios2eds/bin/gnu/h-i686-mingw32/bin/../lib/gcc/nios2-elf/4.1.2/../../../../nios2-elf/lib\libc.a(lib_a-readr.o) (read)
../simple_socket_bsp/\libucosii_bsp.a(alt_iniche_write.o)
                              j:/altera/13.0sp1/nios2eds/bin/gnu/h-i686-mingw32/bin/../lib/gcc/nios2-elf/4.1.2/../../../../nios2-elf/lib\libc.a(lib_a-writer.o) (write)
../simple_socket_bsp/\libucosii_bsp.a(ipnet.o)
                              obj/default/dm9000a.o (rcvdq)
../simple_socket_bsp/\libucosii_bsp.a(ipstart.o)
                              ../simple_socket_bsp/\libucosii_bsp.a(ipnet.o) (ifNumber)
../simple_socket_bsp/\libucosii_bsp.a(igmp_cmn.o)
                              ../simple_socket_bsp/\libucosii_bsp.a(ipstart.o) (igmp_init)
../simple_socket_bsp/\libucosii_bsp.a(bsdsock.o)
                              obj/default/simple_socket_server.o (bsd_accept)
../simple_socket_bsp/\libucosii_bsp.a(cksum.o)
                              ../simple_socket_bsp/\libucosii_bsp.a(igmp_cmn.o) (cksum)
../simple_socket_bsp/\libucosii_bsp.a(in_utils.o)
                              ../simple_socket_bsp/\libucosii_bsp.a(igmp_cmn.o) (ns_printf)
../simple_socket_bsp/\libucosii_bsp.a(netmain.o)
                              obj/default/iniche_init.o (iniche_net_ready)
../simple_socket_bsp/\libucosii_bsp.a(parseip.o)
                              obj/default/iniche_init.o (inet_pton)
../simple_socket_bsp/\libucosii_bsp.a(tk_crnos.o)
                              ../simple_socket_bsp/\libucosii_bsp.a(ipnet.o) (tk_yield)
../simple_socket_bsp/\libucosii_bsp.a(dhcpclnt.o)
                              ../simple_socket_bsp/\libucosii_bsp.a(netmain.o) (dhc_second)
../simple_socket_bsp/\libucosii_bsp.a(dhcputil.o)
                              ../simple_socket_bsp/\libucosii_bsp.a(dhcpclnt.o) (find_opt)
../simple_socket_bsp/\libucosii_bsp.a(pktalloc.o)
                              ../simple_socket_bsp/\libucosii_bsp.a(ipnet.o) (pk_init)
../simple_socket_bsp/\libucosii_bsp.a(q.o)
                              ../simple_socket_bsp/\libucosii_bsp.a(ipnet.o) (getq)
../simple_socket_bsp/\libucosii_bsp.a(udp_open.o)
                              ../simple_socket_bsp/\libucosii_bsp.a(dhcpclnt.o) (udp_open)
../simple_socket_bsp/\libucosii_bsp.a(asm_cksum.o)
                              ../simple_socket_bsp/\libucosii_bsp.a(cksum.o) (asm_cksum)
../simple_socket_bsp/\libucosii_bsp.a(brdutils.o)
                              ../simple_socket_bsp/\libucosii_bsp.a(ipnet.o) (dtrap)
../simple_socket_bsp/\libucosii_bsp.a(osportco.o)
                              ../simple_socket_bsp/\libucosii_bsp.a(tk_crnos.o) (tcp_sleep_count)
../simple_socket_bsp/\libucosii_bsp.a(targnios.o)
                              obj/default/iniche_init.o (alt_iniche_init)
../simple_socket_bsp/\libucosii_bsp.a(nptcp.o)
                              ../simple_socket_bsp/\libucosii_bsp.a(bsdsock.o) (soq)
../simple_socket_bsp/\libucosii_bsp.a(rawsock.o)
                              ../simple_socket_bsp/\libucosii_bsp.a(nptcp.o) (rawip_usrreq)
../simple_socket_bsp/\libucosii_bsp.a(sockcall.o)
                              obj/default/iniche_init.o (t_socket)
../simple_socket_bsp/\libucosii_bsp.a(socket.o)
                              ../simple_socket_bsp/\libucosii_bsp.a(sockcall.o) (socreate)
../simple_socket_bsp/\libucosii_bsp.a(socket2.o)
                              ../simple_socket_bsp/\libucosii_bsp.a(sockcall.o) (soqremque)
../simple_socket_bsp/\libucosii_bsp.a(soselect.o)
                              ../simple_socket_bsp/\libucosii_bsp.a(bsdsock.o) (t_select)
../simple_socket_bsp/\libucosii_bsp.a(tcp_in.o)
                              ../simple_socket_bsp/\libucosii_bsp.a(nptcp.o) (tcp_input)
../simple_socket_bsp/\libucosii_bsp.a(tcp_out.o)
                              ../simple_socket_bsp/\libucosii_bsp.a(tcp_in.o) (tcp_output)
../simple_socket_bsp/\libucosii_bsp.a(tcp_subr.o)
                              ../simple_socket_bsp/\libucosii_bsp.a(nptcp.o) (tcp_init)
../simple_socket_bsp/\libucosii_bsp.a(tcp_timr.o)
                              ../simple_socket_bsp/\libucosii_bsp.a(tcp_in.o) (tcp_keepidle)
../simple_socket_bsp/\libucosii_bsp.a(tcp_usr.o)
                              ../simple_socket_bsp/\libucosii_bsp.a(nptcp.o) (tcp_usrreq)
../simple_socket_bsp/\libucosii_bsp.a(tcpport.o)
                              ../simple_socket_bsp/\libucosii_bsp.a(ipstart.o) (tcpinit)
../simple_socket_bsp/\libucosii_bsp.a(udpsock.o)
                              ../simple_socket_bsp/\libucosii_bsp.a(nptcp.o) (udp_usrreq)
../simple_socket_bsp/\libucosii_bsp.a(alt_alarm_start.o)
                              ../simple_socket_bsp/\libucosii_bsp.a(altera_avalon_jtag_uart_init.o) (alt_alarm_start)
../simple_socket_bsp/\libucosii_bsp.a(alt_busy_sleep.o)
                              ../simple_socket_bsp/\libucosii_bsp.a(alt_usleep.o) (alt_busy_sleep)
../simple_socket_bsp/\libucosii_bsp.a(alt_close.o)
                              ../simple_socket_bsp/\libucosii_bsp.a(alt_iniche_close.o) (alt_close)
../simple_socket_bsp/\libucosii_bsp.a(alt_dcache_flush.o)
                              ../simple_socket_bsp/\libucosii_bsp.a(altera_avalon_cfi_flash.o) (alt_dcache_flush)
../simple_socket_bsp/\libucosii_bsp.a(alt_dev.o)
                              ../simple_socket_bsp/\libucosii_bsp.a(alt_sys_init.o) (alt_dev_list)
../simple_socket_bsp/\libucosii_bsp.a(alt_dev_llist_insert.o)
                              ../simple_socket_bsp/\libucosii_bsp.a(alt_sys_init.o) (alt_dev_llist_insert)
../simple_socket_bsp/\libucosii_bsp.a(alt_do_ctors.o)
                              ../simple_socket_bsp/\libucosii_bsp.a(alt_main.o) (_do_ctors)
../simple_socket_bsp/\libucosii_bsp.a(alt_do_dtors.o)
                              ../simple_socket_bsp/\libucosii_bsp.a(alt_main.o) (_do_dtors)
../simple_socket_bsp/\libucosii_bsp.a(alt_errno.o)
                              ../simple_socket_bsp/\libucosii_bsp.a(alt_fstat.o) (alt_errno)
../simple_socket_bsp/\libucosii_bsp.a(alt_find_dev.o)
                              ../simple_socket_bsp/\libucosii_bsp.a(alt_flash_dev.o) (alt_find_dev)
../simple_socket_bsp/\libucosii_bsp.a(alt_iic.o)
                              ../simple_socket_bsp/\libucosii_bsp.a(altera_avalon_jtag_uart_init.o) (alt_ic_isr_register)
../simple_socket_bsp/\libucosii_bsp.a(alt_iic_isr_register.o)
                              ../simple_socket_bsp/\libucosii_bsp.a(alt_iic.o) (alt_iic_isr_register)
../simple_socket_bsp/\libucosii_bsp.a(alt_io_redirect.o)
                              ../simple_socket_bsp/\libucosii_bsp.a(alt_main.o) (alt_io_redirect)
../simple_socket_bsp/\libucosii_bsp.a(alt_irq_entry.o)
                              ../simple_socket_bsp/\libucosii_bsp.a(alt_irq_register.o) (alt_irq_entry)
../simple_socket_bsp/\libucosii_bsp.a(alt_irq_handler.o)
                              ../simple_socket_bsp/\libucosii_bsp.a(alt_irq_register.o) (alt_irq_handler)
../simple_socket_bsp/\libucosii_bsp.a(alt_open.o)
                              ../simple_socket_bsp/\libucosii_bsp.a(alt_io_redirect.o) (open)
../simple_socket_bsp/\libucosii_bsp.a(alt_read.o)
                              ../simple_socket_bsp/\libucosii_bsp.a(alt_iniche_read.o) (alt_read)
../simple_socket_bsp/\libucosii_bsp.a(alt_release_fd.o)
                              ../simple_socket_bsp/\libucosii_bsp.a(alt_close.o) (alt_release_fd)
../simple_socket_bsp/\libucosii_bsp.a(alt_remap_cached.o)
                              ../simple_socket_bsp/\libucosii_bsp.a(targnios.o) (alt_remap_cached)
../simple_socket_bsp/\libucosii_bsp.a(alt_remap_uncached.o)
                              ../simple_socket_bsp/\libucosii_bsp.a(targnios.o) (alt_remap_uncached)
../simple_socket_bsp/\libucosii_bsp.a(alt_tick.o)
                              ../simple_socket_bsp/\libucosii_bsp.a(alt_usleep.o) (_alt_tick_rate)
../simple_socket_bsp/\libucosii_bsp.a(alt_write.o)
                              ../simple_socket_bsp/\libucosii_bsp.a(alt_iniche_write.o) (alt_write)
../simple_socket_bsp/\libucosii_bsp.a(altera_nios2_qsys_irq.o)
                              ../simple_socket_bsp/\libucosii_bsp.a(alt_sys_init.o) (altera_nios2_qsys_irq_init)
../simple_socket_bsp/\libucosii_bsp.a(os_cpu_a.o)
                              ../simple_socket_bsp/\libucosii_bsp.a(os_core.o) (OSIntCtxSw)
../simple_socket_bsp/\libucosii_bsp.a(os_cpu_c.o)
                              ../simple_socket_bsp/\libucosii_bsp.a(os_task.o) (OSTaskStkInit)
../simple_socket_bsp/\libucosii_bsp.a(altera_avalon_cfi_flash_amd.o)
                              ../simple_socket_bsp/\libucosii_bsp.a(altera_avalon_cfi_flash_table.o) (alt_program_amd)
../simple_socket_bsp/\libucosii_bsp.a(altera_avalon_cfi_flash_intel.o)
                              ../simple_socket_bsp/\libucosii_bsp.a(altera_avalon_cfi_flash_table.o) (alt_program_intel)
../simple_socket_bsp/\libucosii_bsp.a(altera_avalon_spi.o)
                              ../simple_socket_bsp/\libucosii_bsp.a(epcs_commands.o) (alt_avalon_spi_command)
../simple_socket_bsp/\libucosii_bsp.a(allports.o)
                              ../simple_socket_bsp/\libucosii_bsp.a(dhcpclnt.o) (name)
../simple_socket_bsp/\libucosii_bsp.a(timeouts.o)
                              ../simple_socket_bsp/\libucosii_bsp.a(netmain.o) (inet_timer)
../simple_socket_bsp/\libucosii_bsp.a(tk_misc.o)
                              ../simple_socket_bsp/\libucosii_bsp.a(netmain.o) (create_apptasks)
../simple_socket_bsp/\libucosii_bsp.a(alt_iniche_fcntl.o)
                              ../simple_socket_bsp/\libucosii_bsp.a(brdutils.o) (fcntl)
../simple_socket_bsp/\libucosii_bsp.a(et_arp.o)
                              ../simple_socket_bsp/\libucosii_bsp.a(ipstart.o) (etainit)
../simple_socket_bsp/\libucosii_bsp.a(iface.o)
                              ../simple_socket_bsp/\libucosii_bsp.a(ipnet.o) (netlist)
../simple_socket_bsp/\libucosii_bsp.a(ip.o)
                              ../simple_socket_bsp/\libucosii_bsp.a(ipstart.o) (ip_init)
../simple_socket_bsp/\libucosii_bsp.a(ip_reasm.o)
                              ../simple_socket_bsp/\libucosii_bsp.a(timeouts.o) (ire_cticks)
../simple_socket_bsp/\libucosii_bsp.a(ipdemux.o)
                              ../simple_socket_bsp/\libucosii_bsp.a(ipnet.o) (ip_rcv)
../simple_socket_bsp/\libucosii_bsp.a(ipmc.o)
                              ../simple_socket_bsp/\libucosii_bsp.a(ipstart.o) (in_addmulti)
../simple_socket_bsp/\libucosii_bsp.a(ipport.o)
                              ../simple_socket_bsp/\libucosii_bsp.a(targnios.o) (port_prep)
../simple_socket_bsp/\libucosii_bsp.a(ipraw.o)
                              ../simple_socket_bsp/\libucosii_bsp.a(rawsock.o) (ipraw_eps)
../simple_socket_bsp/\libucosii_bsp.a(iproute.o)
                              ../simple_socket_bsp/\libucosii_bsp.a(ip.o) (cachedRoute)
../simple_socket_bsp/\libucosii_bsp.a(udp.o)
                              ../simple_socket_bsp/\libucosii_bsp.a(ipdemux.o) (udpdemux)
../simple_socket_bsp/\libucosii_bsp.a(igmp.o)
                              ../simple_socket_bsp/\libucosii_bsp.a(igmp_cmn.o) (igmpv1_input)
../simple_socket_bsp/\libucosii_bsp.a(igmp2.o)
                              ../simple_socket_bsp/\libucosii_bsp.a(igmp_cmn.o) (igmpv2_input)
../simple_socket_bsp/\libucosii_bsp.a(ipopt.o)
                              ../simple_socket_bsp/\libucosii_bsp.a(socket.o) (ip_setmoptions)
../simple_socket_bsp/\libucosii_bsp.a(u_mctest.o)
                              ../simple_socket_bsp/\libucosii_bsp.a(allports.o) (u_mctest_init)
../simple_socket_bsp/\libucosii_bsp.a(dhcsetup.o)
                              ../simple_socket_bsp/\libucosii_bsp.a(allports.o) (dhc_setup)
../simple_socket_bsp/\libucosii_bsp.a(memdev.o)
                              ../simple_socket_bsp/\libucosii_bsp.a(allports.o) (init_memdev)
../simple_socket_bsp/\libucosii_bsp.a(tcpcksum.o)
                              ../simple_socket_bsp/\libucosii_bsp.a(nptcp.o) (tcp_cksum)
../simple_socket_bsp/\libucosii_bsp.a(in_pcb.o)
                              ../simple_socket_bsp/\libucosii_bsp.a(tcp_usr.o) (in_pcballoc)
../simple_socket_bsp/\libucosii_bsp.a(vfsfiles.o)
                              ../simple_socket_bsp/\libucosii_bsp.a(memdev.o) (vfsystems)
../simple_socket_bsp/\libucosii_bsp.a(vfsport.o)
                              ../simple_socket_bsp/\libucosii_bsp.a(allports.o) (prep_vfs)
../simple_socket_bsp/\libucosii_bsp.a(alt_exception_entry.o)
                              ../simple_socket_bsp/\libucosii_bsp.a(alt_irq_entry.o) (alt_exception)
../simple_socket_bsp/\libucosii_bsp.a(alt_fcntl.o)
                              ../simple_socket_bsp/\libucosii_bsp.a(alt_iniche_fcntl.o) (alt_fcntl)
../simple_socket_bsp/\libucosii_bsp.a(alt_find_file.o)
                              ../simple_socket_bsp/\libucosii_bsp.a(alt_open.o) (alt_find_file)
../simple_socket_bsp/\libucosii_bsp.a(alt_get_fd.o)
                              ../simple_socket_bsp/\libucosii_bsp.a(alt_open.o) (alt_get_fd)
../simple_socket_bsp/\libucosii_bsp.a(icmp.o)
                              ../simple_socket_bsp/\libucosii_bsp.a(ipdemux.o) (icmprcv)
j:/altera/13.0sp1/nios2eds/bin/gnu/h-i686-mingw32/bin/../lib/gcc/nios2-elf/4.1.2/../../../../nios2-elf/lib\libc.a(lib_a-atexit.o)
                              ../simple_socket_bsp/\libucosii_bsp.a(alt_main.o) (atexit)
j:/altera/13.0sp1/nios2eds/bin/gnu/h-i686-mingw32/bin/../lib/gcc/nios2-elf/4.1.2/../../../../nios2-elf/lib\libc.a(lib_a-atoi.o)
                              ../simple_socket_bsp/\libucosii_bsp.a(parseip.o) (atoi)
j:/altera/13.0sp1/nios2eds/bin/gnu/h-i686-mingw32/bin/../lib/gcc/nios2-elf/4.1.2/../../../../nios2-elf/lib\libc.a(lib_a-calloc.o)
                              ../simple_socket_bsp/\libucosii_bsp.a(targnios.o) (calloc)
j:/altera/13.0sp1/nios2eds/bin/gnu/h-i686-mingw32/bin/../lib/gcc/nios2-elf/4.1.2/../../../../nios2-elf/lib\libc.a(lib_a-malloc.o)
                              ../simple_socket_bsp/\libucosii_bsp.a(targnios.o) (free)
j:/altera/13.0sp1/nios2eds/bin/gnu/h-i686-mingw32/bin/../lib/gcc/nios2-elf/4.1.2/../../../../nios2-elf/lib\libc.a(lib_a-memcmp.o)
                              ../simple_socket_bsp/\libucosii_bsp.a(altera_avalon_cfi_flash.o) (memcmp)
j:/altera/13.0sp1/nios2eds/bin/gnu/h-i686-mingw32/bin/../lib/gcc/nios2-elf/4.1.2/../../../../nios2-elf/lib\libc.a(lib_a-sprintf.o)
                              ../simple_socket_bsp/\libucosii_bsp.a(in_utils.o) (sprintf)
j:/altera/13.0sp1/nios2eds/bin/gnu/h-i686-mingw32/bin/../lib/gcc/nios2-elf/4.1.2/../../../../nios2-elf/lib\libc.a(lib_a-strcpy.o)
                              ../simple_socket_bsp/\libucosii_bsp.a(parseip.o) (strcpy)
j:/altera/13.0sp1/nios2eds/bin/gnu/h-i686-mingw32/bin/../lib/gcc/nios2-elf/4.1.2/../../../../nios2-elf/lib\libc.a(lib_a-strncmp.o)
                              ../simple_socket_bsp/\libucosii_bsp.a(vfsfiles.o) (strncmp)
j:/altera/13.0sp1/nios2eds/bin/gnu/h-i686-mingw32/bin/../lib/gcc/nios2-elf/4.1.2/../../../../nios2-elf/lib\libc.a(lib_a-strncpy.o)
                              ../simple_socket_bsp/\libucosii_bsp.a(dhcpclnt.o) (strncpy)
j:/altera/13.0sp1/nios2eds/bin/gnu/h-i686-mingw32/bin/../lib/gcc/nios2-elf/4.1.2/../../../../nios2-elf/lib\libc.a(lib_a-strtol.o)
                              j:/altera/13.0sp1/nios2eds/bin/gnu/h-i686-mingw32/bin/../lib/gcc/nios2-elf/4.1.2/../../../../nios2-elf/lib\libc.a(lib_a-atoi.o) (_strtol_r)
j:/altera/13.0sp1/nios2eds/bin/gnu/h-i686-mingw32/bin/../lib/gcc/nios2-elf/4.1.2/../../../../nios2-elf/lib\libc.a(lib_a-vprintf.o)
                              ../simple_socket_bsp/\libucosii_bsp.a(in_utils.o) (vprintf)
j:/altera/13.0sp1/nios2eds/bin/gnu/h-i686-mingw32/bin/../lib/gcc/nios2-elf/4.1.2/../../../../nios2-elf/lib\libc.a(lib_a-vsprintf.o)
                              ../simple_socket_bsp/\libucosii_bsp.a(in_utils.o) (vsprintf)
j:/altera/13.0sp1/nios2eds/bin/gnu/h-i686-mingw32/bin/../lib/gcc/nios2-elf/4.1.2/../../../../nios2-elf/lib\libc.a(lib_a-__atexit.o)
                              j:/altera/13.0sp1/nios2eds/bin/gnu/h-i686-mingw32/bin/../lib/gcc/nios2-elf/4.1.2/../../../../nios2-elf/lib\libc.a(lib_a-atexit.o) (__register_exitproc)

Allocating common symbols
Common symbol       size              file

soq                 0x14              ../simple_socket_bsp/\libucosii_bsp.a(nptcp.o)
alt_irq             0x100             ../simple_socket_bsp/\libucosii_bsp.a(alt_irq_handler.o)
tcp_optionbuf       0x4               ../simple_socket_bsp/\libucosii_bsp.a(tcp_out.o)
last_flash_sector_offset
                    0x4               obj/default/SSS_DE2_115.o
rt_mib              0x4               ../simple_socket_bsp/\libucosii_bsp.a(ip.o)
so_evtmap_create    0x4               ../simple_socket_bsp/\libucosii_bsp.a(ipport.o)
SSSLEDCommandQ      0x4               obj/default/simple_socket_server.o
OSLockNesting       0x1               ../simple_socket_bsp/\libucosii_bsp.a(os_core.o)
tcb                 0x2c              ../simple_socket_bsp/\libucosii_bsp.a(tcp_subr.o)
OSRunning           0x1               ../simple_socket_bsp/\libucosii_bsp.a(os_core.o)
dhc_states          0xf0              ../simple_socket_bsp/\libucosii_bsp.a(dhcpclnt.o)
tcpstat             0xe0              ../simple_socket_bsp/\libucosii_bsp.a(tcp_subr.o)
OSIdleCtr           0x4               ../simple_socket_bsp/\libucosii_bsp.a(os_core.o)
SSSLEDLightshowSem  0x4               obj/default/simple_socket_server.o
udp_mib             0x10              ../simple_socket_bsp/\libucosii_bsp.a(udp.o)
to_netmain          0x1               ../simple_socket_bsp/\libucosii_bsp.a(netmain.o)
OSPrioHighRdy       0x1               ../simple_socket_bsp/\libucosii_bsp.a(os_core.o)
errno               0x4               j:/altera/13.0sp1/nios2eds/bin/gnu/h-i686-mingw32/bin/../lib/gcc/nios2-elf/4.1.2/../../../../nios2-elf/lib\libc.a(lib_a-int_errno.o)
lilfreeq            0x14              ../simple_socket_bsp/\libucosii_bsp.a(pktalloc.o)
icmp_mib            0x68              ../simple_socket_bsp/\libucosii_bsp.a(icmp.o)
resid_semaphore     0x40              ../simple_socket_bsp/\libucosii_bsp.a(targnios.o)
alt_heapsem         0x4               ../simple_socket_bsp/\libucosii_bsp.a(alt_malloc_lock.o)
OSFlagTbl           0x370             ../simple_socket_bsp/\libucosii_bsp.a(os_core.o)
mbstat              0x8               ../simple_socket_bsp/\libucosii_bsp.a(nptcp.o)
netq_intmask        0x4               ../simple_socket_bsp/\libucosii_bsp.a(osportco.o)
select_wait         0x2               ../simple_socket_bsp/\libucosii_bsp.a(nptcp.o)
tcpmib              0x3c              ../simple_socket_bsp/\libucosii_bsp.a(nptcp.o)
OSPrioCur           0x1               ../simple_socket_bsp/\libucosii_bsp.a(os_core.o)
mheap_sem_ptr       0x4               ../simple_socket_bsp/\libucosii_bsp.a(targnios.o)
netlist             0x14              ../simple_socket_bsp/\libucosii_bsp.a(iface.o)
mbufq               0x14              ../simple_socket_bsp/\libucosii_bsp.a(nptcp.o)
OSTCBList           0x4               ../simple_socket_bsp/\libucosii_bsp.a(os_core.o)
alt_fd_list_lock    0x4               ../simple_socket_bsp/\libucosii_bsp.a(alt_dev.o)
OSMemTbl            0xc30             ../simple_socket_bsp/\libucosii_bsp.a(os_core.o)
OSTickStepState     0x1               ../simple_socket_bsp/\libucosii_bsp.a(os_core.o)
OSTaskStatStk       0x800             ../simple_socket_bsp/\libucosii_bsp.a(os_core.o)
OSCtxSwCtr          0x4               ../simple_socket_bsp/\libucosii_bsp.a(os_core.o)
igmpstats           0x64              ../simple_socket_bsp/\libucosii_bsp.a(igmp_cmn.o)
ire_stats           0x18              ../simple_socket_bsp/\libucosii_bsp.a(ip_reasm.o)
old_mode            0x4               ../simple_socket_bsp/\libucosii_bsp.a(osportco.o)
vfs_dir_stale       0x4               ../simple_socket_bsp/\libucosii_bsp.a(vfsfiles.o)
cticks_factor       0x4               ../simple_socket_bsp/\libucosii_bsp.a(brdutils.o)
g_dm9ka             0x44              obj/default/dm9000a.o
OSIdleCtrMax        0x4               ../simple_socket_bsp/\libucosii_bsp.a(os_core.o)
memestats           0x10              ../simple_socket_bsp/\libucosii_bsp.a(pktalloc.o)
intimers            0x64              ../simple_socket_bsp/\libucosii_bsp.a(timeouts.o)
OSTCBFreeList       0x4               ../simple_socket_bsp/\libucosii_bsp.a(os_core.o)
global_TCPwakeup_setIndx
                    0x4               ../simple_socket_bsp/\libucosii_bsp.a(osportco.o)
SSSInitialTaskStk   0x2000            obj/default/iniche_init.o
rcvdq               0x14              ../simple_socket_bsp/\libucosii_bsp.a(ipnet.o)
global_tcb_ext      0xfc              ../simple_socket_bsp/\libucosii_bsp.a(osportco.o)
netstatic           0x300             ../simple_socket_bsp/\libucosii_bsp.a(ipstart.o)
tcp_maxidle         0x4               ../simple_socket_bsp/\libucosii_bsp.a(tcp_timr.o)
LED7SegLightshowTaskStk
                    0x2000            obj/default/simple_socket_server.o
OSCPUUsage          0x1               ../simple_socket_bsp/\libucosii_bsp.a(os_core.o)
nets                0x10              ../simple_socket_bsp/\libucosii_bsp.a(ipstart.o)
pktlog              0xf0              ../simple_socket_bsp/\libucosii_bsp.a(pktalloc.o)
OSTaskCtr           0x1               ../simple_socket_bsp/\libucosii_bsp.a(os_core.o)
SSSLEDEventFlag     0x4               obj/default/simple_socket_server.o
OSMemFreeList       0x4               ../simple_socket_bsp/\libucosii_bsp.a(os_core.o)
vfs_open_files      0x4               ../simple_socket_bsp/\libucosii_bsp.a(vfsfiles.o)
cticks              0x4               ../simple_socket_bsp/\libucosii_bsp.a(osportco.o)
to_nettick          0x1               ../simple_socket_bsp/\libucosii_bsp.a(netmain.o)
last_flash_sector   0x4               obj/default/SSS_DE2_115.o
OSQTbl              0x1e0             ../simple_socket_bsp/\libucosii_bsp.a(os_core.o)
OSTCBHighRdy        0x4               ../simple_socket_bsp/\libucosii_bsp.a(os_core.o)
OSQFreeList         0x4               ../simple_socket_bsp/\libucosii_bsp.a(os_core.o)
OSRdyGrp            0x1               ../simple_socket_bsp/\libucosii_bsp.a(os_core.o)
ip_mib              0x50              ../simple_socket_bsp/\libucosii_bsp.a(ip.o)
SSSLEDCommandQTbl   0x78              obj/default/simple_socket_server.o
OS_TPS              0x4               ../simple_socket_bsp/\libucosii_bsp.a(brdutils.o)
_atexit0            0x190             j:/altera/13.0sp1/nios2eds/bin/gnu/h-i686-mingw32/bin/../lib/gcc/nios2-elf/4.1.2/../../../../nios2-elf/lib\libc.a(lib_a-atexit.o)
OSRdyTbl            0x3               ../simple_socket_bsp/\libucosii_bsp.a(os_core.o)
igmp_all_hosts_group
                    0x4               ../simple_socket_bsp/\libucosii_bsp.a(igmp_cmn.o)
eth_prt_buf         0x12              ../simple_socket_bsp/\libucosii_bsp.a(in_utils.o)
app_semaphore       0x18              ../simple_socket_bsp/\libucosii_bsp.a(targnios.o)
LEDManagementTaskStk
                    0x2000            obj/default/simple_socket_server.o
rcvdq_sem_ptr       0x4               ../simple_socket_bsp/\libucosii_bsp.a(targnios.o)
OSEventFreeList     0x4               ../simple_socket_bsp/\libucosii_bsp.a(os_core.o)
mfreeq              0x14              ../simple_socket_bsp/\libucosii_bsp.a(nptcp.o)
to_ssstask          0x1               obj/default/iniche_init.o
global_TCPwakeup_set
                    0xf0              ../simple_socket_bsp/\libucosii_bsp.a(osportco.o)
bigfreeq            0x14              ../simple_socket_bsp/\libucosii_bsp.a(pktalloc.o)
so_evtmap_delete    0x4               ../simple_socket_bsp/\libucosii_bsp.a(ipport.o)
tcp_saveti          0x28              ../simple_socket_bsp/\libucosii_bsp.a(tcp_in.o)
OSIntNesting        0x1               ../simple_socket_bsp/\libucosii_bsp.a(os_core.o)
so_evtmap           0x1               ../simple_socket_bsp/\libucosii_bsp.a(ipport.o)
OSTCBCur            0x4               ../simple_socket_bsp/\libucosii_bsp.a(os_core.o)
arp_table           0x100             ../simple_socket_bsp/\libucosii_bsp.a(et_arp.o)
tcp_iss             0x4               ../simple_socket_bsp/\libucosii_bsp.a(tcp_timr.o)
vfs_total_rw_space  0x4               ../simple_socket_bsp/\libucosii_bsp.a(vfsfiles.o)
OSTime              0x4               ../simple_socket_bsp/\libucosii_bsp.a(os_core.o)
OSTaskIdleStk       0x800             ../simple_socket_bsp/\libucosii_bsp.a(os_core.o)
OSEventTbl          0xb40             ../simple_socket_bsp/\libucosii_bsp.a(os_core.o)
vfs_total_dyna_files
                    0x4               ../simple_socket_bsp/\libucosii_bsp.a(vfsfiles.o)
OSTCBTbl            0x510             ../simple_socket_bsp/\libucosii_bsp.a(os_core.o)
ipreturn            0x12              ../simple_socket_bsp/\libucosii_bsp.a(in_utils.o)
OSFlagFreeList      0x4               ../simple_socket_bsp/\libucosii_bsp.a(os_core.o)
dropline            0x4               ../simple_socket_bsp/\libucosii_bsp.a(tcp_in.o)
OSStatRdy           0x1               ../simple_socket_bsp/\libucosii_bsp.a(os_core.o)
OSTCBPrioTbl        0x54              ../simple_socket_bsp/\libucosii_bsp.a(os_core.o)
igmp_all_rtrs_group
                    0x4               ../simple_socket_bsp/\libucosii_bsp.a(igmp_cmn.o)
alt_envsem          0x4               ../simple_socket_bsp/\libucosii_bsp.a(alt_env_lock.o)
OSIdleCtrRun        0x4               ../simple_socket_bsp/\libucosii_bsp.a(os_core.o)

Memory Configuration

Name             Origin             Length             Attributes
sdram_0_BEFORE_EXCEPTION 0x00800000         0x00000020
sdram_0          0x00800020         0x007fffe0
reset            0x01400000         0x00000020
cfi_flash_0      0x01400020         0x003fffe0
sram_0           0x01a00000         0x00080000
epcs_controller  0x01a81800         0x00000800
*default*        0x00000000         0xffffffff

Linker script and memory map

LOAD ../simple_socket_bsp//obj/HAL/src/crt0.o
LOAD obj/default/LCD.o
LOAD obj/default/SSS_DE2_115.o
LOAD obj/default/alt_error_handler.o
LOAD obj/default/dm9000a.o
LOAD obj/default/iniche_init.o
LOAD obj/default/led.o
LOAD obj/default/network_utilities.o
LOAD obj/default/simple_socket_server.o
LOAD obj/default/tse_my_system.o
LOAD j:/altera/13.0sp1/nios2eds/bin/gnu/h-i686-mingw32/bin/../lib/gcc/nios2-elf/4.1.2/../../../../nios2-elf/lib\libstdc++.a
LOAD j:/altera/13.0sp1/nios2eds/bin/gnu/h-i686-mingw32/bin/../lib/gcc/nios2-elf/4.1.2/../../../../nios2-elf/lib\libm.a
LOAD j:/altera/13.0sp1/nios2eds/bin/gnu/h-i686-mingw32/bin/../lib/gcc/nios2-elf/4.1.2\libgcc.a
START GROUP
LOAD j:/altera/13.0sp1/nios2eds/bin/gnu/h-i686-mingw32/bin/../lib/gcc/nios2-elf/4.1.2/../../../../nios2-elf/lib\libc.a
LOAD j:/altera/13.0sp1/nios2eds/bin/gnu/h-i686-mingw32/bin/../lib/gcc/nios2-elf/4.1.2\libgcc.a
LOAD ../simple_socket_bsp/\libucosii_bsp.a
END GROUP
LOAD j:/altera/13.0sp1/nios2eds/bin/gnu/h-i686-mingw32/bin/../lib/gcc/nios2-elf/4.1.2\libgcc.a
                0x00800000                __alt_mem_sdram_0 = 0x800000
                0x01400000                __alt_mem_cfi_flash_0 = 0x1400000
                0x01a00000                __alt_mem_sram_0 = 0x1a00000
                0x01a81800                __alt_mem_epcs_controller = 0x1a81800

.entry          0x01400000        0x0
 *(.entry)
 .entry         0x01400000        0x0 ../simple_socket_bsp//obj/HAL/src/crt0.o
                0x01400000                __reset

.exceptions     0x00800020      0x19c
                0x00800020                PROVIDE (__ram_exceptions_start, ABSOLUTE (.))
                0x00800020                . = ALIGN (0x20)
 *(.irq)
 *(.exceptions.entry.label)
 .exceptions.entry.label
                0x00800020        0x0 ../simple_socket_bsp/\libucosii_bsp.a(alt_irq_entry.o)
                0x00800020                alt_irq_entry
 .exceptions.entry.label
                0x00800020        0x0 ../simple_socket_bsp/\libucosii_bsp.a(alt_exception_entry.o)
                0x00800020                alt_exception
 *(.exceptions.entry.user)
 *(.exceptions.entry)
 .exceptions.entry
                0x00800020       0x54 ../simple_socket_bsp/\libucosii_bsp.a(alt_exception_entry.o)
 *(.exceptions.irqtest.user)
 *(.exceptions.irqtest)
 .exceptions.irqtest
                0x00800074       0x10 ../simple_socket_bsp/\libucosii_bsp.a(alt_irq_entry.o)
 *(.exceptions.irqhandler.user)
 *(.exceptions.irqhandler)
 .exceptions.irqhandler
                0x00800084        0x4 ../simple_socket_bsp/\libucosii_bsp.a(alt_irq_entry.o)
 *(.exceptions.irqreturn.user)
 *(.exceptions.irqreturn)
 .exceptions.irqreturn
                0x00800088        0x4 ../simple_socket_bsp/\libucosii_bsp.a(alt_irq_entry.o)
 *(.exceptions.notirq.label)
 .exceptions.notirq.label
                0x0080008c        0x0 ../simple_socket_bsp/\libucosii_bsp.a(alt_irq_entry.o)
 *(.exceptions.notirq.user)
 *(.exceptions.notirq)
 .exceptions.notirq
                0x0080008c        0x8 ../simple_socket_bsp/\libucosii_bsp.a(alt_exception_entry.o)
 *(.exceptions.soft.user)
 *(.exceptions.soft)
 *(.exceptions.unknown.user)
 *(.exceptions.unknown)
 .exceptions.unknown
                0x00800094        0x4 ../simple_socket_bsp/\libucosii_bsp.a(alt_exception_entry.o)
 *(.exceptions.exit.label)
 .exceptions.exit.label
                0x00800098        0x0 ../simple_socket_bsp/\libucosii_bsp.a(alt_irq_entry.o)
 .exceptions.exit.label
                0x00800098        0x0 ../simple_socket_bsp/\libucosii_bsp.a(alt_exception_entry.o)
 *(.exceptions.exit.user)
 *(.exceptions.exit)
 .exceptions.exit
                0x00800098       0x54 ../simple_socket_bsp/\libucosii_bsp.a(alt_exception_entry.o)
 *(.exceptions)
 .exceptions    0x008000ec       0xd0 ../simple_socket_bsp/\libucosii_bsp.a(alt_irq_handler.o)
                0x008000ec                alt_irq_handler
                0x008001bc                PROVIDE (__ram_exceptions_end, ABSOLUTE (.))
                0x00800020                PROVIDE (__flash_exceptions_start, LOADADDR (.exceptions))

.text           0x008001bc    0x47090
                0x008001bc                PROVIDE (stext, ABSOLUTE (.))
 *(.interp)
 *(.hash)
 *(.dynsym)
 *(.dynstr)
 *(.gnu.version)
 *(.gnu.version_d)
 *(.gnu.version_r)
 *(.rel.init)
 *(.rela.init)
 *(.rel.text .rel.text.* .rel.gnu.linkonce.t.*)
 *(.rela.text .rela.text.* .rela.gnu.linkonce.t.*)
 *(.rel.fini)
 *(.rela.fini)
 *(.rel.rodata .rel.rodata.* .rel.gnu.linkonce.r.*)
 *(.rela.rodata .rela.rodata.* .rela.gnu.linkonce.r.*)
 *(.rel.data .rel.data.* .rel.gnu.linkonce.d.*)
 *(.rela.data .rela.data.* .rela.gnu.linkonce.d.*)
 *(.rel.tdata .rel.tdata.* .rel.gnu.linkonce.td.*)
 *(.rela.tdata .rela.tdata.* .rela.gnu.linkonce.td.*)
 *(.rel.tbss .rel.tbss.* .rel.gnu.linkonce.tb.*)
 *(.rela.tbss .rela.tbss.* .rela.gnu.linkonce.tb.*)
 *(.rel.ctors)
 *(.rela.ctors)
 *(.rel.dtors)
 *(.rela.dtors)
 *(.rel.got)
 *(.rela.got)
 *(.rel.sdata .rel.sdata.* .rel.gnu.linkonce.s.*)
 *(.rela.sdata .rela.sdata.* .rela.gnu.linkonce.s.*)
 *(.rel.sbss .rel.sbss.* .rel.gnu.linkonce.sb.*)
 *(.rela.sbss .rela.sbss.* .rela.gnu.linkonce.sb.*)
 *(.rel.sdata2 .rel.sdata2.* .rel.gnu.linkonce.s2.*)
 *(.rela.sdata2 .rela.sdata2.* .rela.gnu.linkonce.s2.*)
 *(.rel.sbss2 .rel.sbss2.* .rel.gnu.linkonce.sb2.*)
 *(.rela.sbss2 .rela.sbss2.* .rela.gnu.linkonce.sb2.*)
 *(.rel.bss .rel.bss.* .rel.gnu.linkonce.b.*)
 *(.rela.bss .rela.bss.* .rela.gnu.linkonce.b.*)
 *(.rel.plt)
 *(.rela.plt)
 *(.rel.dyn)
 *(.init)
 *(.plt)
 *(.text .stub .text.* .gnu.linkonce.t.*)
 .text          0x008001bc       0x48 ../simple_socket_bsp//obj/HAL/src/crt0.o
                0x008001bc                _start
 .text          0x00800204      0x31c obj/default/LCD.o
                0x00800204                LCD_Init
                0x008002a0                LCD_Show_Text
                0x00800328                LCD_Line2
                0x00800364                LCD_Line1
                0x008003a0                LCD_Clear
                0x008003dc                LCD_Test
 .text          0x00800520      0x2ec obj/default/SSS_DE2_115.o
                0x00800520                get_DE2_115_mac_addr
                0x008006c8                FindLastFlashSectorOffset
 .text          0x0080080c      0xba8 obj/default/alt_error_handler.o
                0x0080080c                alt_uCOSIIErrorHandler
                0x00800e30                alt_NetworkErrorHandler
                0x008010c8                alt_SSSErrorHandler
 .text          0x008013b4      0xe48 obj/default/dm9000a.o
                0x008013b4                dm9000a_iow
                0x00801408                dm9000a_ior
                0x00801454                phy_write
                0x008014f0                dm9000a_reset
                0x008016b4                TransmitPacket
                0x008017d0                prep_dm9000a
                0x008019ec                dm9000a_init
                0x00801e3c                dm9Ka_isr_wrap
                0x00801e7c                dm9ka_init
                0x00801f74                dm9ka_close
                0x00802084                dm9ka_stats
                0x008020e0                dm9ka_pkt_send
 .text          0x008021fc      0x780 obj/default/iniche_init.o
                0x008021fc                SSSInitialTask
                0x00802880                main
 .text          0x0080297c      0x324 obj/default/led.o
                0x0080297c                led_bit_toggle
                0x00802a48                LED7SegLightshowTask
                0x00802abc                LEDManagementTask
 .text          0x00802ca0      0x73c obj/default/network_utilities.o
                0x00802ca0                get_mac_addr
                0x00802cf8                get_ip_addr
                0x00802d64                get_serial_number
                0x00802f40                generate_and_store_mac_addr
                0x0080310c                generate_mac_addr
                0x00803248                get_board_mac_addr
 .text          0x008033dc      0x9f8 obj/default/simple_socket_server.o
                0x008033dc                SSSCreateOSDataStructs
                0x00803484                SSSCreateTasks
                0x00803548                sss_reset_connection
                0x008035b8                sss_send_menu
                0x00803748                sss_handle_accept
                0x00803808                sss_exec_command
                0x0080397c                sss_handle_receive
                0x00803b68                SSSSimpleSocketServerTask
 .text          0x00803dd4        0x0 obj/default/tse_my_system.o
 .text          0x00803dd4       0xa4 j:/altera/13.0sp1/nios2eds/bin/gnu/h-i686-mingw32/bin/../lib/gcc/nios2-elf/4.1.2\libgcc.a(_fixunsdfsi.o)
                0x00803dd4                __fixunsdfsi
 .text          0x00803e78      0x504 j:/altera/13.0sp1/nios2eds/bin/gnu/h-i686-mingw32/bin/../lib/gcc/nios2-elf/4.1.2\libgcc.a(_addsub_df.o)
                0x00804288                __subdf3
                0x00804308                __adddf3
 .text          0x0080437c      0x3c4 j:/altera/13.0sp1/nios2eds/bin/gnu/h-i686-mingw32/bin/../lib/gcc/nios2-elf/4.1.2\libgcc.a(_mul_df.o)
                0x0080437c                __muldf3
 .text          0x00804740       0x88 j:/altera/13.0sp1/nios2eds/bin/gnu/h-i686-mingw32/bin/../lib/gcc/nios2-elf/4.1.2\libgcc.a(_ge_df.o)
                0x00804740                __gedf2
 .text          0x008047c8       0xd8 j:/altera/13.0sp1/nios2eds/bin/gnu/h-i686-mingw32/bin/../lib/gcc/nios2-elf/4.1.2\libgcc.a(_df_to_si.o)
                0x008047c8                __fixdfsi
 .text          0x008048a0        0x0 j:/altera/13.0sp1/nios2eds/bin/gnu/h-i686-mingw32/bin/../lib/gcc/nios2-elf/4.1.2\libgcc.a(_thenan_df.o)
 .text          0x008048a0      0x194 j:/altera/13.0sp1/nios2eds/bin/gnu/h-i686-mingw32/bin/../lib/gcc/nios2-elf/4.1.2\libgcc.a(_usi_to_df.o)
                0x008048a0                __floatunsidf
 .text          0x00804a34       0x98 j:/altera/13.0sp1/nios2eds/bin/gnu/h-i686-mingw32/bin/../lib/gcc/nios2-elf/4.1.2\libgcc.a(_muldi3.o)
                0x00804a34                __muldi3
 .text          0x00804acc       0x80 j:/altera/13.0sp1/nios2eds/bin/gnu/h-i686-mingw32/bin/../lib/gcc/nios2-elf/4.1.2\libgcc.a(_clzsi2.o)
                0x00804acc                __clzsi2
 .text          0x00804b4c      0x314 j:/altera/13.0sp1/nios2eds/bin/gnu/h-i686-mingw32/bin/../lib/gcc/nios2-elf/4.1.2\libgcc.a(_pack_df.o)
                0x00804b4c                __pack_d
 .text          0x00804e60      0x138 j:/altera/13.0sp1/nios2eds/bin/gnu/h-i686-mingw32/bin/../lib/gcc/nios2-elf/4.1.2\libgcc.a(_unpack_df.o)
                0x00804e60                __unpack_d
 .text          0x00804f98       0xc8 j:/altera/13.0sp1/nios2eds/bin/gnu/h-i686-mingw32/bin/../lib/gcc/nios2-elf/4.1.2\libgcc.a(_fpcmp_parts_df.o)
                0x00804f98                __fpcmp_parts_d
 .text          0x00805060        0x0 j:/altera/13.0sp1/nios2eds/bin/gnu/h-i686-mingw32/bin/../lib/gcc/nios2-elf/4.1.2\libgcc.a(_clz.o)
 .text          0x00805060        0x0 j:/altera/13.0sp1/nios2eds/bin/gnu/h-i686-mingw32/bin/../lib/gcc/nios2-elf/4.1.2/../../../../nios2-elf/lib\libc.a(lib_a-ctype_.o)
 .text          0x00805060       0x38 j:/altera/13.0sp1/nios2eds/bin/gnu/h-i686-mingw32/bin/../lib/gcc/nios2-elf/4.1.2/../../../../nios2-elf/lib\libc.a(lib_a-exit.o)
                0x00805060                exit
 .text          0x00805098       0x60 j:/altera/13.0sp1/nios2eds/bin/gnu/h-i686-mingw32/bin/../lib/gcc/nios2-elf/4.1.2/../../../../nios2-elf/lib\libc.a(lib_a-fprintf.o)
                0x00805098                fprintf
                0x008050c4                _fprintf_r
 .text          0x008050f8       0xdc j:/altera/13.0sp1/nios2eds/bin/gnu/h-i686-mingw32/bin/../lib/gcc/nios2-elf/4.1.2/../../../../nios2-elf/lib\libc.a(lib_a-fwrite.o)
                0x008050f8                _fwrite_r
                0x00805194                fwrite
 .text          0x008051d4      0x128 j:/altera/13.0sp1/nios2eds/bin/gnu/h-i686-mingw32/bin/../lib/gcc/nios2-elf/4.1.2/../../../../nios2-elf/lib\libc.a(lib_a-getc.o)
                0x008051d4                getc
                0x0080526c                _getc_r
 .text          0x008052fc        0x0 j:/altera/13.0sp1/nios2eds/bin/gnu/h-i686-mingw32/bin/../lib/gcc/nios2-elf/4.1.2/../../../../nios2-elf/lib\libc.a(lib_a-impure.o)
 .text          0x008052fc       0xa0 j:/altera/13.0sp1/nios2eds/bin/gnu/h-i686-mingw32/bin/../lib/gcc/nios2-elf/4.1.2/../../../../nios2-elf/lib\libc.a(lib_a-memcpy.o)
                0x008052fc                memcpy
 .text          0x0080539c       0xe0 j:/altera/13.0sp1/nios2eds/bin/gnu/h-i686-mingw32/bin/../lib/gcc/nios2-elf/4.1.2/../../../../nios2-elf/lib\libc.a(lib_a-memmove.o)
                0x0080539c                memmove
 .text          0x0080547c       0x98 j:/altera/13.0sp1/nios2eds/bin/gnu/h-i686-mingw32/bin/../lib/gcc/nios2-elf/4.1.2/../../../../nios2-elf/lib\libc.a(lib_a-memset.o)
                0x0080547c                memset
 .text          0x00805514       0x80 j:/altera/13.0sp1/nios2eds/bin/gnu/h-i686-mingw32/bin/../lib/gcc/nios2-elf/4.1.2/../../../../nios2-elf/lib\libc.a(lib_a-perror.o)
                0x00805514                _perror_r
                0x00805580                perror
 .text          0x00805594       0x78 j:/altera/13.0sp1/nios2eds/bin/gnu/h-i686-mingw32/bin/../lib/gcc/nios2-elf/4.1.2/../../../../nios2-elf/lib\libc.a(lib_a-printf.o)
                0x00805594                printf
                0x008055d8                _printf_r
 .text          0x0080560c      0x1ec j:/altera/13.0sp1/nios2eds/bin/gnu/h-i686-mingw32/bin/../lib/gcc/nios2-elf/4.1.2/../../../../nios2-elf/lib\libc.a(lib_a-putc.o)
                0x0080560c                putc
                0x00805710                _putc_r
 .text          0x008057f8       0x24 j:/altera/13.0sp1/nios2eds/bin/gnu/h-i686-mingw32/bin/../lib/gcc/nios2-elf/4.1.2/../../../../nios2-elf/lib\libc.a(lib_a-putchar.o)
                0x008057f8                putchar
                0x00805814                _putchar_r
 .text          0x0080581c       0xb4 j:/altera/13.0sp1/nios2eds/bin/gnu/h-i686-mingw32/bin/../lib/gcc/nios2-elf/4.1.2/../../../../nios2-elf/lib\libc.a(lib_a-puts.o)
                0x0080581c                _puts_r
                0x008058bc                puts
 .text          0x008058d0       0x60 j:/altera/13.0sp1/nios2eds/bin/gnu/h-i686-mingw32/bin/../lib/gcc/nios2-elf/4.1.2/../../../../nios2-elf/lib\libc.a(lib_a-rget.o)
                0x008058d0                __srget_r
                0x0080591c                __srget
 .text          0x00805930       0xe0 j:/altera/13.0sp1/nios2eds/bin/gnu/h-i686-mingw32/bin/../lib/gcc/nios2-elf/4.1.2/../../../../nios2-elf/lib\libc.a(lib_a-strchr.o)
                0x00805930                strchr
 .text          0x00805a10      0x674 j:/altera/13.0sp1/nios2eds/bin/gnu/h-i686-mingw32/bin/../lib/gcc/nios2-elf/4.1.2/../../../../nios2-elf/lib\libc.a(lib_a-strerror.o)
                0x00805a10                strerror
 .text          0x00806084       0x74 j:/altera/13.0sp1/nios2eds/bin/gnu/h-i686-mingw32/bin/../lib/gcc/nios2-elf/4.1.2/../../../../nios2-elf/lib\libc.a(lib_a-strlen.o)
                0x00806084                strlen
 .text          0x008060f8        0x8 j:/altera/13.0sp1/nios2eds/bin/gnu/h-i686-mingw32/bin/../lib/gcc/nios2-elf/4.1.2/../../../../nios2-elf/lib\libc.a(lib_a-u_strerr.o)
                0x008060f8                _user_strerror
 .text          0x00806100     0x1f28 j:/altera/13.0sp1/nios2eds/bin/gnu/h-i686-mingw32/bin/../lib/gcc/nios2-elf/4.1.2/../../../../nios2-elf/lib\libc.a(lib_a-vfprintf.o)
                0x00806158                ___vfprintf_internal_r
                0x00808004                __vfprintf_internal
 .text          0x00808028      0x14c j:/altera/13.0sp1/nios2eds/bin/gnu/h-i686-mingw32/bin/../lib/gcc/nios2-elf/4.1.2/../../../../nios2-elf/lib\libc.a(lib_a-wbuf.o)
                0x00808028                __swbuf_r
                0x00808158                __swbuf
 .text          0x00808174      0x13c j:/altera/13.0sp1/nios2eds/bin/gnu/h-i686-mingw32/bin/../lib/gcc/nios2-elf/4.1.2/../../../../nios2-elf/lib\libc.a(lib_a-wsetup.o)
                0x00808174                __swsetup_r
 .text          0x008082b0      0x1b4 j:/altera/13.0sp1/nios2eds/bin/gnu/h-i686-mingw32/bin/../lib/gcc/nios2-elf/4.1.2/../../../../nios2-elf/lib\libc.a(lib_a-__call_atexit.o)
                0x008082b4                __call_exitprocs
 .text          0x00808464     0x17cc j:/altera/13.0sp1/nios2eds/bin/gnu/h-i686-mingw32/bin/../lib/gcc/nios2-elf/4.1.2/../../../../nios2-elf/lib\libc.a(lib_a-dtoa.o)
                0x0080867c                _dtoa_r
 .text          0x00809c30      0x230 j:/altera/13.0sp1/nios2eds/bin/gnu/h-i686-mingw32/bin/../lib/gcc/nios2-elf/4.1.2/../../../../nios2-elf/lib\libc.a(lib_a-fflush.o)
                0x00809c30                _fflush_r
                0x00809e2c                fflush
 .text          0x00809e60      0x2c0 j:/altera/13.0sp1/nios2eds/bin/gnu/h-i686-mingw32/bin/../lib/gcc/nios2-elf/4.1.2/../../../../nios2-elf/lib\libc.a(lib_a-findfp.o)
                0x00809eb8                __sfp_lock_acquire
                0x00809ebc                __sfp_lock_release
                0x00809ec0                __sinit_lock_acquire
                0x00809ec4                __sinit_lock_release
                0x00809ec8                __sinit
                0x00809f7c                __fp_unlock_all
                0x00809f94                __fp_lock_all
                0x00809fac                _cleanup_r
                0x00809fb8                _cleanup
                0x00809fc8                __sfmoreglue
                0x0080a030                __sfp
 .text          0x0080a120       0xbc j:/altera/13.0sp1/nios2eds/bin/gnu/h-i686-mingw32/bin/../lib/gcc/nios2-elf/4.1.2/../../../../nios2-elf/lib\libc.a(lib_a-fputc.o)
                0x0080a120                fputc
                0x0080a184                _fputc_r
 .text          0x0080a1dc       0x90 j:/altera/13.0sp1/nios2eds/bin/gnu/h-i686-mingw32/bin/../lib/gcc/nios2-elf/4.1.2/../../../../nios2-elf/lib\libc.a(lib_a-fputs.o)
                0x0080a1dc                _fputs_r
                0x0080a250                fputs
 .text          0x0080a26c      0x440 j:/altera/13.0sp1/nios2eds/bin/gnu/h-i686-mingw32/bin/../lib/gcc/nios2-elf/4.1.2/../../../../nios2-elf/lib\libc.a(lib_a-freer.o)
                0x0080a26c                _malloc_trim_r
                0x0080a398                _free_r
 .text          0x0080a6ac      0x49c j:/altera/13.0sp1/nios2eds/bin/gnu/h-i686-mingw32/bin/../lib/gcc/nios2-elf/4.1.2/../../../../nios2-elf/lib\libc.a(lib_a-fvwrite.o)
                0x0080a6ac                __sfvwrite_r
 .text          0x0080ab48      0x180 j:/altera/13.0sp1/nios2eds/bin/gnu/h-i686-mingw32/bin/../lib/gcc/nios2-elf/4.1.2/../../../../nios2-elf/lib\libc.a(lib_a-fwalk.o)
                0x0080ab48                _fwalk_reent
                0x0080ac10                _fwalk
 .text          0x0080acc8       0xc4 j:/altera/13.0sp1/nios2eds/bin/gnu/h-i686-mingw32/bin/../lib/gcc/nios2-elf/4.1.2/../../../../nios2-elf/lib\libc.a(lib_a-locale.o)
                0x0080acc8                __locale_charset
                0x0080acd0                _localeconv_r
                0x0080acdc                localeconv
                0x0080acec                _setlocale_r
                0x0080ad70                setlocale
 .text          0x0080ad8c      0x194 j:/altera/13.0sp1/nios2eds/bin/gnu/h-i686-mingw32/bin/../lib/gcc/nios2-elf/4.1.2/../../../../nios2-elf/lib\libc.a(lib_a-makebuf.o)
                0x0080ad8c                __smakebuf_r
 .text          0x0080af20      0x740 j:/altera/13.0sp1/nios2eds/bin/gnu/h-i686-mingw32/bin/../lib/gcc/nios2-elf/4.1.2/../../../../nios2-elf/lib\libc.a(lib_a-mallocr.o)
                0x0080af20                _malloc_r
 .text          0x0080b660       0xe4 j:/altera/13.0sp1/nios2eds/bin/gnu/h-i686-mingw32/bin/../lib/gcc/nios2-elf/4.1.2/../../../../nios2-elf/lib\libc.a(lib_a-memchr.o)
                0x0080b660                memchr
 .text          0x0080b744      0xff4 j:/altera/13.0sp1/nios2eds/bin/gnu/h-i686-mingw32/bin/../lib/gcc/nios2-elf/4.1.2/../../../../nios2-elf/lib\libc.a(lib_a-mprec.o)
                0x0080b744                _Bfree
                0x0080b76c                __hi0bits
                0x0080b7dc                __lo0bits
                0x0080b8a0                __mcmp
                0x0080b900                __ulp
                0x0080b980                __b2d
                0x0080baa0                __ratio
                0x0080bb50                _mprec_log10
                0x0080bbe4                __copybits
                0x0080bc3c                __any_on
                0x0080bcc4                _Balloc
                0x0080bd80                __d2b
                0x0080befc                __mdiff
                0x0080c088                __lshift
                0x0080c1d4                __multiply
                0x0080c3bc                __i2b
                0x0080c3f8                __multadd
                0x0080c4f8                __pow5mult
                0x0080c618                __s2b
 .text          0x0080c738      0x5f4 j:/altera/13.0sp1/nios2eds/bin/gnu/h-i686-mingw32/bin/../lib/gcc/nios2-elf/4.1.2/../../../../nios2-elf/lib\libc.a(lib_a-reallocr.o)
                0x0080c738                _realloc_r
 .text          0x0080cd2c      0x1e0 j:/altera/13.0sp1/nios2eds/bin/gnu/h-i686-mingw32/bin/../lib/gcc/nios2-elf/4.1.2/../../../../nios2-elf/lib\libc.a(lib_a-refill.o)
                0x0080cd2c                __srefill_r
 .text          0x0080cf0c       0x40 j:/altera/13.0sp1/nios2eds/bin/gnu/h-i686-mingw32/bin/../lib/gcc/nios2-elf/4.1.2/../../../../nios2-elf/lib\libc.a(lib_a-s_isinfd.o)
                0x0080cf0c                __isinfd
 .text          0x0080cf4c       0x30 j:/altera/13.0sp1/nios2eds/bin/gnu/h-i686-mingw32/bin/../lib/gcc/nios2-elf/4.1.2/../../../../nios2-elf/lib\libc.a(lib_a-s_isnand.o)
                0x0080cf4c                __isnand
 .text          0x0080cf7c       0x70 j:/altera/13.0sp1/nios2eds/bin/gnu/h-i686-mingw32/bin/../lib/gcc/nios2-elf/4.1.2/../../../../nios2-elf/lib\libc.a(lib_a-sbrkr.o)
                0x0080cf7c                _sbrk_r
 .text          0x0080cfec      0x14c j:/altera/13.0sp1/nios2eds/bin/gnu/h-i686-mingw32/bin/../lib/gcc/nios2-elf/4.1.2/../../../../nios2-elf/lib\libc.a(lib_a-stdio.o)
                0x0080cfec                __sclose
                0x0080cff4                __sseek
                0x0080d05c                __swrite
                0x0080d0d8                __sread
 .text          0x0080d138       0xbc j:/altera/13.0sp1/nios2eds/bin/gnu/h-i686-mingw32/bin/../lib/gcc/nios2-elf/4.1.2/../../../../nios2-elf/lib\libc.a(lib_a-strcmp.o)
                0x0080d138                strcmp
 .text          0x0080d1f4       0x78 j:/altera/13.0sp1/nios2eds/bin/gnu/h-i686-mingw32/bin/../lib/gcc/nios2-elf/4.1.2/../../../../nios2-elf/lib\libc.a(lib_a-writer.o)
                0x0080d1f4                _write_r
 .text          0x0080d26c       0xb4 j:/altera/13.0sp1/nios2eds/bin/gnu/h-i686-mingw32/bin/../lib/gcc/nios2-elf/4.1.2/../../../../nios2-elf/lib\libc.a(lib_a-callocr.o)
                0x0080d26c                _calloc_r
 .text          0x0080d320       0x70 j:/altera/13.0sp1/nios2eds/bin/gnu/h-i686-mingw32/bin/../lib/gcc/nios2-elf/4.1.2/../../../../nios2-elf/lib\libc.a(lib_a-closer.o)
                0x0080d320                _close_r
 .text          0x0080d390      0x124 j:/altera/13.0sp1/nios2eds/bin/gnu/h-i686-mingw32/bin/../lib/gcc/nios2-elf/4.1.2/../../../../nios2-elf/lib\libc.a(lib_a-fclose.o)
                0x0080d390                _fclose_r
                0x0080d4a0                fclose
 .text          0x0080d4b4       0x74 j:/altera/13.0sp1/nios2eds/bin/gnu/h-i686-mingw32/bin/../lib/gcc/nios2-elf/4.1.2/../../../../nios2-elf/lib\libc.a(lib_a-fstatr.o)
                0x0080d4b4                _fstat_r
 .text          0x0080d528        0x0 j:/altera/13.0sp1/nios2eds/bin/gnu/h-i686-mingw32/bin/../lib/gcc/nios2-elf/4.1.2/../../../../nios2-elf/lib\libc.a(lib_a-int_errno.o)
 .text          0x0080d528       0x70 j:/altera/13.0sp1/nios2eds/bin/gnu/h-i686-mingw32/bin/../lib/gcc/nios2-elf/4.1.2/../../../../nios2-elf/lib\libc.a(lib_a-isattyr.o)
                0x0080d528                _isatty_r
 .text          0x0080d598       0x78 j:/altera/13.0sp1/nios2eds/bin/gnu/h-i686-mingw32/bin/../lib/gcc/nios2-elf/4.1.2/../../../../nios2-elf/lib\libc.a(lib_a-lseekr.o)
                0x0080d598                _lseek_r
 .text          0x0080d610       0x78 j:/altera/13.0sp1/nios2eds/bin/gnu/h-i686-mingw32/bin/../lib/gcc/nios2-elf/4.1.2/../../../../nios2-elf/lib\libc.a(lib_a-readr.o)
                0x0080d610                _read_r
 .text          0x0080d688      0x5dc j:/altera/13.0sp1/nios2eds/bin/gnu/h-i686-mingw32/bin/../lib/gcc/nios2-elf/4.1.2\libgcc.a(_udivdi3.o)
                0x0080d688                __udivdi3
 .text          0x0080dc64      0x5b0 j:/altera/13.0sp1/nios2eds/bin/gnu/h-i686-mingw32/bin/../lib/gcc/nios2-elf/4.1.2\libgcc.a(_umoddi3.o)
                0x0080dc64                __umoddi3
 .text          0x0080e214      0x258 j:/altera/13.0sp1/nios2eds/bin/gnu/h-i686-mingw32/bin/../lib/gcc/nios2-elf/4.1.2\libgcc.a(_div_df.o)
                0x0080e214                __divdf3
 .text          0x0080e46c       0x88 j:/altera/13.0sp1/nios2eds/bin/gnu/h-i686-mingw32/bin/../lib/gcc/nios2-elf/4.1.2\libgcc.a(_eq_df.o)
                0x0080e46c                __eqdf2
 .text          0x0080e4f4       0x88 j:/altera/13.0sp1/nios2eds/bin/gnu/h-i686-mingw32/bin/../lib/gcc/nios2-elf/4.1.2\libgcc.a(_ne_df.o)
                0x0080e4f4                __nedf2
 .text          0x0080e57c       0x88 j:/altera/13.0sp1/nios2eds/bin/gnu/h-i686-mingw32/bin/../lib/gcc/nios2-elf/4.1.2\libgcc.a(_gt_df.o)
                0x0080e57c                __gtdf2
 .text          0x0080e604       0x88 j:/altera/13.0sp1/nios2eds/bin/gnu/h-i686-mingw32/bin/../lib/gcc/nios2-elf/4.1.2\libgcc.a(_lt_df.o)
                0x0080e604                __ltdf2
 .text          0x0080e68c       0xf8 j:/altera/13.0sp1/nios2eds/bin/gnu/h-i686-mingw32/bin/../lib/gcc/nios2-elf/4.1.2\libgcc.a(_si_to_df.o)
                0x0080e68c                __floatsidf
 .text          0x0080e784      0x14c j:/altera/13.0sp1/nios2eds/bin/gnu/h-i686-mingw32/bin/../lib/gcc/nios2-elf/4.1.2\libgcc.a(lib2-divmod.o)
                0x0080e800                __divsi3
                0x0080e860                __modsi3
                0x0080e8c0                __udivsi3
                0x0080e8c8                __umodsi3
 .text          0x0080e8d0       0x6c ../simple_socket_bsp/\libucosii_bsp.a(alt_exit.o)
                0x0080e910                _exit
 .text          0x0080e93c       0xd0 ../simple_socket_bsp/\libucosii_bsp.a(alt_flash_dev.o)
                0x0080e93c                alt_flash_open_dev
                0x0080e9b8                alt_flash_close_dev
 .text          0x0080ea0c      0x134 ../simple_socket_bsp/\libucosii_bsp.a(alt_fstat.o)
                0x0080ea0c                fstat
 .text          0x0080eb40      0x1c0 ../simple_socket_bsp/\libucosii_bsp.a(alt_irq_register.o)
                0x0080eb40                alt_irq_register
 .text          0x0080ed00        0x0 ../simple_socket_bsp/\libucosii_bsp.a(alt_irq_vars.o)
 .text          0x0080ed00      0x120 ../simple_socket_bsp/\libucosii_bsp.a(alt_isatty.o)
                0x0080ed00                isatty
 .text          0x0080ee20      0x150 ../simple_socket_bsp/\libucosii_bsp.a(alt_lseek.o)
                0x0080ee20                lseek
 .text          0x0080ef70       0xc8 ../simple_socket_bsp/\libucosii_bsp.a(alt_main.o)
                0x0080ef70                alt_main
 .text          0x0080f038       0xbc ../simple_socket_bsp/\libucosii_bsp.a(alt_sbrk.o)
                0x0080f038                sbrk
 .text          0x0080f0f4      0x118 ../simple_socket_bsp/\libucosii_bsp.a(alt_usleep.o)
                0x0080f0f4                usleep
 .text          0x0080f20c      0x108 ../simple_socket_bsp/\libucosii_bsp.a(alt_env_lock.o)
                0x0080f20c                __env_lock
                0x0080f2b8                __env_unlock
 .text          0x0080f314      0x1d8 ../simple_socket_bsp/\libucosii_bsp.a(alt_malloc_lock.o)
                0x0080f314                __malloc_lock
                0x0080f41c                __malloc_unlock
 .text          0x0080f4ec     0x2128 ../simple_socket_bsp/\libucosii_bsp.a(os_core.o)
                0x0080f4ec                OSEventNameGet
                0x0080f61c                OSEventNameSet
                0x0080f760                OSEventPendMulti
                0x0080fe14                OSInit
                0x0080fe68                OSIntEnter
                0x0080fee4                OSIntExit
                0x0080ffe4                OSSchedLock
                0x00810070                OSSchedUnlock
                0x00810154                OSStart
                0x008101c4                OSStatInit
                0x00810270                OSTimeTick
                0x008104b0                OSVersion
                0x008104d0                OS_Dummy
                0x008104ec                OS_EventTaskRdy
                0x00810680                OS_EventTaskWait
                0x00810790                OS_EventTaskWaitMulti
                0x008108e4                OS_EventTaskRemove
                0x0081099c                OS_EventTaskRemoveMulti
                0x00810aa0                OS_EventWaitListInit
                0x00810e6c                OS_MemClr
                0x00810ec0                OS_MemCopy
                0x00810f2c                OS_Sched
                0x00811070                OS_StrCopy
                0x008110f0                OS_StrLen
                0x00811148                OS_TaskIdle
                0x008111a4                OS_TaskStat
                0x0081126c                OS_TaskStatStkChk
                0x00811334                OS_TCBInit
 .text          0x00811614      0x18c ../simple_socket_bsp/\libucosii_bsp.a(os_dbg.o)
                0x00811614                OSDebugInit
 .text          0x008117a0     0x193c ../simple_socket_bsp/\libucosii_bsp.a(os_flag.o)
                0x008117a0                OSFlagAccept
                0x00811ad4                OSFlagCreate
                0x00811c10                OSFlagDel
                0x00811eb8                OSFlagNameGet
                0x00811ffc                OSFlagNameSet
                0x00812150                OSFlagPend
                0x00812794                OSFlagPendGetFlagsRdy
                0x008127fc                OSFlagPost
                0x00812ba4                OSFlagQuery
                0x00812e3c                OS_FlagInit
                0x00813030                OS_FlagUnlink
 .text          0x008130dc      0x808 ../simple_socket_bsp/\libucosii_bsp.a(os_mem.o)
                0x008130dc                OSMemCreate
                0x008132f8                OSMemGet
                0x008133fc                OSMemNameGet
                0x00813508                OSMemNameSet
                0x00813628                OSMemPut
                0x00813718                OSMemQuery
                0x00813814                OS_MemInit
 .text          0x008138e4     0x1334 ../simple_socket_bsp/\libucosii_bsp.a(os_q.o)
                0x008138e4                OSQAccept
                0x00813a38                OSQCreate
                0x00813c4c                OSQDel
                0x00813f4c                OSQFlush
                0x00814014                OSQPend
                0x00814334                OSQPendAbort
                0x008144b0                OSQPost
                0x00814630                OSQPostFront
                0x008147b8                OSQPostOpt
                0x008149ec                OSQQuery
                0x00814b6c                OS_QInit
 .text          0x00814c18      0xbc8 ../simple_socket_bsp/\libucosii_bsp.a(os_sem.o)
                0x00814c18                OSSemAccept
                0x00814cd8                OSSemCreate
                0x00814dec                OSSemDel
                0x0081508c                OSSemPend
                0x00815308                OSSemPendAbort
                0x00815484                OSSemPost
                0x008155ac                OSSemQuery
                0x008156dc                OSSemSet
 .text          0x008157e0     0x1a40 ../simple_socket_bsp/\libucosii_bsp.a(os_task.o)
                0x008157e0                OSTaskChangePrio
                0x00815d54                OSTaskCreate
                0x00815f28                OSTaskCreateExt
                0x00816128                OSTaskDel
                0x00816534                OSTaskDelReq
                0x008166a4                OSTaskNameGet
                0x0081685c                OSTaskNameSet
                0x00816a20                OSTaskResume
                0x00816c38                OSTaskStkChk
                0x00816e34                OSTaskSuspend
                0x00817060                OSTaskQuery
                0x008171a4                OS_TaskStkClr
 .text          0x00817220      0x670 ../simple_socket_bsp/\libucosii_bsp.a(os_time.o)
                0x00817220                OSTimeDly
                0x0081736c                OSTimeDlyHMSM
                0x008175b8                OSTimeDlyResume
                0x008177c8                OSTimeGet
                0x0081782c                OSTimeSet
 .text          0x00817890      0x118 ../simple_socket_bsp/\libucosii_bsp.a(alt_sys_init.o)
                0x00817890                alt_irq_init
                0x008178c4                alt_sys_init
 .text          0x008179a8      0x8c8 ../simple_socket_bsp/\libucosii_bsp.a(altera_avalon_cfi_flash.o)
                0x008179a8                alt_flash_cfi_init
                0x00817a7c                alt_flash_cfi_write
                0x00817d3c                alt_flash_cfi_get_info
                0x00817dcc                alt_flash_cfi_read
                0x00817e34                alt_write_value_to_flash
                0x00817f98                alt_flash_program_block
 .text          0x00818270     0x14a8 ../simple_socket_bsp/\libucosii_bsp.a(altera_avalon_cfi_flash_table.o)
                0x00818270                alt_read_query_entry_8bit
                0x008182b0                alt_read_query_entry_16bit
                0x008182f4                alt_read_query_entry_32bit
                0x0081833c                alt_write_flash_command_8bit_device_8bit_mode
                0x00818378                alt_write_flash_command_16bit_device_8bit_mode
                0x008183f4                alt_write_flash_command_32bit_device_8bit_mode
                0x0081843c                alt_write_flash_command_16bit_device_16bit_mode
                0x00818480                alt_write_flash_command_32bit_device_16bit_mode
                0x008184c8                alt_write_flash_command_32bit_device_32bit_mode
                0x00818510                alt_write_native_8bit
                0x00818544                alt_write_native_16bit
                0x00818578                alt_write_native_32bit
                0x008185a8                alt_set_flash_width_func
                0x00818788                alt_set_flash_algorithm_func
                0x008188b0                alt_read_cfi_table
                0x00818e90                alt_read_cfi_width
                0x0081963c                alt_check_primary_table
 .text          0x00819718      0x9e4 ../simple_socket_bsp/\libucosii_bsp.a(altera_avalon_epcs_flash_controller.o)
                0x00819718                alt_epcs_flash_init
                0x00819b34                alt_epcs_flash_write
                0x00819db4                alt_epcs_flash_get_info
                0x00819e44                alt_epcs_flash_erase_block
                0x00819f48                alt_epcs_flash_write_block
                0x0081a064                alt_epcs_flash_read
 .text          0x0081a0fc      0x148 ../simple_socket_bsp/\libucosii_bsp.a(altera_avalon_jtag_uart_fd.o)
                0x0081a0fc                altera_avalon_jtag_uart_read_fd
                0x0081a154                altera_avalon_jtag_uart_write_fd
                0x0081a1ac                altera_avalon_jtag_uart_close_fd
                0x0081a1f4                altera_avalon_jtag_uart_ioctl_fd
 .text          0x0081a244      0x584 ../simple_socket_bsp/\libucosii_bsp.a(altera_avalon_jtag_uart_init.o)
                0x0081a244                altera_avalon_jtag_uart_init
                0x0081a754                altera_avalon_jtag_uart_close
 .text          0x0081a7c8       0xf4 ../simple_socket_bsp/\libucosii_bsp.a(altera_avalon_jtag_uart_ioctl.o)
                0x0081a7c8                altera_avalon_jtag_uart_ioctl
 .text          0x0081a8bc      0x2c0 ../simple_socket_bsp/\libucosii_bsp.a(altera_avalon_jtag_uart_read.o)
                0x0081a8bc                altera_avalon_jtag_uart_read
 .text          0x0081ab7c      0x2dc ../simple_socket_bsp/\libucosii_bsp.a(altera_avalon_jtag_uart_write.o)
                0x0081ab7c                altera_avalon_jtag_uart_write
 .text          0x0081ae58      0xf3c ../simple_socket_bsp/\libucosii_bsp.a(altera_avalon_lcd_16207.o)
                0x0081b62c                altera_avalon_lcd_16207_write
                0x0081bc30                altera_avalon_lcd_16207_init
 .text          0x0081bd94       0x58 ../simple_socket_bsp/\libucosii_bsp.a(altera_avalon_lcd_16207_fd.o)
                0x0081bd94                altera_avalon_lcd_16207_write_fd
 .text          0x0081bdec      0x100 ../simple_socket_bsp/\libucosii_bsp.a(altera_avalon_timer_sc.o)
                0x0081be5c                alt_avalon_timer_sc_init
 .text          0x0081beec       0xf8 ../simple_socket_bsp/\libucosii_bsp.a(altera_avalon_uart_fd.o)
                0x0081beec                altera_avalon_uart_read_fd
                0x0081bf44                altera_avalon_uart_write_fd
                0x0081bf9c                altera_avalon_uart_close_fd
 .text          0x0081bfe4      0x57c ../simple_socket_bsp/\libucosii_bsp.a(altera_avalon_uart_init.o)
                0x0081bfe4                altera_avalon_uart_init
                0x0081c500                altera_avalon_uart_close
 .text          0x0081c560      0x310 ../simple_socket_bsp/\libucosii_bsp.a(altera_avalon_uart_read.o)
                0x0081c560                altera_avalon_uart_read
 .text          0x0081c870      0x2a8 ../simple_socket_bsp/\libucosii_bsp.a(altera_avalon_uart_write.o)
                0x0081c870                altera_avalon_uart_write
 .text          0x0081cb18      0x6d4 ../simple_socket_bsp/\libucosii_bsp.a(epcs_commands.o)
                0x0081cb18                epcs_read_status_register
                0x0081cb78                epcs_sector_erase
                0x0081cce0                epcs_read_buffer
                0x0081ce2c                epcs_write_enable
                0x0081ce7c                epcs_write_status_register
                0x0081cee0                epcs_write_buffer
                0x0081d050                epcs_read_electronic_signature
                0x0081d0bc                epcs_read_device_id
                0x0081d13c                epcs_enter_4_bytes_mode
                0x0081d194                epcs_exit_4_bytes_mode
 .text          0x0081d1ec       0x54 ../simple_socket_bsp/\libucosii_bsp.a(alt_iniche_close.o)
                0x0081d1ec                close
 .text          0x0081d240      0x144 ../simple_socket_bsp/\libucosii_bsp.a(alt_iniche_dev.o)
                0x0081d240                iniche_devices_init
 .text          0x0081d384       0x78 ../simple_socket_bsp/\libucosii_bsp.a(alt_iniche_read.o)
                0x0081d384                read
 .text          0x0081d3fc       0x70 ../simple_socket_bsp/\libucosii_bsp.a(alt_iniche_write.o)
                0x0081d3fc                write
 .text          0x0081d46c      0xedc ../simple_socket_bsp/\libucosii_bsp.a(ipnet.o)
                0x0081d46c                Netinit
                0x0081dab8                fixup_subnet_mask
                0x0081dc18                netclose
                0x0081dd00                pktdemux
                0x0081e0d4                c_older
                0x0081e1a4                ip2mac
 .text          0x0081e348      0x4b0 ../simple_socket_bsp/\libucosii_bsp.a(ipstart.o)
                0x0081e348                ip_startup
                0x0081e62c                exit_hook
                0x0081e698                ip_exit
                0x0081e768                if_netnumber
 .text          0x0081e7f8     0x10e8 ../simple_socket_bsp/\libucosii_bsp.a(igmp_cmn.o)
                0x0081e7f8                igmp_init
                0x0081e8e8                igmp_input
                0x0081e9e0                igmp_fasttimo
                0x0081ec14                igmp_send
                0x0081eebc                igmp_joingroup
                0x0081f128                igmp_leavegroup
                0x0081f1a4                igmp_validate
                0x0081f500                igmp_print_stats
 .text          0x0081f8e0      0xbc8 ../simple_socket_bsp/\libucosii_bsp.a(bsdsock.o)
                0x0081f8e0                bsd_accept
                0x0081fa18                bsd_getpeername
                0x0081fb44                bsd_getsockname
                0x0081fc70                bsd_i_sockoptlen
                0x0081fe28                bsd_getsockopt
                0x0081ff48                bsd_ioctl
                0x0082004c                bsd_inet_ntoa
                0x0082007c                bsd_recvfrom
                0x008201dc                bsd_select
                0x008203bc                bsd_setsockopt
 .text          0x008204a8      0x118 ../simple_socket_bsp/\libucosii_bsp.a(cksum.o)
                0x008204a8                ccksum
                0x00820558                cksum
 .text          0x008205c0      0xa9c ../simple_socket_bsp/\libucosii_bsp.a(in_utils.o)
                0x008205c0                do_trap
                0x008205ec                nextarg
                0x00820668                hexdump
                0x008207b0                print_ipad
                0x00820824                print_uptime
                0x00820950                panic
                0x00820994                print_eth
                0x00820af8                uslash
                0x00820b78                ns_printf
                0x00820cfc                std_out
                0x00820d40                con_page
                0x00820e30                parse_args
 .text          0x0082105c      0x1c8 ../simple_socket_bsp/\libucosii_bsp.a(netmain.o)
                0x0082105c                netmain
                0x00821150                tk_netmain
                0x008211d8                tk_nettick
 .text          0x00821224      0x810 ../simple_socket_bsp/\libucosii_bsp.a(parseip.o)
                0x00821224                parse_ipad
                0x00821540                inet_addr
                0x008215a8                hextoa
                0x00821618                inet_pton
                0x008216c4                inet_ntop
                0x00821750                print46_addr
                0x008217b0                inet46_addr
                0x00821874                inet_setport
                0x008218e8                convert_ip
 .text          0x00821a34      0x5e8 ../simple_socket_bsp/\libucosii_bsp.a(tk_crnos.o)
                0x00821a34                TK_OSTimeDly
                0x00821a60                TK_OSTaskResume
                0x00821ad0                tcp_sleep
                0x00821c70                tcp_wakeup
                0x00821d74                TK_OSTaskQuery
                0x00821de8                tk_yield
                0x00821e14                tk_stats
 .text          0x0082201c     0x3294 ../simple_socket_bsp/\libucosii_bsp.a(dhcpclnt.o)
                0x0082201c                dhc_get_srv_ipaddr
                0x008220ac                dhc_init
                0x00822168                dhc_set_callback
                0x008221ac                dhc_upcall
                0x008229dc                dhc_buildheader
                0x00822bf8                dhc_discover
                0x00823110                dhc_rx_offer
                0x00823214                dhc_request
                0x00823d50                dhc_setip
                0x00823fd0                dhc_resetip
                0x008240b4                dhc_decline
                0x00824298                dhc_extract_opts
                0x00824554                dhc_second
                0x00824e44                dhc_halt
                0x00824ecc                dhc_reclaim
                0x0082509c                dhc_state_init
                0x008250fc                dhc_alldone
                0x0082518c                dhc_ifacedone
                0x00825200                dhc_set_state
 .text          0x008252b0       0xcc ../simple_socket_bsp/\libucosii_bsp.a(dhcputil.o)
                0x008252b0                find_opt
 .text          0x0082537c      0x79c ../simple_socket_bsp/\libucosii_bsp.a(pktalloc.o)
                0x0082537c                pk_init
                0x0082560c                pk_alloc
                0x008256e8                pk_validate
                0x008259a0                pk_free
                0x00825a4c                pk_get_max_intrsafe_buf_len
                0x00825a6c                dump_buf_estats
 .text          0x00825b18      0x288 ../simple_socket_bsp/\libucosii_bsp.a(q.o)
                0x00825b18                getq
                0x00825be0                putq
                0x00825c90                qdel
 .text          0x00825da0      0x31c ../simple_socket_bsp/\libucosii_bsp.a(udp_open.o)
                0x00825da0                udp_open
                0x00825fd8                udp_close
 .text          0x008260bc      0x194 ../simple_socket_bsp/\libucosii_bsp.a(asm_cksum.o)
                0x008260bc                asm_cksum
 .text          0x00826250      0x2e4 ../simple_socket_bsp/\libucosii_bsp.a(brdutils.o)
                0x00826250                dtrap
                0x00826280                kbhit
                0x0082632c                getch
                0x0082638c                clock_init
                0x008263c8                clock_c
                0x008263e4                cticks_hook
                0x00826494                irq_Mask
                0x008264f0                irq_Unmask
 .text          0x00826534      0x488 ../simple_socket_bsp/\libucosii_bsp.a(osportco.o)
                0x00826534                LOCK_NET_RESOURCE
                0x008265f4                UNLOCK_NET_RESOURCE
                0x0082667c                TK_NEWTASK
                0x00826890                wait_app_sem
                0x00826944                post_app_sem
 .text          0x008269bc      0x568 ../simple_socket_bsp/\libucosii_bsp.a(targnios.o)
                0x008269bc                alt_iniche_init
                0x00826bd8                pre_task_setup
                0x00826c4c                post_task_setup
                0x00826c6c                prep_armintcp
                0x00826ca4                calloc2
                0x00826cd8                npalloc
                0x00826dcc                npfree
                0x00826e84                ncpalloc
                0x00826ed8                ncpfree
 .text          0x00826f24     0x19b8 ../simple_socket_bsp/\libucosii_bsp.a(nptcp.o)
                0x00826f24                pffindtype
                0x00826fc4                pffindproto
                0x00827094                m_getnbuf
                0x0082723c                m_free
                0x00827370                m_freem
                0x008273b4                m_copy
                0x008276d8                m_adj
                0x008278a8                mbuf_len
                0x00827900                dtom
                0x008279a8                remque
                0x00827a18                insque
                0x00827a94                nptcp_init
                0x00827bb8                tcp_rcv
                0x00827da4                ip_output
                0x0082839c                in_broadcast
                0x008283dc                np_stripoptions
                0x008284c4                so_icmpdu
                0x0082881c                tcp_tick
 .text          0x008288dc      0xa2c ../simple_socket_bsp/\libucosii_bsp.a(rawsock.o)
                0x008288dc                rawip_lookup
                0x0082894c                rawip_soinput
                0x00828b20                rawip_usrreq
 .text          0x00829308     0x17fc ../simple_socket_bsp/\libucosii_bsp.a(sockcall.o)
                0x00829308                DOMAIN_CHECK
                0x00829354                t_socket
                0x008293e4                t_bind
                0x00829560                t_listen
                0x00829644                t_accept
                0x008298dc                t_connect
                0x00829b84                t_getpeername
                0x00829bc8                t_getsockname
                0x00829e08                t_setsockopt
                0x00829fe4                t_getsockopt
                0x0082a188                t_recv
                0x0082a278                t_recvfrom
                0x0082a3c8                t_sendto
                0x0082a5f4                t_send
                0x0082a81c                t_shutdown
                0x0082a900                t_socketclose
                0x0082aa68                t_errno
 .text          0x0082ab04     0x23ec ../simple_socket_bsp/\libucosii_bsp.a(socket.o)
                0x0082ab04                socreate
                0x0082acd0                sobind
                0x0082ad2c                solisten
                0x0082ae1c                sofree
                0x0082af4c                soclose
                0x0082b2b8                soabort
                0x0082b308                soaccept
                0x0082b3a4                soconnect
                0x0082b478                sodisconnect
                0x0082b518                sosend
                0x0082bb20                soreceive
                0x0082c304                soshutdown
                0x0082c3ac                sorflush
                0x0082c4ac                sosetopt
                0x0082c96c                sogetopt
                0x0082ceac                sohasoutofband
 .text          0x0082cef0     0x1318 ../simple_socket_bsp/\libucosii_bsp.a(socket2.o)
                0x0082cef0                soisconnecting
                0x0082cf5c                soisconnected
                0x0082d058                soisdisconnecting
                0x0082d0e4                soisdisconnected
                0x0082d1a0                sonewconn
                0x0082d3bc                soqinsque
                0x0082d468                soqremque
                0x0082d588                socantsendmore
                0x0082d5d8                socantrcvmore
                0x0082d628                sbselqueue
                0x0082d660                sbwait
                0x0082d6c8                sbwakeup
                0x0082d764                soreserve
                0x0082d7e4                sbreserve
                0x0082d844                sbrelease
                0x0082d88c                sbappend
                0x0082d934                sbappendrecord
                0x0082da14                sbappendaddr
                0x0082dc1c                sbcompress
                0x0082de04                sbflush
                0x0082de94                sbdrop
                0x0082e064                sbdropend
                0x0082e174                sbdroprecord
 .text          0x0082e208      0x914 ../simple_socket_bsp/\libucosii_bsp.a(soselect.o)
                0x0082e208                t_select
                0x0082e428                sock_selscan
                0x0082e580                sock_select
                0x0082e794                in_pcbnotify
                0x0082e860                tcp_notify
                0x0082e8c8                ifd_clr
                0x0082e9b8                ifd_set
                0x0082ea2c                ifd_isset
                0x0082eaac                ifd_get
 .text          0x0082eb1c     0x3020 ../simple_socket_bsp/\libucosii_bsp.a(tcp_in.o)
                0x0082eb1c                tcp_reass
                0x0082ef24                tcp_input
                0x00831478                tcp_dooptions
                0x00831608                tcp_pulloutofband
                0x00831734                tcp_xmit_timer
                0x008319d8                ip4_tcpmss
                0x00831a20                tcp_mss
 .text          0x00831b3c     0x1360 ../simple_socket_bsp/\libucosii_bsp.a(tcp_out.o)
                0x00831b3c                tcp_output
                0x00832cb8                tcp_setpersist
 .text          0x00832e9c      0x9e8 ../simple_socket_bsp/\libucosii_bsp.a(tcp_subr.o)
                0x00832e9c                tcp_init
                0x00832ef4                tcp_template
                0x0083300c                tcp_respond
                0x00833494                tcp_newtcpcb
                0x008335ac                tcp_drop
                0x00833658                tcp_close
                0x00833740                tcp_quench
                0x0083378c                tcp_putseq
                0x0083380c                tcp_getseq
 .text          0x00833884      0x798 ../simple_socket_bsp/\libucosii_bsp.a(tcp_timr.o)
                0x00833884                tcp_slowtimo
                0x00833b24                tcp_canceltimers
                0x00833b80                tcp_timers
 .text          0x0083401c      0x9ec ../simple_socket_bsp/\libucosii_bsp.a(tcp_usr.o)
                0x0083401c                tcp_usrreq
                0x00834720                tcp_attach
                0x00834854                tcp_disconnect
                0x00834928                tcp_usrclosed
 .text          0x00834a08       0x4c ../simple_socket_bsp/\libucosii_bsp.a(tcpport.o)
                0x00834a08                tcpinit
 .text          0x00834a54      0xd20 ../simple_socket_bsp/\libucosii_bsp.a(udpsock.o)
                0x00834a54                udp_lookup
                0x00834ac4                udp_soinput
                0x00834c7c                udp_usrreq
                0x00834f00                udp4_sockbind
                0x0083523c                udp4_socksend
                0x00835618                udp4_sockaddr
 .text          0x00835774      0x154 ../simple_socket_bsp/\libucosii_bsp.a(alt_alarm_start.o)
                0x00835774                alt_alarm_start
 .text          0x008358c8      0x14c ../simple_socket_bsp/\libucosii_bsp.a(alt_busy_sleep.o)
                0x008358c8                alt_busy_sleep
 .text          0x00835a14      0x15c ../simple_socket_bsp/\libucosii_bsp.a(alt_close.o)
                0x00835a14                alt_close
 .text          0x00835b70       0x78 ../simple_socket_bsp/\libucosii_bsp.a(alt_dcache_flush.o)
                0x00835b70                alt_dcache_flush
 .text          0x00835be8       0x2c ../simple_socket_bsp/\libucosii_bsp.a(alt_dev.o)
 .text          0x00835c14      0x114 ../simple_socket_bsp/\libucosii_bsp.a(alt_dev_llist_insert.o)
                0x00835c14                alt_dev_llist_insert
 .text          0x00835d28       0x64 ../simple_socket_bsp/\libucosii_bsp.a(alt_do_ctors.o)
                0x00835d28                _do_ctors
 .text          0x00835d8c       0x64 ../simple_socket_bsp/\libucosii_bsp.a(alt_do_dtors.o)
                0x00835d8c                _do_dtors
 .text          0x00835df0        0x0 ../simple_socket_bsp/\libucosii_bsp.a(alt_errno.o)
 .text          0x00835df0       0x94 ../simple_socket_bsp/\libucosii_bsp.a(alt_find_dev.o)
                0x00835df0                alt_find_dev
 .text          0x00835e84      0x1d4 ../simple_socket_bsp/\libucosii_bsp.a(alt_iic.o)
                0x00835e84                alt_ic_isr_register
                0x00835ed4                alt_ic_irq_enable
                0x00835f70                alt_ic_irq_disable
                0x00836010                alt_ic_irq_enabled
 .text          0x00836058       0xf8 ../simple_socket_bsp/\libucosii_bsp.a(alt_iic_isr_register.o)
                0x00836058                alt_iic_isr_register
 .text          0x00836150      0x13c ../simple_socket_bsp/\libucosii_bsp.a(alt_io_redirect.o)
                0x00836214                alt_io_redirect
 .text          0x0083628c        0x0 ../simple_socket_bsp/\libucosii_bsp.a(alt_irq_entry.o)
 .text          0x0083628c        0x0 ../simple_socket_bsp/\libucosii_bsp.a(alt_irq_handler.o)
 .text          0x0083628c      0x2c4 ../simple_socket_bsp/\libucosii_bsp.a(alt_open.o)
                0x00836368                open
 .text          0x00836550      0x180 ../simple_socket_bsp/\libucosii_bsp.a(alt_read.o)
                0x00836550                alt_read
 .text          0x008366d0       0x60 ../simple_socket_bsp/\libucosii_bsp.a(alt_release_fd.o)
                0x008366d0                alt_release_fd
 .text          0x00836730       0x38 ../simple_socket_bsp/\libucosii_bsp.a(alt_remap_cached.o)
                0x00836730                alt_remap_cached
 .text          0x00836768       0x40 ../simple_socket_bsp/\libucosii_bsp.a(alt_remap_uncached.o)
                0x00836768                alt_remap_uncached
 .text          0x008367a8      0x1a8 ../simple_socket_bsp/\libucosii_bsp.a(alt_tick.o)
                0x008367a8                alt_alarm_stop
                0x00836840                alt_tick
 .text          0x00836950      0x180 ../simple_socket_bsp/\libucosii_bsp.a(alt_write.o)
                0x00836950                alt_write
 .text          0x00836ad0       0x20 ../simple_socket_bsp/\libucosii_bsp.a(altera_nios2_qsys_irq.o)
                0x00836ad0                altera_nios2_qsys_irq_init
 .text          0x00836af0       0xd0 ../simple_socket_bsp/\libucosii_bsp.a(os_cpu_a.o)
                0x00836af0                OSCtxSw
                0x00836af0                OSIntCtxSw
                0x00836b7c                OSStartHighRdy
                0x00836b9c                OSStartTsk
 .text          0x00836bc0      0x424 ../simple_socket_bsp/\libucosii_bsp.a(os_cpu_c.o)
                0x00836bc0                OSTaskStkInit
                0x00836ed0                OSTaskCreateHook
                0x00836ef0                OSTaskDelHook
                0x00836f10                OSTaskSwHook
                0x00836f2c                OSTaskStatHook
                0x00836f48                OSTimeTickHook
                0x00836f70                OSInitHookBegin
                0x00836f8c                OSInitHookEnd
                0x00836fa8                OSTaskIdleHook
                0x00836fc4                OSTCBInitHook
 .text          0x00836fe4      0x460 ../simple_socket_bsp/\libucosii_bsp.a(altera_avalon_cfi_flash_amd.o)
                0x00836fe4                alt_program_amd
                0x0083704c                alt_erase_block_amd
 .text          0x00837444      0x460 ../simple_socket_bsp/\libucosii_bsp.a(altera_avalon_cfi_flash_intel.o)
                0x00837444                alt_program_intel
                0x008374c8                alt_erase_block_intel
 .text          0x008378a4      0x238 ../simple_socket_bsp/\libucosii_bsp.a(altera_avalon_spi.o)
                0x008378a4                alt_avalon_spi_command
 .text          0x00837adc      0x444 ../simple_socket_bsp/\libucosii_bsp.a(allports.o)
                0x00837adc                netmain_init
                0x00837bd8                icmp_port_du
                0x00837c60                station_state
                0x00837dc4                sysuptime
                0x00837e58                packet_check
                0x00837ea4                mcastlist
                0x00837ec8                prep_modules
 .text          0x00837f20      0x580 ../simple_socket_bsp/\libucosii_bsp.a(timeouts.o)
                0x00837f20                inet_timer
                0x00838220                in_timerset
                0x008383f8                in_timerkill
 .text          0x008384a0       0xa4 ../simple_socket_bsp/\libucosii_bsp.a(tk_misc.o)
                0x008384a0                create_apptasks
                0x008384c4                task_stats
 .text          0x00838544       0xb0 ../simple_socket_bsp/\libucosii_bsp.a(alt_iniche_fcntl.o)
                0x00838544                fcntl
 .text          0x008385f4     0x15b0 ../simple_socket_bsp/\libucosii_bsp.a(et_arp.o)
                0x008385f4                etainit
                0x00838648                et_send
                0x008387c4                arp_free_pending
                0x0083884c                arp_send_pending
                0x008388c0                send_arp
                0x00838d58                find_oldest_arp
                0x00838f54                make_arp_entry
                0x00839068                arpReply
                0x008392fc                arprcv
                0x0083955c                send_via_arp
                0x0083972c                cb_arpent_tmo
                0x008398d8                grat_arp
 .text          0x00839ba4      0x298 ../simple_socket_bsp/\libucosii_bsp.a(iface.o)
                0x00839ba4                if_getbynum
                0x00839c28                isbcast
                0x00839d08                reg_type
                0x00839da4                if_killsocks
 .text          0x00839e3c     0x22a4 ../simple_socket_bsp/\libucosii_bsp.a(ip.o)
                0x00839e3c                ip_init
                0x00839f38                ip_bldhead
                0x0083a0dc                ip_write_internal
                0x0083a85c                ip_write
                0x0083aaa4                ip_write2
                0x0083ae54                ip_raw_write
                0x0083af2c                ip_fragment_lc
                0x0083b3b4                ip_fragment
                0x0083b9d8                ip_mymach
                0x0083ba84                ip_dump
                0x0083bd3c                iproute
                0x0083bfa8                ip_copypkt
 .text          0x0083c0e0     0x1e08 ../simple_socket_bsp/\libucosii_bsp.a(ip_reasm.o)
                0x0083c0e0                ip_reasm_match_frag_with_ire
                0x0083c1b0                ip_reasm_determine_type_of_frag
                0x0083c29c                ip_reasm_check_mem_useage
                0x0083c334                ip_reasm_incr_mem_useage
                0x0083c3dc                ip_reasm_decr_mem_useage
                0x0083c47c                ip_reasm_process_first_fragment
                0x0083c75c                ip_reassm
                0x0083c7fc                ip_reasm_compute_overlap
                0x0083cd8c                ip_reasm_process_subsequent_fragments
                0x0083d320                ip_reasm_find_ire
                0x0083d384                ip_reasm_copy_queued_fragments_into_reassy_buffer
                0x0083d6e0                ip_reasm_process_timer_tick
                0x0083d800                ip_reasm_delete_ire
                0x0083d9c8                ip_reasm_mark_compact_rfq
                0x0083db10                ipr_stats
                0x0083de94                ip_reasm_send_icmp_timex
 .text          0x0083dee8      0xe3c ../simple_socket_bsp/\libucosii_bsp.a(ipdemux.o)
                0x0083dee8                ip_rcv
                0x0083e2e8                ip_rcv_phase2
                0x0083e8f4                ip_demux
 .text          0x0083ed24      0x2f0 ../simple_socket_bsp/\libucosii_bsp.a(ipmc.o)
                0x0083ed24                in_addmulti
                0x0083ee8c                in_delmulti
                0x0083efa4                lookup_mcast
 .text          0x0083f014       0xe4 ../simple_socket_bsp/\libucosii_bsp.a(ipport.o)
                0x0083f014                prep_ifaces
                0x0083f0a8                netexit
                0x0083f0d0                evtmap_setup
 .text          0x0083f0f8      0x550 ../simple_socket_bsp/\libucosii_bsp.a(ipraw.o)
                0x0083f0f8                ip_raw_open
                0x0083f1e8                ip_raw_close
                0x0083f2a8                ip_raw_input
                0x0083f4e0                ip_raw_alloc
                0x0083f5ac                ip_raw_free
                0x0083f5ec                ip_raw_maxalloc
 .text          0x0083f648      0x6f0 ../simple_socket_bsp/\libucosii_bsp.a(iproute.o)
                0x0083f648                rt_lookup
                0x0083f7cc                add_route
                0x0083fbf4                del_route
 .text          0x0083fd38      0xe3c ../simple_socket_bsp/\libucosii_bsp.a(udp.o)
                0x0083fd38                udpdemux
                0x00840590                udp_send
                0x00840848                udpswap
                0x00840978                udp_socket
                0x00840a48                udp_alloc
                0x00840b08                udp_maxalloc
                0x00840b34                udp_free
 .text          0x00840b74      0x2e8 ../simple_socket_bsp/\libucosii_bsp.a(igmp.o)
                0x00840b74                igmpv1_input
 .text          0x00840e5c      0x7c0 ../simple_socket_bsp/\libucosii_bsp.a(igmp2.o)
                0x00840e5c                igmpv2_input
                0x00840fbc                igmpv2_process_report
                0x00841108                igmpv2_process_query
                0x00841354                igmpv2_chk_set_timer
                0x008414ac                igmpv2_chk4_rtr_alert_opt
 .text          0x0084161c      0x8fc ../simple_socket_bsp/\libucosii_bsp.a(ipopt.o)
                0x0084161c                IPADDR_TO_NETP
                0x00841764                ip_setmoptions
                0x00841d54                ip_getmoptions
                0x00841e94                ip_freemoptions
 .text          0x00841f18      0x6e8 ../simple_socket_bsp/\libucosii_bsp.a(u_mctest.o)
                0x00841f18                u_mctest_init
                0x00841f48                u_mctest_run
 .text          0x00842600      0x3d0 ../simple_socket_bsp/\libucosii_bsp.a(dhcsetup.o)
                0x00842600                dhc_setup
                0x008428cc                dhc_main_ipset
 .text          0x008429d0      0x40c ../simple_socket_bsp/\libucosii_bsp.a(memdev.o)
                0x008429d0                init_memdev
                0x00842a48                md_fopen
                0x00842a70                md_fclose
                0x00842a90                md_fread
                0x00842c10                md_fwrite
                0x00842c90                md_fseek
                0x00842cbc                md_ftell
                0x00842ce0                md_fgetc
                0x00842db8                md_unlink
 .text          0x00842ddc      0x1cc ../simple_socket_bsp/\libucosii_bsp.a(tcpcksum.o)
                0x00842ddc                tcp_cksum
 .text          0x00842fa8      0x900 ../simple_socket_bsp/\libucosii_bsp.a(in_pcb.o)
                0x00842fa8                in_pcballoc
                0x0084303c                in_pcbdetach
                0x00843090                in_pcbbind
                0x008432e4                in_pcbconnect
                0x008434f4                in_pcbdisconnect
                0x00843554                in_setsockaddr
                0x008435d0                in_setpeeraddr
                0x0084364c                in_pcblookup
 .text          0x008438a8     0x1a74 ../simple_socket_bsp/\libucosii_bsp.a(vfsfiles.o)
                0x008438a8                set_vfopen_error
                0x008438d0                get_vfopen_error
                0x008438f0                vf_alloc_and_link_vop
                0x0084396c                vf_alloc_buffer
                0x00843a44                vf_free_buffer
                0x00843a94                vfopen_locked
                0x00843dfc                vfopen
                0x00843e4c                vfclose_locked
                0x00843ff4                vfclose
                0x00844034                vfflush
                0x0084407c                vfgets
                0x00844160                vfeof
                0x008441b8                vunlink_flag_open_files
                0x00844214                vunlink
                0x00844434                vfread
                0x008445e0                vfwrite_locked
                0x008449c8                vfwrite
                0x00844a28                vfseek
                0x00844ba4                vftell
                0x00844cd8                vgetc_locked
                0x00844df8                vgetc
                0x00844e40                vfslookup_locked
                0x00844f78                vfslookup
                0x00844fc0                strippath
                0x008451a8                isvfile_locked
                0x0084520c                isvfile
                0x00845254                vferror
                0x008452c0                vclearerr
 .text          0x0084531c       0x24 ../simple_socket_bsp/\libucosii_bsp.a(vfsport.o)
                0x0084531c                prep_vfs
 .text          0x00845340        0x0 ../simple_socket_bsp/\libucosii_bsp.a(alt_exception_entry.o)
 .text          0x00845340      0x1b4 ../simple_socket_bsp/\libucosii_bsp.a(alt_fcntl.o)
                0x00845340                alt_fcntl
 .text          0x008454f4      0x120 ../simple_socket_bsp/\libucosii_bsp.a(alt_find_file.o)
                0x008454f4                alt_find_file
 .text          0x00845614       0xf4 ../simple_socket_bsp/\libucosii_bsp.a(alt_get_fd.o)
                0x00845614                alt_get_fd
 .text          0x00845708     0x130c ../simple_socket_bsp/\libucosii_bsp.a(icmp.o)
                0x00845708                icmprcv
                0x0084633c                icmp_destun
                0x0084668c                icmp_timex
                0x008469c0                icmp_du
 .text          0x00846a14       0x14 j:/altera/13.0sp1/nios2eds/bin/gnu/h-i686-mingw32/bin/../lib/gcc/nios2-elf/4.1.2/../../../../nios2-elf/lib\libc.a(lib_a-atexit.o)
                0x00846a14                atexit
 .text          0x00846a28       0x18 j:/altera/13.0sp1/nios2eds/bin/gnu/h-i686-mingw32/bin/../lib/gcc/nios2-elf/4.1.2/../../../../nios2-elf/lib\libc.a(lib_a-atoi.o)
                0x00846a28                _atoi_r
                0x00846a34                atoi
 .text          0x00846a40       0x1c j:/altera/13.0sp1/nios2eds/bin/gnu/h-i686-mingw32/bin/../lib/gcc/nios2-elf/4.1.2/../../../../nios2-elf/lib\libc.a(lib_a-calloc.o)
                0x00846a40                calloc
 .text          0x00846a5c       0x28 j:/altera/13.0sp1/nios2eds/bin/gnu/h-i686-mingw32/bin/../lib/gcc/nios2-elf/4.1.2/../../../../nios2-elf/lib\libc.a(lib_a-malloc.o)
                0x00846a5c                free
                0x00846a70                malloc
 .text          0x00846a84       0x74 j:/altera/13.0sp1/nios2eds/bin/gnu/h-i686-mingw32/bin/../lib/gcc/nios2-elf/4.1.2/../../../../nios2-elf/lib\libc.a(lib_a-memcmp.o)
                0x00846a84                memcmp
 .text          0x00846af8       0xd4 j:/altera/13.0sp1/nios2eds/bin/gnu/h-i686-mingw32/bin/../lib/gcc/nios2-elf/4.1.2/../../../../nios2-elf/lib\libc.a(lib_a-sprintf.o)
                0x00846af8                sprintf
                0x00846b6c                _sprintf_r
 .text          0x00846bcc       0x8c j:/altera/13.0sp1/nios2eds/bin/gnu/h-i686-mingw32/bin/../lib/gcc/nios2-elf/4.1.2/../../../../nios2-elf/lib\libc.a(lib_a-strcpy.o)
                0x00846bcc                strcpy
 .text          0x00846c58       0xf0 j:/altera/13.0sp1/nios2eds/bin/gnu/h-i686-mingw32/bin/../lib/gcc/nios2-elf/4.1.2/../../../../nios2-elf/lib\libc.a(lib_a-strncmp.o)
                0x00846c58                strncmp
 .text          0x00846d48       0xbc j:/altera/13.0sp1/nios2eds/bin/gnu/h-i686-mingw32/bin/../lib/gcc/nios2-elf/4.1.2/../../../../nios2-elf/lib\libc.a(lib_a-strncpy.o)
                0x00846d48                strncpy
 .text          0x00846e04      0x268 j:/altera/13.0sp1/nios2eds/bin/gnu/h-i686-mingw32/bin/../lib/gcc/nios2-elf/4.1.2/../../../../nios2-elf/lib\libc.a(lib_a-strtol.o)
                0x00846e04                _strtol_r
                0x00847048                strtol
 .text          0x0084706c       0x34 j:/altera/13.0sp1/nios2eds/bin/gnu/h-i686-mingw32/bin/../lib/gcc/nios2-elf/4.1.2/../../../../nios2-elf/lib\libc.a(lib_a-vprintf.o)
                0x0084706c                _vprintf_r
                0x00847080                vprintf
 .text          0x008470a0       0x74 j:/altera/13.0sp1/nios2eds/bin/gnu/h-i686-mingw32/bin/../lib/gcc/nios2-elf/4.1.2/../../../../nios2-elf/lib\libc.a(lib_a-vsprintf.o)
                0x008470a0                _vsprintf_r
                0x008470f0                vsprintf
 .text          0x00847114      0x134 j:/altera/13.0sp1/nios2eds/bin/gnu/h-i686-mingw32/bin/../lib/gcc/nios2-elf/4.1.2/../../../../nios2-elf/lib\libc.a(lib_a-__atexit.o)
                0x00847114                __register_exitproc
 *(.gnu.warning.*)
 *(.fini)
                0x00847248                PROVIDE (__etext, ABSOLUTE (.))
                0x00847248                PROVIDE (_etext, ABSOLUTE (.))
                0x00847248                PROVIDE (etext, ABSOLUTE (.))
 *(.eh_frame_hdr)
                0x00847248                . = ALIGN (0x4)
                0x00847248                PROVIDE (__preinit_array_start, ABSOLUTE (.))
 *(.preinit_array)
                0x00847248                PROVIDE (__preinit_array_end, ABSOLUTE (.))
                0x00847248                PROVIDE (__init_array_start, ABSOLUTE (.))
 *(.init_array)
                0x00847248                PROVIDE (__init_array_end, ABSOLUTE (.))
                0x00847248                PROVIDE (__fini_array_start, ABSOLUTE (.))
 *(.fini_array)
                0x00847248                PROVIDE (__fini_array_end, ABSOLUTE (.))
 *(.eh_frame)
 *(.gcc_except_table)
 *(.dynamic)
                0x00847248                PROVIDE (__CTOR_LIST__, ABSOLUTE (.))
 *(.ctors)
 *(SORT(.ctors.*))
 .ctors.65535   0x00847248        0x4 j:/altera/13.0sp1/nios2eds/bin/gnu/h-i686-mingw32/bin/../lib/gcc/nios2-elf/4.1.2/../../../../nios2-elf/lib\libc.a(lib_a-__call_atexit.o)
                0x0084724c                PROVIDE (__CTOR_END__, ABSOLUTE (.))
                0x0084724c                PROVIDE (__DTOR_LIST__, ABSOLUTE (.))
 *(.dtors)
 *(SORT(.dtors.*))
                0x0084724c                PROVIDE (__DTOR_END__, ABSOLUTE (.))
 *(.jcr)
                0x0084724c                . = ALIGN (0x4)

.rodata         0x0084724c     0x4290
                0x0084724c                PROVIDE (__ram_rodata_start, ABSOLUTE (.))
                0x0084724c                . = ALIGN (0x4)
 *(.rodata .rodata.* .gnu.linkonce.r.*)
 .rodata        0x0084724c       0x60 obj/default/LCD.o
 .rodata        0x008472ac       0xa8 obj/default/SSS_DE2_115.o
 .rodata        0x00847354      0xba4 obj/default/alt_error_handler.o
 .rodata        0x00847ef8       0x64 obj/default/dm9000a.o
 .rodata        0x00847f5c      0x174 obj/default/iniche_init.o
 .rodata        0x008480d0      0x234 obj/default/network_utilities.o
 .rodata        0x00848304      0x2e0 obj/default/simple_socket_server.o
 .rodata        0x008485e4       0x14 j:/altera/13.0sp1/nios2eds/bin/gnu/h-i686-mingw32/bin/../lib/gcc/nios2-elf/4.1.2\libgcc.a(_thenan_df.o)
                0x008485e4                __thenan_df
 .rodata        0x008485f8      0x100 j:/altera/13.0sp1/nios2eds/bin/gnu/h-i686-mingw32/bin/../lib/gcc/nios2-elf/4.1.2\libgcc.a(_clz.o)
                0x008485f8                __clz_tab
 .rodata        0x008486f8      0x281 j:/altera/13.0sp1/nios2eds/bin/gnu/h-i686-mingw32/bin/../lib/gcc/nios2-elf/4.1.2/../../../../nios2-elf/lib\libc.a(lib_a-ctype_.o)
                0x008486f8                _ctype_
 *fill*         0x00848979        0x3 00
 .rodata.str1.4
                0x0084897c        0x2 j:/altera/13.0sp1/nios2eds/bin/gnu/h-i686-mingw32/bin/../lib/gcc/nios2-elf/4.1.2/../../../../nios2-elf/lib\libc.a(lib_a-impure.o)
                                  0x4 (size before relaxing)
 *fill*         0x0084897e        0x2 00
 .rodata.str1.4
                0x00848980        0x3 j:/altera/13.0sp1/nios2eds/bin/gnu/h-i686-mingw32/bin/../lib/gcc/nios2-elf/4.1.2/../../../../nios2-elf/lib\libc.a(lib_a-perror.o)
                                  0x4 (size before relaxing)
 *fill*         0x00848983        0x1 00
 .rodata.str1.4
                0x00848984        0x2 j:/altera/13.0sp1/nios2eds/bin/gnu/h-i686-mingw32/bin/../lib/gcc/nios2-elf/4.1.2/../../../../nios2-elf/lib\libc.a(lib_a-puts.o)
                                  0x4 (size before relaxing)
 *fill*         0x00848986        0x2 00
 .rodata.str1.4
                0x00848988      0x7a2 j:/altera/13.0sp1/nios2eds/bin/gnu/h-i686-mingw32/bin/../lib/gcc/nios2-elf/4.1.2/../../../../nios2-elf/lib\libc.a(lib_a-strerror.o)
                                0x7a8 (size before relaxing)
 *fill*         0x0084912a        0x2 00
 .rodata.str1.4
                0x0084912c       0x5e j:/altera/13.0sp1/nios2eds/bin/gnu/h-i686-mingw32/bin/../lib/gcc/nios2-elf/4.1.2/../../../../nios2-elf/lib\libc.a(lib_a-vfprintf.o)
                                 0x60 (size before relaxing)
 .rodata        0x0084918a       0x20 j:/altera/13.0sp1/nios2eds/bin/gnu/h-i686-mingw32/bin/../lib/gcc/nios2-elf/4.1.2/../../../../nios2-elf/lib\libc.a(lib_a-vfprintf.o)
 *fill*         0x008491aa        0x2 00
 .rodata.str1.4
                0x008491ac       0x10 j:/altera/13.0sp1/nios2eds/bin/gnu/h-i686-mingw32/bin/../lib/gcc/nios2-elf/4.1.2/../../../../nios2-elf/lib\libc.a(lib_a-dtoa.o)
                                 0x14 (size before relaxing)
 .rodata.str1.4
                0x008491bc       0x10 j:/altera/13.0sp1/nios2eds/bin/gnu/h-i686-mingw32/bin/../lib/gcc/nios2-elf/4.1.2/../../../../nios2-elf/lib\libc.a(lib_a-locale.o)
                                 0x18 (size before relaxing)
 .rodata        0x008491cc       0x30 j:/altera/13.0sp1/nios2eds/bin/gnu/h-i686-mingw32/bin/../lib/gcc/nios2-elf/4.1.2/../../../../nios2-elf/lib\libc.a(lib_a-locale.o)
 .rodata        0x008491fc      0x124 j:/altera/13.0sp1/nios2eds/bin/gnu/h-i686-mingw32/bin/../lib/gcc/nios2-elf/4.1.2/../../../../nios2-elf/lib\libc.a(lib_a-mprec.o)
                0x008491fc                __mprec_tens
                0x008492c4                __mprec_bigtens
                0x008492ec                __mprec_tinytens
 .rodata        0x00849320       0x14 ../simple_socket_bsp/\libucosii_bsp.a(alt_main.o)
 .rodata        0x00849334      0x120 ../simple_socket_bsp/\libucosii_bsp.a(os_core.o)
                0x00849334                OSUnMapTbl
 .rodata        0x00849454       0x60 ../simple_socket_bsp/\libucosii_bsp.a(alt_sys_init.o)
 .rodata        0x008494b4       0xd8 ../simple_socket_bsp/\libucosii_bsp.a(ipnet.o)
 .rodata        0x0084958c       0xec ../simple_socket_bsp/\libucosii_bsp.a(ipstart.o)
 .rodata        0x00849678      0x54c ../simple_socket_bsp/\libucosii_bsp.a(igmp_cmn.o)
 .rodata        0x00849bc4       0xb8 ../simple_socket_bsp/\libucosii_bsp.a(in_utils.o)
 .rodata        0x00849c7c       0x34 ../simple_socket_bsp/\libucosii_bsp.a(netmain.o)
 .rodata        0x00849cb0       0x94 ../simple_socket_bsp/\libucosii_bsp.a(parseip.o)
 .rodata        0x00849d44      0x1a8 ../simple_socket_bsp/\libucosii_bsp.a(tk_crnos.o)
 .rodata        0x00849eec        0x8 ../simple_socket_bsp/\libucosii_bsp.a(dhcpclnt.o)
 .rodata        0x00849ef4      0x118 ../simple_socket_bsp/\libucosii_bsp.a(pktalloc.o)
 .rodata        0x0084a00c       0x84 ../simple_socket_bsp/\libucosii_bsp.a(udp_open.o)
 .rodata        0x0084a090       0x2c ../simple_socket_bsp/\libucosii_bsp.a(brdutils.o)
 .rodata        0x0084a0bc      0x26c ../simple_socket_bsp/\libucosii_bsp.a(osportco.o)
 .rodata        0x0084a328       0xa0 ../simple_socket_bsp/\libucosii_bsp.a(targnios.o)
 .rodata        0x0084a3c8       0x90 ../simple_socket_bsp/\libucosii_bsp.a(nptcp.o)
 .rodata        0x0084a458        0x8 ../simple_socket_bsp/\libucosii_bsp.a(sockcall.o)
 .rodata        0x0084a460       0x50 ../simple_socket_bsp/\libucosii_bsp.a(socket.o)
 .rodata        0x0084a4b0       0x40 ../simple_socket_bsp/\libucosii_bsp.a(socket2.o)
 .rodata        0x0084a4f0       0x20 ../simple_socket_bsp/\libucosii_bsp.a(tcp_in.o)
 .rodata        0x0084a510       0x40 ../simple_socket_bsp/\libucosii_bsp.a(tcp_out.o)
 .rodata        0x0084a550       0x24 ../simple_socket_bsp/\libucosii_bsp.a(tcp_subr.o)
 .rodata        0x0084a574       0x2c ../simple_socket_bsp/\libucosii_bsp.a(tcp_usr.o)
 .rodata        0x0084a5a0        0xc ../simple_socket_bsp/\libucosii_bsp.a(alt_dev.o)
 .rodata        0x0084a5ac        0x4 ../simple_socket_bsp/\libucosii_bsp.a(os_cpu_c.o)
 .rodata        0x0084a5b0      0x1d4 ../simple_socket_bsp/\libucosii_bsp.a(allports.o)
 .rodata        0x0084a784       0x34 ../simple_socket_bsp/\libucosii_bsp.a(tk_misc.o)
 .rodata        0x0084a7b8       0x44 ../simple_socket_bsp/\libucosii_bsp.a(et_arp.o)
 .rodata        0x0084a7fc      0x1dc ../simple_socket_bsp/\libucosii_bsp.a(ip.o)
 .rodata        0x0084a9d8      0x158 ../simple_socket_bsp/\libucosii_bsp.a(ip_reasm.o)
 .rodata        0x0084ab30      0x120 ../simple_socket_bsp/\libucosii_bsp.a(ipdemux.o)
 .rodata        0x0084ac50       0x34 ../simple_socket_bsp/\libucosii_bsp.a(ipport.o)
 .rodata        0x0084ac84       0x24 ../simple_socket_bsp/\libucosii_bsp.a(ipraw.o)
 .rodata        0x0084aca8       0x38 ../simple_socket_bsp/\libucosii_bsp.a(iproute.o)
 .rodata        0x0084ace0       0xe8 ../simple_socket_bsp/\libucosii_bsp.a(udp.o)
 .rodata        0x0084adc8      0x2d0 ../simple_socket_bsp/\libucosii_bsp.a(u_mctest.o)
 .rodata        0x0084b098       0xf8 ../simple_socket_bsp/\libucosii_bsp.a(dhcsetup.o)
 .rodata        0x0084b190       0x34 ../simple_socket_bsp/\libucosii_bsp.a(vfsfiles.o)
 .rodata        0x0084b1c4      0x318 ../simple_socket_bsp/\libucosii_bsp.a(icmp.o)
 *(.rodata1)
                0x0084b4dc                . = ALIGN (0x4)
                0x0084b4dc                PROVIDE (__ram_rodata_end, ABSOLUTE (.))
                0x0084724c                PROVIDE (__flash_rodata_start, LOADADDR (.rodata))

.rwdata         0x0084b4dc     0x213c
                0x0084b4dc                PROVIDE (__ram_rwdata_start, ABSOLUTE (.))
                0x0084b4dc                . = ALIGN (0x4)
 *(.got.plt)
 *(.got)
 *(.data1)
 *(.data .data.* .gnu.linkonce.d.*)
 .data          0x0084b4dc        0x0 ../simple_socket_bsp//obj/HAL/src/crt0.o
 .data          0x0084b4dc        0x0 obj/default/LCD.o
 .data          0x0084b4dc        0x0 obj/default/SSS_DE2_115.o
 .data          0x0084b4dc        0x0 obj/default/alt_error_handler.o
 .data          0x0084b4dc        0x0 obj/default/dm9000a.o
 .data          0x0084b4dc       0x18 obj/default/iniche_init.o
                0x0084b4dc                ssstask
 .data          0x0084b4f4        0x0 obj/default/led.o
 .data          0x0084b4f4        0x0 obj/default/network_utilities.o
 .data          0x0084b4f4        0x0 obj/default/simple_socket_server.o
 .data          0x0084b4f4        0x0 obj/default/tse_my_system.o
 .data          0x0084b4f4        0x0 j:/altera/13.0sp1/nios2eds/bin/gnu/h-i686-mingw32/bin/../lib/gcc/nios2-elf/4.1.2\libgcc.a(_fixunsdfsi.o)
 .data          0x0084b4f4        0x0 j:/altera/13.0sp1/nios2eds/bin/gnu/h-i686-mingw32/bin/../lib/gcc/nios2-elf/4.1.2\libgcc.a(_addsub_df.o)
 .data          0x0084b4f4        0x0 j:/altera/13.0sp1/nios2eds/bin/gnu/h-i686-mingw32/bin/../lib/gcc/nios2-elf/4.1.2\libgcc.a(_mul_df.o)
 .data          0x0084b4f4        0x0 j:/altera/13.0sp1/nios2eds/bin/gnu/h-i686-mingw32/bin/../lib/gcc/nios2-elf/4.1.2\libgcc.a(_ge_df.o)
 .data          0x0084b4f4        0x0 j:/altera/13.0sp1/nios2eds/bin/gnu/h-i686-mingw32/bin/../lib/gcc/nios2-elf/4.1.2\libgcc.a(_df_to_si.o)
 .data          0x0084b4f4        0x0 j:/altera/13.0sp1/nios2eds/bin/gnu/h-i686-mingw32/bin/../lib/gcc/nios2-elf/4.1.2\libgcc.a(_thenan_df.o)
 .data          0x0084b4f4        0x0 j:/altera/13.0sp1/nios2eds/bin/gnu/h-i686-mingw32/bin/../lib/gcc/nios2-elf/4.1.2\libgcc.a(_usi_to_df.o)
 .data          0x0084b4f4        0x0 j:/altera/13.0sp1/nios2eds/bin/gnu/h-i686-mingw32/bin/../lib/gcc/nios2-elf/4.1.2\libgcc.a(_muldi3.o)
 .data          0x0084b4f4        0x0 j:/altera/13.0sp1/nios2eds/bin/gnu/h-i686-mingw32/bin/../lib/gcc/nios2-elf/4.1.2\libgcc.a(_clzsi2.o)
 .data          0x0084b4f4        0x0 j:/altera/13.0sp1/nios2eds/bin/gnu/h-i686-mingw32/bin/../lib/gcc/nios2-elf/4.1.2\libgcc.a(_pack_df.o)
 .data          0x0084b4f4        0x0 j:/altera/13.0sp1/nios2eds/bin/gnu/h-i686-mingw32/bin/../lib/gcc/nios2-elf/4.1.2\libgcc.a(_unpack_df.o)
 .data          0x0084b4f4        0x0 j:/altera/13.0sp1/nios2eds/bin/gnu/h-i686-mingw32/bin/../lib/gcc/nios2-elf/4.1.2\libgcc.a(_fpcmp_parts_df.o)
 .data          0x0084b4f4        0x0 j:/altera/13.0sp1/nios2eds/bin/gnu/h-i686-mingw32/bin/../lib/gcc/nios2-elf/4.1.2\libgcc.a(_clz.o)
 .data          0x0084b4f4        0x0 j:/altera/13.0sp1/nios2eds/bin/gnu/h-i686-mingw32/bin/../lib/gcc/nios2-elf/4.1.2/../../../../nios2-elf/lib\libc.a(lib_a-ctype_.o)
 .data          0x0084b4f4        0x0 j:/altera/13.0sp1/nios2eds/bin/gnu/h-i686-mingw32/bin/../lib/gcc/nios2-elf/4.1.2/../../../../nios2-elf/lib\libc.a(lib_a-exit.o)
 .data          0x0084b4f4        0x0 j:/altera/13.0sp1/nios2eds/bin/gnu/h-i686-mingw32/bin/../lib/gcc/nios2-elf/4.1.2/../../../../nios2-elf/lib\libc.a(lib_a-fprintf.o)
 .data          0x0084b4f4        0x0 j:/altera/13.0sp1/nios2eds/bin/gnu/h-i686-mingw32/bin/../lib/gcc/nios2-elf/4.1.2/../../../../nios2-elf/lib\libc.a(lib_a-fwrite.o)
 .data          0x0084b4f4        0x0 j:/altera/13.0sp1/nios2eds/bin/gnu/h-i686-mingw32/bin/../lib/gcc/nios2-elf/4.1.2/../../../../nios2-elf/lib\libc.a(lib_a-getc.o)
 .data          0x0084b4f4      0x400 j:/altera/13.0sp1/nios2eds/bin/gnu/h-i686-mingw32/bin/../lib/gcc/nios2-elf/4.1.2/../../../../nios2-elf/lib\libc.a(lib_a-impure.o)
 .data          0x0084b8f4        0x0 j:/altera/13.0sp1/nios2eds/bin/gnu/h-i686-mingw32/bin/../lib/gcc/nios2-elf/4.1.2/../../../../nios2-elf/lib\libc.a(lib_a-memcpy.o)
 .data          0x0084b8f4        0x0 j:/altera/13.0sp1/nios2eds/bin/gnu/h-i686-mingw32/bin/../lib/gcc/nios2-elf/4.1.2/../../../../nios2-elf/lib\libc.a(lib_a-memmove.o)
 .data          0x0084b8f4        0x0 j:/altera/13.0sp1/nios2eds/bin/gnu/h-i686-mingw32/bin/../lib/gcc/nios2-elf/4.1.2/../../../../nios2-elf/lib\libc.a(lib_a-memset.o)
 .data          0x0084b8f4        0x0 j:/altera/13.0sp1/nios2eds/bin/gnu/h-i686-mingw32/bin/../lib/gcc/nios2-elf/4.1.2/../../../../nios2-elf/lib\libc.a(lib_a-perror.o)
 .data          0x0084b8f4        0x0 j:/altera/13.0sp1/nios2eds/bin/gnu/h-i686-mingw32/bin/../lib/gcc/nios2-elf/4.1.2/../../../../nios2-elf/lib\libc.a(lib_a-printf.o)
 .data          0x0084b8f4        0x0 j:/altera/13.0sp1/nios2eds/bin/gnu/h-i686-mingw32/bin/../lib/gcc/nios2-elf/4.1.2/../../../../nios2-elf/lib\libc.a(lib_a-putc.o)
 .data          0x0084b8f4        0x0 j:/altera/13.0sp1/nios2eds/bin/gnu/h-i686-mingw32/bin/../lib/gcc/nios2-elf/4.1.2/../../../../nios2-elf/lib\libc.a(lib_a-putchar.o)
 .data          0x0084b8f4        0x0 j:/altera/13.0sp1/nios2eds/bin/gnu/h-i686-mingw32/bin/../lib/gcc/nios2-elf/4.1.2/../../../../nios2-elf/lib\libc.a(lib_a-puts.o)
 .data          0x0084b8f4        0x0 j:/altera/13.0sp1/nios2eds/bin/gnu/h-i686-mingw32/bin/../lib/gcc/nios2-elf/4.1.2/../../../../nios2-elf/lib\libc.a(lib_a-rget.o)
 .data          0x0084b8f4        0x0 j:/altera/13.0sp1/nios2eds/bin/gnu/h-i686-mingw32/bin/../lib/gcc/nios2-elf/4.1.2/../../../../nios2-elf/lib\libc.a(lib_a-strchr.o)
 .data          0x0084b8f4        0x0 j:/altera/13.0sp1/nios2eds/bin/gnu/h-i686-mingw32/bin/../lib/gcc/nios2-elf/4.1.2/../../../../nios2-elf/lib\libc.a(lib_a-strerror.o)
 .data          0x0084b8f4        0x0 j:/altera/13.0sp1/nios2eds/bin/gnu/h-i686-mingw32/bin/../lib/gcc/nios2-elf/4.1.2/../../../../nios2-elf/lib\libc.a(lib_a-strlen.o)
 .data          0x0084b8f4        0x0 j:/altera/13.0sp1/nios2eds/bin/gnu/h-i686-mingw32/bin/../lib/gcc/nios2-elf/4.1.2/../../../../nios2-elf/lib\libc.a(lib_a-u_strerr.o)
 .data          0x0084b8f4        0x0 j:/altera/13.0sp1/nios2eds/bin/gnu/h-i686-mingw32/bin/../lib/gcc/nios2-elf/4.1.2/../../../../nios2-elf/lib\libc.a(lib_a-vfprintf.o)
 .data          0x0084b8f4        0x0 j:/altera/13.0sp1/nios2eds/bin/gnu/h-i686-mingw32/bin/../lib/gcc/nios2-elf/4.1.2/../../../../nios2-elf/lib\libc.a(lib_a-wbuf.o)
 .data          0x0084b8f4        0x0 j:/altera/13.0sp1/nios2eds/bin/gnu/h-i686-mingw32/bin/../lib/gcc/nios2-elf/4.1.2/../../../../nios2-elf/lib\libc.a(lib_a-wsetup.o)
 .data          0x0084b8f4        0x0 j:/altera/13.0sp1/nios2eds/bin/gnu/h-i686-mingw32/bin/../lib/gcc/nios2-elf/4.1.2/../../../../nios2-elf/lib\libc.a(lib_a-__call_atexit.o)
 .data          0x0084b8f4        0x0 j:/altera/13.0sp1/nios2eds/bin/gnu/h-i686-mingw32/bin/../lib/gcc/nios2-elf/4.1.2/../../../../nios2-elf/lib\libc.a(lib_a-dtoa.o)
 .data          0x0084b8f4        0x0 j:/altera/13.0sp1/nios2eds/bin/gnu/h-i686-mingw32/bin/../lib/gcc/nios2-elf/4.1.2/../../../../nios2-elf/lib\libc.a(lib_a-fflush.o)
 .data          0x0084b8f4        0x0 j:/altera/13.0sp1/nios2eds/bin/gnu/h-i686-mingw32/bin/../lib/gcc/nios2-elf/4.1.2/../../../../nios2-elf/lib\libc.a(lib_a-findfp.o)
 .data          0x0084b8f4        0x0 j:/altera/13.0sp1/nios2eds/bin/gnu/h-i686-mingw32/bin/../lib/gcc/nios2-elf/4.1.2/../../../../nios2-elf/lib\libc.a(lib_a-fputc.o)
 .data          0x0084b8f4        0x0 j:/altera/13.0sp1/nios2eds/bin/gnu/h-i686-mingw32/bin/../lib/gcc/nios2-elf/4.1.2/../../../../nios2-elf/lib\libc.a(lib_a-fputs.o)
 .data          0x0084b8f4        0x0 j:/altera/13.0sp1/nios2eds/bin/gnu/h-i686-mingw32/bin/../lib/gcc/nios2-elf/4.1.2/../../../../nios2-elf/lib\libc.a(lib_a-freer.o)
 .data          0x0084b8f4        0x0 j:/altera/13.0sp1/nios2eds/bin/gnu/h-i686-mingw32/bin/../lib/gcc/nios2-elf/4.1.2/../../../../nios2-elf/lib\libc.a(lib_a-fvwrite.o)
 .data          0x0084b8f4        0x0 j:/altera/13.0sp1/nios2eds/bin/gnu/h-i686-mingw32/bin/../lib/gcc/nios2-elf/4.1.2/../../../../nios2-elf/lib\libc.a(lib_a-fwalk.o)
 .data          0x0084b8f4        0xc j:/altera/13.0sp1/nios2eds/bin/gnu/h-i686-mingw32/bin/../lib/gcc/nios2-elf/4.1.2/../../../../nios2-elf/lib\libc.a(lib_a-locale.o)
                0x0084b8f4                __lc_ctype
 .data          0x0084b900        0x0 j:/altera/13.0sp1/nios2eds/bin/gnu/h-i686-mingw32/bin/../lib/gcc/nios2-elf/4.1.2/../../../../nios2-elf/lib\libc.a(lib_a-makebuf.o)
 .data          0x0084b900      0x408 j:/altera/13.0sp1/nios2eds/bin/gnu/h-i686-mingw32/bin/../lib/gcc/nios2-elf/4.1.2/../../../../nios2-elf/lib\libc.a(lib_a-mallocr.o)
                0x0084b900                __malloc_av_
 .data          0x0084bd08        0x0 j:/altera/13.0sp1/nios2eds/bin/gnu/h-i686-mingw32/bin/../lib/gcc/nios2-elf/4.1.2/../../../../nios2-elf/lib\libc.a(lib_a-memchr.o)
 .data          0x0084bd08        0x0 j:/altera/13.0sp1/nios2eds/bin/gnu/h-i686-mingw32/bin/../lib/gcc/nios2-elf/4.1.2/../../../../nios2-elf/lib\libc.a(lib_a-mprec.o)
 .data          0x0084bd08        0x0 j:/altera/13.0sp1/nios2eds/bin/gnu/h-i686-mingw32/bin/../lib/gcc/nios2-elf/4.1.2/../../../../nios2-elf/lib\libc.a(lib_a-reallocr.o)
 .data          0x0084bd08        0x0 j:/altera/13.0sp1/nios2eds/bin/gnu/h-i686-mingw32/bin/../lib/gcc/nios2-elf/4.1.2/../../../../nios2-elf/lib\libc.a(lib_a-refill.o)
 .data          0x0084bd08        0x0 j:/altera/13.0sp1/nios2eds/bin/gnu/h-i686-mingw32/bin/../lib/gcc/nios2-elf/4.1.2/../../../../nios2-elf/lib\libc.a(lib_a-s_isinfd.o)
 .data          0x0084bd08        0x0 j:/altera/13.0sp1/nios2eds/bin/gnu/h-i686-mingw32/bin/../lib/gcc/nios2-elf/4.1.2/../../../../nios2-elf/lib\libc.a(lib_a-s_isnand.o)
 .data          0x0084bd08        0x0 j:/altera/13.0sp1/nios2eds/bin/gnu/h-i686-mingw32/bin/../lib/gcc/nios2-elf/4.1.2/../../../../nios2-elf/lib\libc.a(lib_a-sbrkr.o)
 .data          0x0084bd08        0x0 j:/altera/13.0sp1/nios2eds/bin/gnu/h-i686-mingw32/bin/../lib/gcc/nios2-elf/4.1.2/../../../../nios2-elf/lib\libc.a(lib_a-stdio.o)
 .data          0x0084bd08        0x0 j:/altera/13.0sp1/nios2eds/bin/gnu/h-i686-mingw32/bin/../lib/gcc/nios2-elf/4.1.2/../../../../nios2-elf/lib\libc.a(lib_a-strcmp.o)
 .data          0x0084bd08        0x0 j:/altera/13.0sp1/nios2eds/bin/gnu/h-i686-mingw32/bin/../lib/gcc/nios2-elf/4.1.2/../../../../nios2-elf/lib\libc.a(lib_a-writer.o)
 .data          0x0084bd08        0x0 j:/altera/13.0sp1/nios2eds/bin/gnu/h-i686-mingw32/bin/../lib/gcc/nios2-elf/4.1.2/../../../../nios2-elf/lib\libc.a(lib_a-callocr.o)
 .data          0x0084bd08        0x0 j:/altera/13.0sp1/nios2eds/bin/gnu/h-i686-mingw32/bin/../lib/gcc/nios2-elf/4.1.2/../../../../nios2-elf/lib\libc.a(lib_a-closer.o)
 .data          0x0084bd08        0x0 j:/altera/13.0sp1/nios2eds/bin/gnu/h-i686-mingw32/bin/../lib/gcc/nios2-elf/4.1.2/../../../../nios2-elf/lib\libc.a(lib_a-fclose.o)
 .data          0x0084bd08        0x0 j:/altera/13.0sp1/nios2eds/bin/gnu/h-i686-mingw32/bin/../lib/gcc/nios2-elf/4.1.2/../../../../nios2-elf/lib\libc.a(lib_a-fstatr.o)
 .data          0x0084bd08        0x0 j:/altera/13.0sp1/nios2eds/bin/gnu/h-i686-mingw32/bin/../lib/gcc/nios2-elf/4.1.2/../../../../nios2-elf/lib\libc.a(lib_a-int_errno.o)
 .data          0x0084bd08        0x0 j:/altera/13.0sp1/nios2eds/bin/gnu/h-i686-mingw32/bin/../lib/gcc/nios2-elf/4.1.2/../../../../nios2-elf/lib\libc.a(lib_a-isattyr.o)
 .data          0x0084bd08        0x0 j:/altera/13.0sp1/nios2eds/bin/gnu/h-i686-mingw32/bin/../lib/gcc/nios2-elf/4.1.2/../../../../nios2-elf/lib\libc.a(lib_a-lseekr.o)
 .data          0x0084bd08        0x0 j:/altera/13.0sp1/nios2eds/bin/gnu/h-i686-mingw32/bin/../lib/gcc/nios2-elf/4.1.2/../../../../nios2-elf/lib\libc.a(lib_a-readr.o)
 .data          0x0084bd08        0x0 j:/altera/13.0sp1/nios2eds/bin/gnu/h-i686-mingw32/bin/../lib/gcc/nios2-elf/4.1.2\libgcc.a(_udivdi3.o)
 .data          0x0084bd08        0x0 j:/altera/13.0sp1/nios2eds/bin/gnu/h-i686-mingw32/bin/../lib/gcc/nios2-elf/4.1.2\libgcc.a(_umoddi3.o)
 .data          0x0084bd08        0x0 j:/altera/13.0sp1/nios2eds/bin/gnu/h-i686-mingw32/bin/../lib/gcc/nios2-elf/4.1.2\libgcc.a(_div_df.o)
 .data          0x0084bd08        0x0 j:/altera/13.0sp1/nios2eds/bin/gnu/h-i686-mingw32/bin/../lib/gcc/nios2-elf/4.1.2\libgcc.a(_eq_df.o)
 .data          0x0084bd08        0x0 j:/altera/13.0sp1/nios2eds/bin/gnu/h-i686-mingw32/bin/../lib/gcc/nios2-elf/4.1.2\libgcc.a(_ne_df.o)
 .data          0x0084bd08        0x0 j:/altera/13.0sp1/nios2eds/bin/gnu/h-i686-mingw32/bin/../lib/gcc/nios2-elf/4.1.2\libgcc.a(_gt_df.o)
 .data          0x0084bd08        0x0 j:/altera/13.0sp1/nios2eds/bin/gnu/h-i686-mingw32/bin/../lib/gcc/nios2-elf/4.1.2\libgcc.a(_lt_df.o)
 .data          0x0084bd08        0x0 j:/altera/13.0sp1/nios2eds/bin/gnu/h-i686-mingw32/bin/../lib/gcc/nios2-elf/4.1.2\libgcc.a(_si_to_df.o)
 .data          0x0084bd08        0x0 j:/altera/13.0sp1/nios2eds/bin/gnu/h-i686-mingw32/bin/../lib/gcc/nios2-elf/4.1.2\libgcc.a(lib2-divmod.o)
 .data          0x0084bd08        0x0 ../simple_socket_bsp/\libucosii_bsp.a(alt_exit.o)
 .data          0x0084bd08        0x0 ../simple_socket_bsp/\libucosii_bsp.a(alt_flash_dev.o)
 .data          0x0084bd08        0x0 ../simple_socket_bsp/\libucosii_bsp.a(alt_fstat.o)
 .data          0x0084bd08        0x0 ../simple_socket_bsp/\libucosii_bsp.a(alt_irq_register.o)
 .data          0x0084bd08        0x0 ../simple_socket_bsp/\libucosii_bsp.a(alt_irq_vars.o)
 .data          0x0084bd08        0x0 ../simple_socket_bsp/\libucosii_bsp.a(alt_isatty.o)
 .data          0x0084bd08        0x0 ../simple_socket_bsp/\libucosii_bsp.a(alt_lseek.o)
 .data          0x0084bd08        0x0 ../simple_socket_bsp/\libucosii_bsp.a(alt_main.o)
 .data          0x0084bd08        0x0 ../simple_socket_bsp/\libucosii_bsp.a(alt_sbrk.o)
 .data          0x0084bd08        0x0 ../simple_socket_bsp/\libucosii_bsp.a(alt_usleep.o)
 .data          0x0084bd08        0x0 ../simple_socket_bsp/\libucosii_bsp.a(alt_env_lock.o)
 .data          0x0084bd08        0x0 ../simple_socket_bsp/\libucosii_bsp.a(alt_malloc_lock.o)
 .data          0x0084bd08        0x0 ../simple_socket_bsp/\libucosii_bsp.a(os_core.o)
 .data          0x0084bd08        0x0 ../simple_socket_bsp/\libucosii_bsp.a(os_dbg.o)
 .data          0x0084bd08        0x0 ../simple_socket_bsp/\libucosii_bsp.a(os_flag.o)
 .data          0x0084bd08        0x0 ../simple_socket_bsp/\libucosii_bsp.a(os_mem.o)
 .data          0x0084bd08        0x0 ../simple_socket_bsp/\libucosii_bsp.a(os_q.o)
 .data          0x0084bd08        0x0 ../simple_socket_bsp/\libucosii_bsp.a(os_sem.o)
 .data          0x0084bd08        0x0 ../simple_socket_bsp/\libucosii_bsp.a(os_task.o)
 .data          0x0084bd08        0x0 ../simple_socket_bsp/\libucosii_bsp.a(os_time.o)
 .data          0x0084bd08     0x1400 ../simple_socket_bsp/\libucosii_bsp.a(alt_sys_init.o)
 .data          0x0084d108        0x0 ../simple_socket_bsp/\libucosii_bsp.a(altera_avalon_cfi_flash.o)
 .data          0x0084d108        0x0 ../simple_socket_bsp/\libucosii_bsp.a(altera_avalon_cfi_flash_table.o)
 .data          0x0084d108        0x0 ../simple_socket_bsp/\libucosii_bsp.a(altera_avalon_epcs_flash_controller.o)
 .data          0x0084d108        0x0 ../simple_socket_bsp/\libucosii_bsp.a(altera_avalon_jtag_uart_fd.o)
 .data          0x0084d108        0x0 ../simple_socket_bsp/\libucosii_bsp.a(altera_avalon_jtag_uart_init.o)
 .data          0x0084d108        0x0 ../simple_socket_bsp/\libucosii_bsp.a(altera_avalon_jtag_uart_ioctl.o)
 .data          0x0084d108        0x0 ../simple_socket_bsp/\libucosii_bsp.a(altera_avalon_jtag_uart_read.o)
 .data          0x0084d108        0x0 ../simple_socket_bsp/\libucosii_bsp.a(altera_avalon_jtag_uart_write.o)
 .data          0x0084d108        0x0 ../simple_socket_bsp/\libucosii_bsp.a(altera_avalon_lcd_16207.o)
 .data          0x0084d108        0x0 ../simple_socket_bsp/\libucosii_bsp.a(altera_avalon_lcd_16207_fd.o)
 .data          0x0084d108        0x0 ../simple_socket_bsp/\libucosii_bsp.a(altera_avalon_timer_sc.o)
 .data          0x0084d108        0x0 ../simple_socket_bsp/\libucosii_bsp.a(altera_avalon_uart_fd.o)
 .data          0x0084d108        0x0 ../simple_socket_bsp/\libucosii_bsp.a(altera_avalon_uart_init.o)
 .data          0x0084d108        0x0 ../simple_socket_bsp/\libucosii_bsp.a(altera_avalon_uart_read.o)
 .data          0x0084d108        0x0 ../simple_socket_bsp/\libucosii_bsp.a(altera_avalon_uart_write.o)
 .data          0x0084d108        0x0 ../simple_socket_bsp/\libucosii_bsp.a(epcs_commands.o)
 .data          0x0084d108        0x0 ../simple_socket_bsp/\libucosii_bsp.a(alt_iniche_close.o)
 .data          0x0084d108        0x0 ../simple_socket_bsp/\libucosii_bsp.a(alt_iniche_dev.o)
 .data          0x0084d108        0x0 ../simple_socket_bsp/\libucosii_bsp.a(alt_iniche_read.o)
 .data          0x0084d108        0x0 ../simple_socket_bsp/\libucosii_bsp.a(alt_iniche_write.o)
 .data          0x0084d108        0x0 ../simple_socket_bsp/\libucosii_bsp.a(ipnet.o)
 .data          0x0084d108        0x0 ../simple_socket_bsp/\libucosii_bsp.a(ipstart.o)
 .data          0x0084d108        0x0 ../simple_socket_bsp/\libucosii_bsp.a(igmp_cmn.o)
 .data          0x0084d108        0x0 ../simple_socket_bsp/\libucosii_bsp.a(bsdsock.o)
 .data          0x0084d108        0x0 ../simple_socket_bsp/\libucosii_bsp.a(cksum.o)
 .data          0x0084d108        0x0 ../simple_socket_bsp/\libucosii_bsp.a(in_utils.o)
 .data          0x0084d108       0x30 ../simple_socket_bsp/\libucosii_bsp.a(netmain.o)
                0x0084d108                nettasks
 .data          0x0084d138        0x0 ../simple_socket_bsp/\libucosii_bsp.a(parseip.o)
 .data          0x0084d138        0x0 ../simple_socket_bsp/\libucosii_bsp.a(tk_crnos.o)
 .data          0x0084d138        0x0 ../simple_socket_bsp/\libucosii_bsp.a(dhcpclnt.o)
 .data          0x0084d138        0x0 ../simple_socket_bsp/\libucosii_bsp.a(dhcputil.o)
 .data          0x0084d138        0x0 ../simple_socket_bsp/\libucosii_bsp.a(pktalloc.o)
 .data          0x0084d138        0x0 ../simple_socket_bsp/\libucosii_bsp.a(q.o)
 .data          0x0084d138        0x0 ../simple_socket_bsp/\libucosii_bsp.a(udp_open.o)
 .data          0x0084d138        0x0 ../simple_socket_bsp/\libucosii_bsp.a(asm_cksum.o)
 .data          0x0084d138        0x0 ../simple_socket_bsp/\libucosii_bsp.a(brdutils.o)
 .data          0x0084d138        0x0 ../simple_socket_bsp/\libucosii_bsp.a(osportco.o)
 .data          0x0084d138        0x0 ../simple_socket_bsp/\libucosii_bsp.a(targnios.o)
 .data          0x0084d138       0x48 ../simple_socket_bsp/\libucosii_bsp.a(nptcp.o)
                0x0084d138                tcp_protosw
                0x0084d150                udp_protosw
                0x0084d168                rawip_protosw
 .data          0x0084d180        0x0 ../simple_socket_bsp/\libucosii_bsp.a(rawsock.o)
 .data          0x0084d180        0x0 ../simple_socket_bsp/\libucosii_bsp.a(sockcall.o)
 .data          0x0084d180        0x0 ../simple_socket_bsp/\libucosii_bsp.a(socket.o)
 .data          0x0084d180        0x0 ../simple_socket_bsp/\libucosii_bsp.a(socket2.o)
 .data          0x0084d180        0x0 ../simple_socket_bsp/\libucosii_bsp.a(soselect.o)
 .data          0x0084d180        0x0 ../simple_socket_bsp/\libucosii_bsp.a(tcp_in.o)
 .data          0x0084d180        0xb ../simple_socket_bsp/\libucosii_bsp.a(tcp_out.o)
                0x0084d180                tcp_outflags
 .data          0x0084d18b        0x0 ../simple_socket_bsp/\libucosii_bsp.a(tcp_subr.o)
 .data          0x0084d18b        0xd ../simple_socket_bsp/\libucosii_bsp.a(tcp_timr.o)
                0x0084d18b                tcp_backoff
 .data          0x0084d198        0x0 ../simple_socket_bsp/\libucosii_bsp.a(tcp_usr.o)
 .data          0x0084d198        0x0 ../simple_socket_bsp/\libucosii_bsp.a(tcpport.o)
 .data          0x0084d198        0x0 ../simple_socket_bsp/\libucosii_bsp.a(udpsock.o)
 .data          0x0084d198        0x0 ../simple_socket_bsp/\libucosii_bsp.a(alt_alarm_start.o)
 .data          0x0084d198        0x0 ../simple_socket_bsp/\libucosii_bsp.a(alt_busy_sleep.o)
 .data          0x0084d198        0x0 ../simple_socket_bsp/\libucosii_bsp.a(alt_close.o)
 .data          0x0084d198        0x0 ../simple_socket_bsp/\libucosii_bsp.a(alt_dcache_flush.o)
 .data          0x0084d198      0x1a8 ../simple_socket_bsp/\libucosii_bsp.a(alt_dev.o)
                0x0084d198                alt_dev_null
                0x0084d1c0                alt_fd_list
 .data          0x0084d340        0x0 ../simple_socket_bsp/\libucosii_bsp.a(alt_dev_llist_insert.o)
 .data          0x0084d340        0x0 ../simple_socket_bsp/\libucosii_bsp.a(alt_do_ctors.o)
 .data          0x0084d340        0x0 ../simple_socket_bsp/\libucosii_bsp.a(alt_do_dtors.o)
 .data          0x0084d340        0x0 ../simple_socket_bsp/\libucosii_bsp.a(alt_errno.o)
 .data          0x0084d340        0x0 ../simple_socket_bsp/\libucosii_bsp.a(alt_find_dev.o)
 .data          0x0084d340        0x0 ../simple_socket_bsp/\libucosii_bsp.a(alt_iic.o)
 .data          0x0084d340        0x0 ../simple_socket_bsp/\libucosii_bsp.a(alt_iic_isr_register.o)
 .data          0x0084d340        0x0 ../simple_socket_bsp/\libucosii_bsp.a(alt_io_redirect.o)
 .data          0x0084d340        0x0 ../simple_socket_bsp/\libucosii_bsp.a(alt_irq_entry.o)
 .data          0x0084d340        0x0 ../simple_socket_bsp/\libucosii_bsp.a(alt_irq_handler.o)
 .data          0x0084d340        0x0 ../simple_socket_bsp/\libucosii_bsp.a(alt_open.o)
 .data          0x0084d340        0x0 ../simple_socket_bsp/\libucosii_bsp.a(alt_read.o)
 .data          0x0084d340        0x0 ../simple_socket_bsp/\libucosii_bsp.a(alt_release_fd.o)
 .data          0x0084d340        0x0 ../simple_socket_bsp/\libucosii_bsp.a(alt_remap_cached.o)
 .data          0x0084d340        0x0 ../simple_socket_bsp/\libucosii_bsp.a(alt_remap_uncached.o)
 .data          0x0084d340        0x0 ../simple_socket_bsp/\libucosii_bsp.a(alt_tick.o)
 .data          0x0084d340        0x0 ../simple_socket_bsp/\libucosii_bsp.a(alt_write.o)
 .data          0x0084d340        0x0 ../simple_socket_bsp/\libucosii_bsp.a(altera_nios2_qsys_irq.o)
 .data          0x0084d340        0x0 ../simple_socket_bsp/\libucosii_bsp.a(os_cpu_a.o)
 .data          0x0084d340        0x0 ../simple_socket_bsp/\libucosii_bsp.a(os_cpu_c.o)
 .data          0x0084d340        0x0 ../simple_socket_bsp/\libucosii_bsp.a(altera_avalon_cfi_flash_amd.o)
 .data          0x0084d340        0x0 ../simple_socket_bsp/\libucosii_bsp.a(altera_avalon_cfi_flash_intel.o)
 .data          0x0084d340        0x0 ../simple_socket_bsp/\libucosii_bsp.a(altera_avalon_spi.o)
 .data          0x0084d340       0x18 ../simple_socket_bsp/\libucosii_bsp.a(allports.o)
                0x0084d340                icmpdu_types
 .data          0x0084d358        0x0 ../simple_socket_bsp/\libucosii_bsp.a(timeouts.o)
 .data          0x0084d358        0x0 ../simple_socket_bsp/\libucosii_bsp.a(tk_misc.o)
 .data          0x0084d358        0x0 ../simple_socket_bsp/\libucosii_bsp.a(alt_iniche_fcntl.o)
 .data          0x0084d358        0x0 ../simple_socket_bsp/\libucosii_bsp.a(et_arp.o)
 .data          0x0084d358        0x0 ../simple_socket_bsp/\libucosii_bsp.a(iface.o)
 .data          0x0084d358        0x0 ../simple_socket_bsp/\libucosii_bsp.a(ip.o)
 .data          0x0084d358        0x0 ../simple_socket_bsp/\libucosii_bsp.a(ip_reasm.o)
 .data          0x0084d358        0x0 ../simple_socket_bsp/\libucosii_bsp.a(ipdemux.o)
 .data          0x0084d358        0x0 ../simple_socket_bsp/\libucosii_bsp.a(ipmc.o)
 .data          0x0084d358        0x0 ../simple_socket_bsp/\libucosii_bsp.a(ipport.o)
 .data          0x0084d358        0x0 ../simple_socket_bsp/\libucosii_bsp.a(ipraw.o)
 .data          0x0084d358        0x9 ../simple_socket_bsp/\libucosii_bsp.a(iproute.o)
                0x0084d358                rtp_priority
 .data          0x0084d361        0x0 ../simple_socket_bsp/\libucosii_bsp.a(udp.o)
 .data          0x0084d361        0x0 ../simple_socket_bsp/\libucosii_bsp.a(igmp.o)
 .data          0x0084d361        0x0 ../simple_socket_bsp/\libucosii_bsp.a(igmp2.o)
 .data          0x0084d361        0x0 ../simple_socket_bsp/\libucosii_bsp.a(ipopt.o)
 .data          0x0084d361        0x0 ../simple_socket_bsp/\libucosii_bsp.a(u_mctest.o)
 .data          0x0084d361        0x0 ../simple_socket_bsp/\libucosii_bsp.a(dhcsetup.o)
 *fill*         0x0084d361        0x3 00
 .data          0x0084d364       0xd4 ../simple_socket_bsp/\libucosii_bsp.a(memdev.o)
                0x0084d364                mdio
                0x0084d388                mdlist
 .data          0x0084d438        0x0 ../simple_socket_bsp/\libucosii_bsp.a(tcpcksum.o)
 .data          0x0084d438        0x0 ../simple_socket_bsp/\libucosii_bsp.a(in_pcb.o)
 .data          0x0084d438       0x80 ../simple_socket_bsp/\libucosii_bsp.a(vfsfiles.o)
                0x0084d438                vfs_root_path
 .data          0x0084d4b8        0x0 ../simple_socket_bsp/\libucosii_bsp.a(vfsport.o)
 .data          0x0084d4b8        0x0 ../simple_socket_bsp/\libucosii_bsp.a(alt_exception_entry.o)
 .data          0x0084d4b8        0x0 ../simple_socket_bsp/\libucosii_bsp.a(alt_fcntl.o)
 .data          0x0084d4b8        0x0 ../simple_socket_bsp/\libucosii_bsp.a(alt_find_file.o)
 .data          0x0084d4b8        0x0 ../simple_socket_bsp/\libucosii_bsp.a(alt_get_fd.o)
 .data          0x0084d4b8       0x18 ../simple_socket_bsp/\libucosii_bsp.a(icmp.o)
 .data          0x0084d4d0        0x0 j:/altera/13.0sp1/nios2eds/bin/gnu/h-i686-mingw32/bin/../lib/gcc/nios2-elf/4.1.2/../../../../nios2-elf/lib\libc.a(lib_a-atexit.o)
 .data          0x0084d4d0        0x0 j:/altera/13.0sp1/nios2eds/bin/gnu/h-i686-mingw32/bin/../lib/gcc/nios2-elf/4.1.2/../../../../nios2-elf/lib\libc.a(lib_a-atoi.o)
 .data          0x0084d4d0        0x0 j:/altera/13.0sp1/nios2eds/bin/gnu/h-i686-mingw32/bin/../lib/gcc/nios2-elf/4.1.2/../../../../nios2-elf/lib\libc.a(lib_a-calloc.o)
 .data          0x0084d4d0        0x0 j:/altera/13.0sp1/nios2eds/bin/gnu/h-i686-mingw32/bin/../lib/gcc/nios2-elf/4.1.2/../../../../nios2-elf/lib\libc.a(lib_a-malloc.o)
 .data          0x0084d4d0        0x0 j:/altera/13.0sp1/nios2eds/bin/gnu/h-i686-mingw32/bin/../lib/gcc/nios2-elf/4.1.2/../../../../nios2-elf/lib\libc.a(lib_a-memcmp.o)
 .data          0x0084d4d0        0x0 j:/altera/13.0sp1/nios2eds/bin/gnu/h-i686-mingw32/bin/../lib/gcc/nios2-elf/4.1.2/../../../../nios2-elf/lib\libc.a(lib_a-sprintf.o)
 .data          0x0084d4d0        0x0 j:/altera/13.0sp1/nios2eds/bin/gnu/h-i686-mingw32/bin/../lib/gcc/nios2-elf/4.1.2/../../../../nios2-elf/lib\libc.a(lib_a-strcpy.o)
 .data          0x0084d4d0        0x0 j:/altera/13.0sp1/nios2eds/bin/gnu/h-i686-mingw32/bin/../lib/gcc/nios2-elf/4.1.2/../../../../nios2-elf/lib\libc.a(lib_a-strncmp.o)
 .data          0x0084d4d0        0x0 j:/altera/13.0sp1/nios2eds/bin/gnu/h-i686-mingw32/bin/../lib/gcc/nios2-elf/4.1.2/../../../../nios2-elf/lib\libc.a(lib_a-strncpy.o)
 .data          0x0084d4d0        0x0 j:/altera/13.0sp1/nios2eds/bin/gnu/h-i686-mingw32/bin/../lib/gcc/nios2-elf/4.1.2/../../../../nios2-elf/lib\libc.a(lib_a-strtol.o)
 .data          0x0084d4d0        0x0 j:/altera/13.0sp1/nios2eds/bin/gnu/h-i686-mingw32/bin/../lib/gcc/nios2-elf/4.1.2/../../../../nios2-elf/lib\libc.a(lib_a-vprintf.o)
 .data          0x0084d4d0        0x0 j:/altera/13.0sp1/nios2eds/bin/gnu/h-i686-mingw32/bin/../lib/gcc/nios2-elf/4.1.2/../../../../nios2-elf/lib\libc.a(lib_a-vsprintf.o)
 .data          0x0084d4d0        0x0 j:/altera/13.0sp1/nios2eds/bin/gnu/h-i686-mingw32/bin/../lib/gcc/nios2-elf/4.1.2/../../../../nios2-elf/lib\libc.a(lib_a-__atexit.o)
                0x008554d0                _gp = ABSOLUTE ((. + 0x8000))
                0x008554d0                PROVIDE (gp, _gp)
 *(.rwdata .rwdata.*)
 *(.sdata .sdata.* .gnu.linkonce.s.*)
 .sdata         0x0084d4d0        0x4 j:/altera/13.0sp1/nios2eds/bin/gnu/h-i686-mingw32/bin/../lib/gcc/nios2-elf/4.1.2/../../../../nios2-elf/lib\libc.a(lib_a-ctype_.o)
                0x0084d4d0                __ctype_ptr
 .sdata         0x0084d4d4        0x8 j:/altera/13.0sp1/nios2eds/bin/gnu/h-i686-mingw32/bin/../lib/gcc/nios2-elf/4.1.2/../../../../nios2-elf/lib\libc.a(lib_a-impure.o)
                0x0084d4d4                _impure_ptr
                0x0084d4d8                _global_impure_ptr
 .sdata         0x0084d4dc        0x8 j:/altera/13.0sp1/nios2eds/bin/gnu/h-i686-mingw32/bin/../lib/gcc/nios2-elf/4.1.2/../../../../nios2-elf/lib\libc.a(lib_a-locale.o)
                0x0084d4dc                __mb_cur_max
 .sdata         0x0084d4e4        0x8 j:/altera/13.0sp1/nios2eds/bin/gnu/h-i686-mingw32/bin/../lib/gcc/nios2-elf/4.1.2/../../../../nios2-elf/lib\libc.a(lib_a-mallocr.o)
                0x0084d4e4                __malloc_trim_threshold
                0x0084d4e8                __malloc_sbrk_base
 .sdata         0x0084d4ec        0x8 ../simple_socket_bsp/\libucosii_bsp.a(alt_flash_dev.o)
                0x0084d4ec                alt_flash_dev_list
 .sdata         0x0084d4f4        0x4 ../simple_socket_bsp/\libucosii_bsp.a(alt_irq_vars.o)
                0x0084d4f4                alt_priority_mask
 .sdata         0x0084d4f8        0x4 ../simple_socket_bsp/\libucosii_bsp.a(alt_sbrk.o)
 .sdata         0x0084d4fc        0x4 ../simple_socket_bsp/\libucosii_bsp.a(alt_env_lock.o)
 .sdata         0x0084d500        0x4 ../simple_socket_bsp/\libucosii_bsp.a(alt_malloc_lock.o)
 .sdata         0x0084d504       0x74 ../simple_socket_bsp/\libucosii_bsp.a(os_dbg.o)
                0x0084d504                OSDebugEn
                0x0084d508                OSEndiannessTest
                0x0084d50c                OSEventEn
                0x0084d50e                OSEventMax
                0x0084d510                OSEventNameSize
                0x0084d512                OSEventSize
                0x0084d514                OSEventTblSize
                0x0084d516                OSEventMultiEn
                0x0084d518                OSFlagEn
                0x0084d51a                OSFlagGrpSize
                0x0084d51c                OSFlagNodeSize
                0x0084d51e                OSFlagWidth
                0x0084d520                OSFlagMax
                0x0084d522                OSFlagNameSize
                0x0084d524                OSLowestPrio
                0x0084d526                OSMboxEn
                0x0084d528                OSMemEn
                0x0084d52a                OSMemMax
                0x0084d52c                OSMemNameSize
                0x0084d52e                OSMemSize
                0x0084d530                OSMemTblSize
                0x0084d532                OSMutexEn
                0x0084d534                OSPtrSize
                0x0084d536                OSQEn
                0x0084d538                OSQMax
                0x0084d53a                OSQSize
                0x0084d53c                OSRdyTblSize
                0x0084d53e                OSSemEn
                0x0084d540                OSStkWidth
                0x0084d542                OSTaskCreateEn
                0x0084d544                OSTaskCreateExtEn
                0x0084d546                OSTaskDelEn
                0x0084d548                OSTaskIdleStkSize
                0x0084d54a                OSTaskProfileEn
                0x0084d54c                OSTaskMax
                0x0084d54e                OSTaskNameSize
                0x0084d550                OSTaskStatEn
                0x0084d552                OSTaskStatStkSize
                0x0084d554                OSTaskStatStkChkEn
                0x0084d556                OSTaskSwHookEn
                0x0084d558                OSTCBPrioTblMax
                0x0084d55a                OSTCBSize
                0x0084d55c                OSTicksPerSec
                0x0084d55e                OSTimeTickHookEn
                0x0084d560                OSVersionNbr
                0x0084d562                OSTmrEn
                0x0084d564                OSTmrCfgMax
                0x0084d566                OSTmrCfgNameSize
                0x0084d568                OSTmrCfgWheelSize
                0x0084d56a                OSTmrCfgTicksPerSec
                0x0084d56c                OSTmrSize
                0x0084d56e                OSTmrTblSize
                0x0084d570                OSTmrWheelSize
                0x0084d572                OSTmrWheelTblSize
                0x0084d574                OSDataSize
 .sdata         0x0084d578        0x4 ../simple_socket_bsp/\libucosii_bsp.a(altera_avalon_lcd_16207.o)
 .sdata         0x0084d57c        0x8 ../simple_socket_bsp/\libucosii_bsp.a(alt_iniche_dev.o)
                0x0084d57c                alt_iniche_dev_list
 .sdata         0x0084d584        0x4 ../simple_socket_bsp/\libucosii_bsp.a(ipstart.o)
                0x0084d584                ipmcfail_str
 .sdata         0x0084d588        0x4 ../simple_socket_bsp/\libucosii_bsp.a(cksum.o)
 .sdata         0x0084d58c        0x4 ../simple_socket_bsp/\libucosii_bsp.a(netmain.o)
                0x0084d58c                num_net_tasks
 .sdata         0x0084d590        0x4 ../simple_socket_bsp/\libucosii_bsp.a(parseip.o)
                0x0084d590                pton_error
 .sdata         0x0084d594        0xc ../simple_socket_bsp/\libucosii_bsp.a(dhcpclnt.o)
                0x0084d594                xids
                0x0084d598                reqlist
                0x0084d59c                reqlist_len
 .sdata         0x0084d5a0       0x10 ../simple_socket_bsp/\libucosii_bsp.a(pktalloc.o)
                0x0084d5a0                lilbufs
                0x0084d5a4                lilbufsiz
                0x0084d5a8                bigbufs
                0x0084d5ac                bigbufsiz
 .sdata         0x0084d5b0        0x4 ../simple_socket_bsp/\libucosii_bsp.a(brdutils.o)
                0x0084d5b0                kb_last
 .sdata         0x0084d5b4        0x4 ../simple_socket_bsp/\libucosii_bsp.a(nptcp.o)
                0x0084d5b4                TCPTV_MSL
 .sdata         0x0084d5b8        0x2 ../simple_socket_bsp/\libucosii_bsp.a(socket.o)
                0x0084d5b8                socket_defaults
 .sdata         0x0084d5ba        0x1 ../simple_socket_bsp/\libucosii_bsp.a(tcp_in.o)
                0x0084d5ba                tcprexmtthresh
 *fill*         0x0084d5bb        0x1 00
 .sdata         0x0084d5bc        0x4 ../simple_socket_bsp/\libucosii_bsp.a(tcp_subr.o)
                0x0084d5bc                tcp_ttl
 .sdata         0x0084d5c0        0x8 ../simple_socket_bsp/\libucosii_bsp.a(tcp_timr.o)
                0x0084d5c0                tcp_keepidle
                0x0084d5c4                tcp_keepintvl
 .sdata         0x0084d5c8        0x8 ../simple_socket_bsp/\libucosii_bsp.a(tcp_usr.o)
                0x0084d5c8                tcp_sendspace
                0x0084d5cc                tcp_recvspace
 .sdata         0x0084d5d0       0x14 ../simple_socket_bsp/\libucosii_bsp.a(alt_dev.o)
                0x0084d5d0                alt_fs_list
                0x0084d5d8                alt_dev_list
                0x0084d5e0                alt_max_fd
 .sdata         0x0084d5e4        0x4 ../simple_socket_bsp/\libucosii_bsp.a(alt_errno.o)
                0x0084d5e4                alt_errno
 .sdata         0x0084d5e8        0x8 ../simple_socket_bsp/\libucosii_bsp.a(alt_tick.o)
                0x0084d5e8                alt_alarm_list
 .sdata         0x0084d5f0       0x10 ../simple_socket_bsp/\libucosii_bsp.a(allports.o)
                0x0084d5f0                name
                0x0084d5f4                prompt
                0x0084d5f8                pingdelay
                0x0084d5fc                deflength
 .sdata         0x0084d600        0x4 ../simple_socket_bsp/\libucosii_bsp.a(et_arp.o)
                0x0084d600                arp_ageout
 .sdata         0x0084d604        0x8 ../simple_socket_bsp/\libucosii_bsp.a(ip.o)
                0x0084d608                ipRoutes
 .sdata         0x0084d60c        0x4 ../simple_socket_bsp/\libucosii_bsp.a(u_mctest.o)
 .sdata         0x0084d610        0x4 ../simple_socket_bsp/\libucosii_bsp.a(memdev.o)
                0x0084d610                mdlist_size
 .sdata         0x0084d614        0x4 ../simple_socket_bsp/\libucosii_bsp.a(vfsfiles.o)
                0x0084d614                http_root_path
 *(.sdata2 .sdata2.* .gnu.linkonce.s2.*)
                0x0084d618                . = ALIGN (0x4)
                0x0084d618                _edata = ABSOLUTE (.)
                0x0084d618                PROVIDE (edata, ABSOLUTE (.))
                0x0084d618                PROVIDE (__ram_rwdata_end, ABSOLUTE (.))
                0x0084b4dc                PROVIDE (__flash_rwdata_start, LOADADDR (.rwdata))

.bss            0x0084d618     0xaa24
                0x0084d618                __bss_start = ABSOLUTE (.)
                0x0084d618                PROVIDE (__sbss_start, ABSOLUTE (.))
                0x0084d618                PROVIDE (___sbss_start, ABSOLUTE (.))
 *(.dynsbss)
 *(.sbss .sbss.* .gnu.linkonce.sb.*)
 .sbss          0x0084d618        0x8 obj/default/SSS_DE2_115.o
                0x0084d618                last_flash_sector_offset
                0x0084d61c                last_flash_sector
 .sbss          0x0084d620        0x8 obj/default/dm9000a.o
                0x0084d620                autoReset
                0x0084d624                netisrs
 .sbss          0x0084d628        0x1 obj/default/iniche_init.o
                0x0084d628                to_ssstask
 *fill*         0x0084d629        0x3 00
 .sbss          0x0084d62c       0x10 obj/default/simple_socket_server.o
                0x0084d630                SSSLEDCommandQ
                0x0084d634                SSSLEDLightshowSem
                0x0084d638                SSSLEDEventFlag
 .sbss          0x0084d63c        0xc j:/altera/13.0sp1/nios2eds/bin/gnu/h-i686-mingw32/bin/../lib/gcc/nios2-elf/4.1.2/../../../../nios2-elf/lib\libc.a(lib_a-locale.o)
                0x0084d63c                __nlocale_changed
                0x0084d640                __mlocale_changed
                0x0084d644                _PathLocale
 .sbss          0x0084d648        0xc j:/altera/13.0sp1/nios2eds/bin/gnu/h-i686-mingw32/bin/../lib/gcc/nios2-elf/4.1.2/../../../../nios2-elf/lib\libc.a(lib_a-mallocr.o)
                0x0084d648                __malloc_top_pad
                0x0084d64c                __malloc_max_sbrked_mem
                0x0084d650                __malloc_max_total_mem
 .sbss          0x0084d654        0x4 j:/altera/13.0sp1/nios2eds/bin/gnu/h-i686-mingw32/bin/../lib/gcc/nios2-elf/4.1.2/../../../../nios2-elf/lib\libc.a(lib_a-int_errno.o)
                0x0084d654                errno
 .sbss          0x0084d658        0x4 ../simple_socket_bsp/\libucosii_bsp.a(alt_irq_vars.o)
                0x0084d658                alt_irq_active
 .sbss          0x0084d65c        0xc ../simple_socket_bsp/\libucosii_bsp.a(alt_main.o)
                0x0084d65c                alt_argc
                0x0084d660                alt_argv
                0x0084d664                alt_envp
 .sbss          0x0084d668        0x8 ../simple_socket_bsp/\libucosii_bsp.a(alt_env_lock.o)
                0x0084d66c                alt_envsem
 .sbss          0x0084d670        0x8 ../simple_socket_bsp/\libucosii_bsp.a(alt_malloc_lock.o)
                0x0084d674                alt_heapsem
 .sbss          0x0084d678       0x50 ../simple_socket_bsp/\libucosii_bsp.a(os_core.o)
                0x0084d678                OSLockNesting
                0x0084d679                OSRunning
                0x0084d67c                OSIdleCtr
                0x0084d680                OSPrioHighRdy
                0x0084d681                OSPrioCur
                0x0084d684                OSTCBList
                0x0084d688                OSTickStepState
                0x0084d68c                OSCtxSwCtr
                0x0084d690                OSIdleCtrMax
                0x0084d694                OSTCBFreeList
                0x0084d698                OSCPUUsage
                0x0084d699                OSTaskCtr
                0x0084d69c                OSMemFreeList
                0x0084d6a0                OSTCBHighRdy
                0x0084d6a4                OSQFreeList
                0x0084d6a8                OSRdyGrp
                0x0084d6a9                OSRdyTbl
                0x0084d6ac                OSEventFreeList
                0x0084d6b0                OSIntNesting
                0x0084d6b4                OSTCBCur
                0x0084d6b8                OSTime
                0x0084d6bc                OSFlagFreeList
                0x0084d6c0                OSStatRdy
                0x0084d6c4                OSIdleCtrRun
 .sbss          0x0084d6c8        0xc ../simple_socket_bsp/\libucosii_bsp.a(ipnet.o)
                0x0084d6c8                MaxLnh
                0x0084d6cc                MaxMtu
                0x0084d6d0                NDEBUG
 .sbss          0x0084d6d4        0x8 ../simple_socket_bsp/\libucosii_bsp.a(ipstart.o)
                0x0084d6d4                ifNumber
 .sbss          0x0084d6dc       0x10 ../simple_socket_bsp/\libucosii_bsp.a(igmp_cmn.o)
                0x0084d6dc                igmp_timers_are_running
                0x0084d6e0                igmp_cticks
                0x0084d6e4                igmp_all_hosts_group
                0x0084d6e8                igmp_all_rtrs_group
 .sbss          0x0084d6ec        0xe ../simple_socket_bsp/\libucosii_bsp.a(netmain.o)
                0x0084d6ec                netmain_wakes
                0x0084d6f0                nettick_wakes
                0x0084d6f4                iniche_net_ready
                0x0084d6f8                to_netmain
                0x0084d6f9                to_nettick
 *fill*         0x0084d6fa        0x2 00
 .sbss          0x0084d6fc        0x4 ../simple_socket_bsp/\libucosii_bsp.a(tk_crnos.o)
                0x0084d6fc                tcp_sleep_timeout
 .sbss          0x0084d700       0x34 ../simple_socket_bsp/\libucosii_bsp.a(dhcpclnt.o)
                0x0084d700                dhc_conn
                0x0084d704                dsc_errors
                0x0084d708                dsc_discovers
                0x0084d70c                dsc_offers
                0x0084d710                dsc_requests
                0x0084d714                dsc_acks
                0x0084d718                dsc_bpreplys
                0x0084d71c                dsc_declines
                0x0084d720                dsc_releases
                0x0084d724                dsc_naks
                0x0084d728                dsc_renew
                0x0084d72c                dsc_rebind
                0x0084d730                dsc_rlyerrs
 .sbss          0x0084d734        0x4 ../simple_socket_bsp/\libucosii_bsp.a(udp_open.o)
                0x0084d734                firstudp
 .sbss          0x0084d738       0x18 ../simple_socket_bsp/\libucosii_bsp.a(brdutils.o)
                0x0084d73c                cticks_initialized
                0x0084d740                irq_level
                0x0084d748                cticks_factor
                0x0084d74c                OS_TPS
 .sbss          0x0084d750       0x18 ../simple_socket_bsp/\libucosii_bsp.a(osportco.o)
                0x0084d750                tcp_sleep_count
                0x0084d754                tcp_wakeup_count
                0x0084d758                netq_intmask
                0x0084d75c                old_mode
                0x0084d760                global_TCPwakeup_setIndx
                0x0084d764                cticks
 .sbss          0x0084d768        0xc ../simple_socket_bsp/\libucosii_bsp.a(targnios.o)
                0x0084d768                memtrapsize
                0x0084d76c                mheap_sem_ptr
                0x0084d770                rcvdq_sem_ptr
 .sbss          0x0084d774       0x12 ../simple_socket_bsp/\libucosii_bsp.a(nptcp.o)
                0x0084d774                nextslow
                0x0084d77c                mbstat
                0x0084d784                select_wait
 *fill*         0x0084d786        0x2 00
 .sbss          0x0084d788        0x8 ../simple_socket_bsp/\libucosii_bsp.a(tcp_in.o)
                0x0084d788                tcpprintfs
                0x0084d78c                dropline
 .sbss          0x0084d790        0x4 ../simple_socket_bsp/\libucosii_bsp.a(tcp_out.o)
                0x0084d790                tcp_optionbuf
 .sbss          0x0084d794        0x8 ../simple_socket_bsp/\libucosii_bsp.a(tcp_timr.o)
                0x0084d794                tcp_maxidle
                0x0084d798                tcp_iss
 .sbss          0x0084d79c        0x4 ../simple_socket_bsp/\libucosii_bsp.a(alt_dev.o)
                0x0084d79c                alt_fd_list_lock
 .sbss          0x0084d7a0        0x8 ../simple_socket_bsp/\libucosii_bsp.a(alt_tick.o)
                0x0084d7a0                _alt_tick_rate
                0x0084d7a4                _alt_nticks
 .sbss          0x0084d7a8        0x8 ../simple_socket_bsp/\libucosii_bsp.a(allports.o)
                0x0084d7a8                activehost
 .sbss          0x0084d7b0        0xc ../simple_socket_bsp/\libucosii_bsp.a(timeouts.o)
                0x0084d7b0                nextppp
                0x0084d7b4                port_1s_callout
 .sbss          0x0084d7bc       0x1c ../simple_socket_bsp/\libucosii_bsp.a(et_arp.o)
                0x0084d7c0                arpcache
                0x0084d7c4                arpReqsIn
                0x0084d7c8                arpReqsOut
                0x0084d7cc                arpRepsIn
                0x0084d7d0                arpRepsOut
 .sbss          0x0084d7d8        0x4 ../simple_socket_bsp/\libucosii_bsp.a(ip.o)
                0x0084d7d8                rt_mib
 .sbss          0x0084d7dc        0xc ../simple_socket_bsp/\libucosii_bsp.a(ip_reasm.o)
                0x0084d7dc                ipr_curr_mem
                0x0084d7e0                h_ireq
                0x0084d7e4                ire_cticks
 .sbss          0x0084d7e8       0x11 ../simple_socket_bsp/\libucosii_bsp.a(ipport.o)
                0x0084d7e8                port_prep
                0x0084d7ec                net_system_exit
                0x0084d7f0                so_evtmap_create
                0x0084d7f4                so_evtmap_delete
                0x0084d7f8                so_evtmap
 *fill*         0x0084d7f9        0x3 00
 .sbss          0x0084d7fc        0x4 ../simple_socket_bsp/\libucosii_bsp.a(ipraw.o)
                0x0084d7fc                ipraw_eps
 .sbss          0x0084d800        0x4 ../simple_socket_bsp/\libucosii_bsp.a(iproute.o)
                0x0084d800                cachedRoute
 .sbss          0x0084d804        0x2 ../simple_socket_bsp/\libucosii_bsp.a(udp.o)
 *fill*         0x0084d806        0x2 00
 .sbss          0x0084d808        0x8 ../simple_socket_bsp/\libucosii_bsp.a(in_pcb.o)
                0x0084d808                inpcb_cachehits
                0x0084d80c                inpcb_cachemiss
 .sbss          0x0084d810       0x20 ../simple_socket_bsp/\libucosii_bsp.a(vfsfiles.o)
                0x0084d810                vfsystems
                0x0084d814                vfiles
                0x0084d818                vfsfiles
                0x0084d81c                vfopen_error
                0x0084d820                vfs_dir_stale
                0x0084d824                vfs_open_files
                0x0084d828                vfs_total_rw_space
                0x0084d82c                vfs_total_dyna_files
 .sbss          0x0084d830        0x4 ../simple_socket_bsp/\libucosii_bsp.a(icmp.o)
                0x0084d830                icmpdu_hook
 *(.sbss2 .sbss2.* .gnu.linkonce.sb2.*)
 *(.scommon)
                0x0084d834                PROVIDE (__sbss_end, ABSOLUTE (.))
                0x0084d834                PROVIDE (___sbss_end, ABSOLUTE (.))
 *(.dynbss)
 *(.bss .bss.* .gnu.linkonce.b.*)
 .bss           0x0084d834        0x0 ../simple_socket_bsp//obj/HAL/src/crt0.o
 .bss           0x0084d834        0x0 obj/default/LCD.o
 .bss           0x0084d834        0x0 obj/default/SSS_DE2_115.o
 .bss           0x0084d834        0x0 obj/default/alt_error_handler.o
 .bss           0x0084d834        0x0 obj/default/dm9000a.o
 .bss           0x0084d834        0x0 obj/default/iniche_init.o
 .bss           0x0084d834        0x0 obj/default/led.o
 .bss           0x0084d834        0x0 obj/default/network_utilities.o
 .bss           0x0084d834      0x5f0 obj/default/simple_socket_server.o
 .bss           0x0084de24        0x0 obj/default/tse_my_system.o
 .bss           0x0084de24        0x0 j:/altera/13.0sp1/nios2eds/bin/gnu/h-i686-mingw32/bin/../lib/gcc/nios2-elf/4.1.2\libgcc.a(_fixunsdfsi.o)
 .bss           0x0084de24        0x0 j:/altera/13.0sp1/nios2eds/bin/gnu/h-i686-mingw32/bin/../lib/gcc/nios2-elf/4.1.2\libgcc.a(_addsub_df.o)
 .bss           0x0084de24        0x0 j:/altera/13.0sp1/nios2eds/bin/gnu/h-i686-mingw32/bin/../lib/gcc/nios2-elf/4.1.2\libgcc.a(_mul_df.o)
 .bss           0x0084de24        0x0 j:/altera/13.0sp1/nios2eds/bin/gnu/h-i686-mingw32/bin/../lib/gcc/nios2-elf/4.1.2\libgcc.a(_ge_df.o)
 .bss           0x0084de24        0x0 j:/altera/13.0sp1/nios2eds/bin/gnu/h-i686-mingw32/bin/../lib/gcc/nios2-elf/4.1.2\libgcc.a(_df_to_si.o)
 .bss           0x0084de24        0x0 j:/altera/13.0sp1/nios2eds/bin/gnu/h-i686-mingw32/bin/../lib/gcc/nios2-elf/4.1.2\libgcc.a(_thenan_df.o)
 .bss           0x0084de24        0x0 j:/altera/13.0sp1/nios2eds/bin/gnu/h-i686-mingw32/bin/../lib/gcc/nios2-elf/4.1.2\libgcc.a(_usi_to_df.o)
 .bss           0x0084de24        0x0 j:/altera/13.0sp1/nios2eds/bin/gnu/h-i686-mingw32/bin/../lib/gcc/nios2-elf/4.1.2\libgcc.a(_muldi3.o)
 .bss           0x0084de24        0x0 j:/altera/13.0sp1/nios2eds/bin/gnu/h-i686-mingw32/bin/../lib/gcc/nios2-elf/4.1.2\libgcc.a(_clzsi2.o)
 .bss           0x0084de24        0x0 j:/altera/13.0sp1/nios2eds/bin/gnu/h-i686-mingw32/bin/../lib/gcc/nios2-elf/4.1.2\libgcc.a(_pack_df.o)
 .bss           0x0084de24        0x0 j:/altera/13.0sp1/nios2eds/bin/gnu/h-i686-mingw32/bin/../lib/gcc/nios2-elf/4.1.2\libgcc.a(_unpack_df.o)
 .bss           0x0084de24        0x0 j:/altera/13.0sp1/nios2eds/bin/gnu/h-i686-mingw32/bin/../lib/gcc/nios2-elf/4.1.2\libgcc.a(_fpcmp_parts_df.o)
 .bss           0x0084de24        0x0 j:/altera/13.0sp1/nios2eds/bin/gnu/h-i686-mingw32/bin/../lib/gcc/nios2-elf/4.1.2\libgcc.a(_clz.o)
 .bss           0x0084de24        0x0 j:/altera/13.0sp1/nios2eds/bin/gnu/h-i686-mingw32/bin/../lib/gcc/nios2-elf/4.1.2/../../../../nios2-elf/lib\libc.a(lib_a-ctype_.o)
 .bss           0x0084de24        0x0 j:/altera/13.0sp1/nios2eds/bin/gnu/h-i686-mingw32/bin/../lib/gcc/nios2-elf/4.1.2/../../../../nios2-elf/lib\libc.a(lib_a-exit.o)
 .bss           0x0084de24        0x0 j:/altera/13.0sp1/nios2eds/bin/gnu/h-i686-mingw32/bin/../lib/gcc/nios2-elf/4.1.2/../../../../nios2-elf/lib\libc.a(lib_a-fprintf.o)
 .bss           0x0084de24        0x0 j:/altera/13.0sp1/nios2eds/bin/gnu/h-i686-mingw32/bin/../lib/gcc/nios2-elf/4.1.2/../../../../nios2-elf/lib\libc.a(lib_a-fwrite.o)
 .bss           0x0084de24        0x0 j:/altera/13.0sp1/nios2eds/bin/gnu/h-i686-mingw32/bin/../lib/gcc/nios2-elf/4.1.2/../../../../nios2-elf/lib\libc.a(lib_a-getc.o)
 .bss           0x0084de24        0x0 j:/altera/13.0sp1/nios2eds/bin/gnu/h-i686-mingw32/bin/../lib/gcc/nios2-elf/4.1.2/../../../../nios2-elf/lib\libc.a(lib_a-impure.o)
 .bss           0x0084de24        0x0 j:/altera/13.0sp1/nios2eds/bin/gnu/h-i686-mingw32/bin/../lib/gcc/nios2-elf/4.1.2/../../../../nios2-elf/lib\libc.a(lib_a-memcpy.o)
 .bss           0x0084de24        0x0 j:/altera/13.0sp1/nios2eds/bin/gnu/h-i686-mingw32/bin/../lib/gcc/nios2-elf/4.1.2/../../../../nios2-elf/lib\libc.a(lib_a-memmove.o)
 .bss           0x0084de24        0x0 j:/altera/13.0sp1/nios2eds/bin/gnu/h-i686-mingw32/bin/../lib/gcc/nios2-elf/4.1.2/../../../../nios2-elf/lib\libc.a(lib_a-memset.o)
 .bss           0x0084de24        0x0 j:/altera/13.0sp1/nios2eds/bin/gnu/h-i686-mingw32/bin/../lib/gcc/nios2-elf/4.1.2/../../../../nios2-elf/lib\libc.a(lib_a-perror.o)
 .bss           0x0084de24        0x0 j:/altera/13.0sp1/nios2eds/bin/gnu/h-i686-mingw32/bin/../lib/gcc/nios2-elf/4.1.2/../../../../nios2-elf/lib\libc.a(lib_a-printf.o)
 .bss           0x0084de24        0x0 j:/altera/13.0sp1/nios2eds/bin/gnu/h-i686-mingw32/bin/../lib/gcc/nios2-elf/4.1.2/../../../../nios2-elf/lib\libc.a(lib_a-putc.o)
 .bss           0x0084de24        0x0 j:/altera/13.0sp1/nios2eds/bin/gnu/h-i686-mingw32/bin/../lib/gcc/nios2-elf/4.1.2/../../../../nios2-elf/lib\libc.a(lib_a-putchar.o)
 .bss           0x0084de24        0x0 j:/altera/13.0sp1/nios2eds/bin/gnu/h-i686-mingw32/bin/../lib/gcc/nios2-elf/4.1.2/../../../../nios2-elf/lib\libc.a(lib_a-puts.o)
 .bss           0x0084de24        0x0 j:/altera/13.0sp1/nios2eds/bin/gnu/h-i686-mingw32/bin/../lib/gcc/nios2-elf/4.1.2/../../../../nios2-elf/lib\libc.a(lib_a-rget.o)
 .bss           0x0084de24        0x0 j:/altera/13.0sp1/nios2eds/bin/gnu/h-i686-mingw32/bin/../lib/gcc/nios2-elf/4.1.2/../../../../nios2-elf/lib\libc.a(lib_a-strchr.o)
 .bss           0x0084de24        0x0 j:/altera/13.0sp1/nios2eds/bin/gnu/h-i686-mingw32/bin/../lib/gcc/nios2-elf/4.1.2/../../../../nios2-elf/lib\libc.a(lib_a-strerror.o)
 .bss           0x0084de24        0x0 j:/altera/13.0sp1/nios2eds/bin/gnu/h-i686-mingw32/bin/../lib/gcc/nios2-elf/4.1.2/../../../../nios2-elf/lib\libc.a(lib_a-strlen.o)
 .bss           0x0084de24        0x0 j:/altera/13.0sp1/nios2eds/bin/gnu/h-i686-mingw32/bin/../lib/gcc/nios2-elf/4.1.2/../../../../nios2-elf/lib\libc.a(lib_a-u_strerr.o)
 .bss           0x0084de24        0x0 j:/altera/13.0sp1/nios2eds/bin/gnu/h-i686-mingw32/bin/../lib/gcc/nios2-elf/4.1.2/../../../../nios2-elf/lib\libc.a(lib_a-vfprintf.o)
 .bss           0x0084de24        0x0 j:/altera/13.0sp1/nios2eds/bin/gnu/h-i686-mingw32/bin/../lib/gcc/nios2-elf/4.1.2/../../../../nios2-elf/lib\libc.a(lib_a-wbuf.o)
 .bss           0x0084de24        0x0 j:/altera/13.0sp1/nios2eds/bin/gnu/h-i686-mingw32/bin/../lib/gcc/nios2-elf/4.1.2/../../../../nios2-elf/lib\libc.a(lib_a-wsetup.o)
 .bss           0x0084de24        0x0 j:/altera/13.0sp1/nios2eds/bin/gnu/h-i686-mingw32/bin/../lib/gcc/nios2-elf/4.1.2/../../../../nios2-elf/lib\libc.a(lib_a-__call_atexit.o)
 .bss           0x0084de24        0x0 j:/altera/13.0sp1/nios2eds/bin/gnu/h-i686-mingw32/bin/../lib/gcc/nios2-elf/4.1.2/../../../../nios2-elf/lib\libc.a(lib_a-dtoa.o)
 .bss           0x0084de24        0x0 j:/altera/13.0sp1/nios2eds/bin/gnu/h-i686-mingw32/bin/../lib/gcc/nios2-elf/4.1.2/../../../../nios2-elf/lib\libc.a(lib_a-fflush.o)
 .bss           0x0084de24        0x0 j:/altera/13.0sp1/nios2eds/bin/gnu/h-i686-mingw32/bin/../lib/gcc/nios2-elf/4.1.2/../../../../nios2-elf/lib\libc.a(lib_a-findfp.o)
 .bss           0x0084de24        0x0 j:/altera/13.0sp1/nios2eds/bin/gnu/h-i686-mingw32/bin/../lib/gcc/nios2-elf/4.1.2/../../../../nios2-elf/lib\libc.a(lib_a-fputc.o)
 .bss           0x0084de24        0x0 j:/altera/13.0sp1/nios2eds/bin/gnu/h-i686-mingw32/bin/../lib/gcc/nios2-elf/4.1.2/../../../../nios2-elf/lib\libc.a(lib_a-fputs.o)
 .bss           0x0084de24        0x0 j:/altera/13.0sp1/nios2eds/bin/gnu/h-i686-mingw32/bin/../lib/gcc/nios2-elf/4.1.2/../../../../nios2-elf/lib\libc.a(lib_a-freer.o)
 .bss           0x0084de24        0x0 j:/altera/13.0sp1/nios2eds/bin/gnu/h-i686-mingw32/bin/../lib/gcc/nios2-elf/4.1.2/../../../../nios2-elf/lib\libc.a(lib_a-fvwrite.o)
 .bss           0x0084de24        0x0 j:/altera/13.0sp1/nios2eds/bin/gnu/h-i686-mingw32/bin/../lib/gcc/nios2-elf/4.1.2/../../../../nios2-elf/lib\libc.a(lib_a-fwalk.o)
 .bss           0x0084de24        0x0 j:/altera/13.0sp1/nios2eds/bin/gnu/h-i686-mingw32/bin/../lib/gcc/nios2-elf/4.1.2/../../../../nios2-elf/lib\libc.a(lib_a-locale.o)
 .bss           0x0084de24        0x0 j:/altera/13.0sp1/nios2eds/bin/gnu/h-i686-mingw32/bin/../lib/gcc/nios2-elf/4.1.2/../../../../nios2-elf/lib\libc.a(lib_a-makebuf.o)
 .bss           0x0084de24       0x28 j:/altera/13.0sp1/nios2eds/bin/gnu/h-i686-mingw32/bin/../lib/gcc/nios2-elf/4.1.2/../../../../nios2-elf/lib\libc.a(lib_a-mallocr.o)
                0x0084de24                __malloc_current_mallinfo
 .bss           0x0084de4c        0x0 j:/altera/13.0sp1/nios2eds/bin/gnu/h-i686-mingw32/bin/../lib/gcc/nios2-elf/4.1.2/../../../../nios2-elf/lib\libc.a(lib_a-memchr.o)
 .bss           0x0084de4c        0x0 j:/altera/13.0sp1/nios2eds/bin/gnu/h-i686-mingw32/bin/../lib/gcc/nios2-elf/4.1.2/../../../../nios2-elf/lib\libc.a(lib_a-mprec.o)
 .bss           0x0084de4c        0x0 j:/altera/13.0sp1/nios2eds/bin/gnu/h-i686-mingw32/bin/../lib/gcc/nios2-elf/4.1.2/../../../../nios2-elf/lib\libc.a(lib_a-reallocr.o)
 .bss           0x0084de4c        0x0 j:/altera/13.0sp1/nios2eds/bin/gnu/h-i686-mingw32/bin/../lib/gcc/nios2-elf/4.1.2/../../../../nios2-elf/lib\libc.a(lib_a-refill.o)
 .bss           0x0084de4c        0x0 j:/altera/13.0sp1/nios2eds/bin/gnu/h-i686-mingw32/bin/../lib/gcc/nios2-elf/4.1.2/../../../../nios2-elf/lib\libc.a(lib_a-s_isinfd.o)
 .bss           0x0084de4c        0x0 j:/altera/13.0sp1/nios2eds/bin/gnu/h-i686-mingw32/bin/../lib/gcc/nios2-elf/4.1.2/../../../../nios2-elf/lib\libc.a(lib_a-s_isnand.o)
 .bss           0x0084de4c        0x0 j:/altera/13.0sp1/nios2eds/bin/gnu/h-i686-mingw32/bin/../lib/gcc/nios2-elf/4.1.2/../../../../nios2-elf/lib\libc.a(lib_a-sbrkr.o)
 .bss           0x0084de4c        0x0 j:/altera/13.0sp1/nios2eds/bin/gnu/h-i686-mingw32/bin/../lib/gcc/nios2-elf/4.1.2/../../../../nios2-elf/lib\libc.a(lib_a-stdio.o)
 .bss           0x0084de4c        0x0 j:/altera/13.0sp1/nios2eds/bin/gnu/h-i686-mingw32/bin/../lib/gcc/nios2-elf/4.1.2/../../../../nios2-elf/lib\libc.a(lib_a-strcmp.o)
 .bss           0x0084de4c        0x0 j:/altera/13.0sp1/nios2eds/bin/gnu/h-i686-mingw32/bin/../lib/gcc/nios2-elf/4.1.2/../../../../nios2-elf/lib\libc.a(lib_a-writer.o)
 .bss           0x0084de4c        0x0 j:/altera/13.0sp1/nios2eds/bin/gnu/h-i686-mingw32/bin/../lib/gcc/nios2-elf/4.1.2/../../../../nios2-elf/lib\libc.a(lib_a-callocr.o)
 .bss           0x0084de4c        0x0 j:/altera/13.0sp1/nios2eds/bin/gnu/h-i686-mingw32/bin/../lib/gcc/nios2-elf/4.1.2/../../../../nios2-elf/lib\libc.a(lib_a-closer.o)
 .bss           0x0084de4c        0x0 j:/altera/13.0sp1/nios2eds/bin/gnu/h-i686-mingw32/bin/../lib/gcc/nios2-elf/4.1.2/../../../../nios2-elf/lib\libc.a(lib_a-fclose.o)
 .bss           0x0084de4c        0x0 j:/altera/13.0sp1/nios2eds/bin/gnu/h-i686-mingw32/bin/../lib/gcc/nios2-elf/4.1.2/../../../../nios2-elf/lib\libc.a(lib_a-fstatr.o)
 .bss           0x0084de4c        0x0 j:/altera/13.0sp1/nios2eds/bin/gnu/h-i686-mingw32/bin/../lib/gcc/nios2-elf/4.1.2/../../../../nios2-elf/lib\libc.a(lib_a-int_errno.o)
 .bss           0x0084de4c        0x0 j:/altera/13.0sp1/nios2eds/bin/gnu/h-i686-mingw32/bin/../lib/gcc/nios2-elf/4.1.2/../../../../nios2-elf/lib\libc.a(lib_a-isattyr.o)
 .bss           0x0084de4c        0x0 j:/altera/13.0sp1/nios2eds/bin/gnu/h-i686-mingw32/bin/../lib/gcc/nios2-elf/4.1.2/../../../../nios2-elf/lib\libc.a(lib_a-lseekr.o)
 .bss           0x0084de4c        0x0 j:/altera/13.0sp1/nios2eds/bin/gnu/h-i686-mingw32/bin/../lib/gcc/nios2-elf/4.1.2/../../../../nios2-elf/lib\libc.a(lib_a-readr.o)
 .bss           0x0084de4c        0x0 j:/altera/13.0sp1/nios2eds/bin/gnu/h-i686-mingw32/bin/../lib/gcc/nios2-elf/4.1.2\libgcc.a(_udivdi3.o)
 .bss           0x0084de4c        0x0 j:/altera/13.0sp1/nios2eds/bin/gnu/h-i686-mingw32/bin/../lib/gcc/nios2-elf/4.1.2\libgcc.a(_umoddi3.o)
 .bss           0x0084de4c        0x0 j:/altera/13.0sp1/nios2eds/bin/gnu/h-i686-mingw32/bin/../lib/gcc/nios2-elf/4.1.2\libgcc.a(_div_df.o)
 .bss           0x0084de4c        0x0 j:/altera/13.0sp1/nios2eds/bin/gnu/h-i686-mingw32/bin/../lib/gcc/nios2-elf/4.1.2\libgcc.a(_eq_df.o)
 .bss           0x0084de4c        0x0 j:/altera/13.0sp1/nios2eds/bin/gnu/h-i686-mingw32/bin/../lib/gcc/nios2-elf/4.1.2\libgcc.a(_ne_df.o)
 .bss           0x0084de4c        0x0 j:/altera/13.0sp1/nios2eds/bin/gnu/h-i686-mingw32/bin/../lib/gcc/nios2-elf/4.1.2\libgcc.a(_gt_df.o)
 .bss           0x0084de4c        0x0 j:/altera/13.0sp1/nios2eds/bin/gnu/h-i686-mingw32/bin/../lib/gcc/nios2-elf/4.1.2\libgcc.a(_lt_df.o)
 .bss           0x0084de4c        0x0 j:/altera/13.0sp1/nios2eds/bin/gnu/h-i686-mingw32/bin/../lib/gcc/nios2-elf/4.1.2\libgcc.a(_si_to_df.o)
 .bss           0x0084de4c        0x0 j:/altera/13.0sp1/nios2eds/bin/gnu/h-i686-mingw32/bin/../lib/gcc/nios2-elf/4.1.2\libgcc.a(lib2-divmod.o)
 .bss           0x0084de4c        0x0 ../simple_socket_bsp/\libucosii_bsp.a(alt_exit.o)
 .bss           0x0084de4c        0x0 ../simple_socket_bsp/\libucosii_bsp.a(alt_flash_dev.o)
 .bss           0x0084de4c        0x0 ../simple_socket_bsp/\libucosii_bsp.a(alt_fstat.o)
 .bss           0x0084de4c        0x0 ../simple_socket_bsp/\libucosii_bsp.a(alt_irq_register.o)
 .bss           0x0084de4c        0x0 ../simple_socket_bsp/\libucosii_bsp.a(alt_irq_vars.o)
 .bss           0x0084de4c        0x0 ../simple_socket_bsp/\libucosii_bsp.a(alt_isatty.o)
 .bss           0x0084de4c        0x0 ../simple_socket_bsp/\libucosii_bsp.a(alt_lseek.o)
 .bss           0x0084de4c        0x0 ../simple_socket_bsp/\libucosii_bsp.a(alt_main.o)
 .bss           0x0084de4c        0x0 ../simple_socket_bsp/\libucosii_bsp.a(alt_sbrk.o)
 .bss           0x0084de4c        0x0 ../simple_socket_bsp/\libucosii_bsp.a(alt_usleep.o)
 .bss           0x0084de4c        0x0 ../simple_socket_bsp/\libucosii_bsp.a(alt_env_lock.o)
 .bss           0x0084de4c        0x0 ../simple_socket_bsp/\libucosii_bsp.a(alt_malloc_lock.o)
 .bss           0x0084de4c        0x0 ../simple_socket_bsp/\libucosii_bsp.a(os_core.o)
 .bss           0x0084de4c        0x0 ../simple_socket_bsp/\libucosii_bsp.a(os_dbg.o)
 .bss           0x0084de4c        0x0 ../simple_socket_bsp/\libucosii_bsp.a(os_flag.o)
 .bss           0x0084de4c        0x0 ../simple_socket_bsp/\libucosii_bsp.a(os_mem.o)
 .bss           0x0084de4c        0x0 ../simple_socket_bsp/\libucosii_bsp.a(os_q.o)
 .bss           0x0084de4c        0x0 ../simple_socket_bsp/\libucosii_bsp.a(os_sem.o)
 .bss           0x0084de4c        0x0 ../simple_socket_bsp/\libucosii_bsp.a(os_task.o)
 .bss           0x0084de4c        0x0 ../simple_socket_bsp/\libucosii_bsp.a(os_time.o)
 .bss           0x0084de4c        0x0 ../simple_socket_bsp/\libucosii_bsp.a(alt_sys_init.o)
 .bss           0x0084de4c        0x0 ../simple_socket_bsp/\libucosii_bsp.a(altera_avalon_cfi_flash.o)
 .bss           0x0084de4c        0x0 ../simple_socket_bsp/\libucosii_bsp.a(altera_avalon_cfi_flash_table.o)
 .bss           0x0084de4c        0x0 ../simple_socket_bsp/\libucosii_bsp.a(altera_avalon_epcs_flash_controller.o)
 .bss           0x0084de4c        0x0 ../simple_socket_bsp/\libucosii_bsp.a(altera_avalon_jtag_uart_fd.o)
 .bss           0x0084de4c        0x0 ../simple_socket_bsp/\libucosii_bsp.a(altera_avalon_jtag_uart_init.o)
 .bss           0x0084de4c        0x0 ../simple_socket_bsp/\libucosii_bsp.a(altera_avalon_jtag_uart_ioctl.o)
 .bss           0x0084de4c        0x0 ../simple_socket_bsp/\libucosii_bsp.a(altera_avalon_jtag_uart_read.o)
 .bss           0x0084de4c        0x0 ../simple_socket_bsp/\libucosii_bsp.a(altera_avalon_jtag_uart_write.o)
 .bss           0x0084de4c        0x0 ../simple_socket_bsp/\libucosii_bsp.a(altera_avalon_lcd_16207.o)
 .bss           0x0084de4c        0x0 ../simple_socket_bsp/\libucosii_bsp.a(altera_avalon_lcd_16207_fd.o)
 .bss           0x0084de4c        0x0 ../simple_socket_bsp/\libucosii_bsp.a(altera_avalon_timer_sc.o)
 .bss           0x0084de4c        0x0 ../simple_socket_bsp/\libucosii_bsp.a(altera_avalon_uart_fd.o)
 .bss           0x0084de4c        0x0 ../simple_socket_bsp/\libucosii_bsp.a(altera_avalon_uart_init.o)
 .bss           0x0084de4c        0x0 ../simple_socket_bsp/\libucosii_bsp.a(altera_avalon_uart_read.o)
 .bss           0x0084de4c        0x0 ../simple_socket_bsp/\libucosii_bsp.a(altera_avalon_uart_write.o)
 .bss           0x0084de4c        0x0 ../simple_socket_bsp/\libucosii_bsp.a(epcs_commands.o)
 .bss           0x0084de4c        0x0 ../simple_socket_bsp/\libucosii_bsp.a(alt_iniche_close.o)
 .bss           0x0084de4c        0x0 ../simple_socket_bsp/\libucosii_bsp.a(alt_iniche_dev.o)
 .bss           0x0084de4c        0x0 ../simple_socket_bsp/\libucosii_bsp.a(alt_iniche_read.o)
 .bss           0x0084de4c        0x0 ../simple_socket_bsp/\libucosii_bsp.a(alt_iniche_write.o)
 .bss           0x0084de4c        0x0 ../simple_socket_bsp/\libucosii_bsp.a(ipnet.o)
 .bss           0x0084de4c       0x3c ../simple_socket_bsp/\libucosii_bsp.a(ipstart.o)
 .bss           0x0084de88        0x0 ../simple_socket_bsp/\libucosii_bsp.a(igmp_cmn.o)
 .bss           0x0084de88        0x0 ../simple_socket_bsp/\libucosii_bsp.a(bsdsock.o)
 .bss           0x0084de88        0x0 ../simple_socket_bsp/\libucosii_bsp.a(cksum.o)
 .bss           0x0084de88       0x18 ../simple_socket_bsp/\libucosii_bsp.a(in_utils.o)
 .bss           0x0084dea0        0x0 ../simple_socket_bsp/\libucosii_bsp.a(netmain.o)
 .bss           0x0084dea0       0x1e ../simple_socket_bsp/\libucosii_bsp.a(parseip.o)
 .bss           0x0084debe        0x0 ../simple_socket_bsp/\libucosii_bsp.a(tk_crnos.o)
 .bss           0x0084debe        0x0 ../simple_socket_bsp/\libucosii_bsp.a(dhcpclnt.o)
 .bss           0x0084debe        0x0 ../simple_socket_bsp/\libucosii_bsp.a(dhcputil.o)
 .bss           0x0084debe        0x0 ../simple_socket_bsp/\libucosii_bsp.a(pktalloc.o)
 .bss           0x0084debe        0x0 ../simple_socket_bsp/\libucosii_bsp.a(q.o)
 .bss           0x0084debe        0x0 ../simple_socket_bsp/\libucosii_bsp.a(udp_open.o)
 .bss           0x0084debe        0x0 ../simple_socket_bsp/\libucosii_bsp.a(asm_cksum.o)
 .bss           0x0084debe        0x0 ../simple_socket_bsp/\libucosii_bsp.a(brdutils.o)
 .bss           0x0084debe        0x0 ../simple_socket_bsp/\libucosii_bsp.a(osportco.o)
 .bss           0x0084debe        0x0 ../simple_socket_bsp/\libucosii_bsp.a(targnios.o)
 .bss           0x0084debe        0x0 ../simple_socket_bsp/\libucosii_bsp.a(nptcp.o)
 .bss           0x0084debe        0x0 ../simple_socket_bsp/\libucosii_bsp.a(rawsock.o)
 .bss           0x0084debe        0x0 ../simple_socket_bsp/\libucosii_bsp.a(sockcall.o)
 .bss           0x0084debe        0x0 ../simple_socket_bsp/\libucosii_bsp.a(socket.o)
 .bss           0x0084debe        0x0 ../simple_socket_bsp/\libucosii_bsp.a(socket2.o)
 .bss           0x0084debe        0x0 ../simple_socket_bsp/\libucosii_bsp.a(soselect.o)
 .bss           0x0084debe        0x0 ../simple_socket_bsp/\libucosii_bsp.a(tcp_in.o)
 .bss           0x0084debe        0x0 ../simple_socket_bsp/\libucosii_bsp.a(tcp_out.o)
 .bss           0x0084debe        0x0 ../simple_socket_bsp/\libucosii_bsp.a(tcp_subr.o)
 .bss           0x0084debe        0x0 ../simple_socket_bsp/\libucosii_bsp.a(tcp_timr.o)
 .bss           0x0084debe        0x0 ../simple_socket_bsp/\libucosii_bsp.a(tcp_usr.o)
 .bss           0x0084debe        0x0 ../simple_socket_bsp/\libucosii_bsp.a(tcpport.o)
 .bss           0x0084debe        0x0 ../simple_socket_bsp/\libucosii_bsp.a(udpsock.o)
 .bss           0x0084debe        0x0 ../simple_socket_bsp/\libucosii_bsp.a(alt_alarm_start.o)
 .bss           0x0084debe        0x0 ../simple_socket_bsp/\libucosii_bsp.a(alt_busy_sleep.o)
 .bss           0x0084debe        0x0 ../simple_socket_bsp/\libucosii_bsp.a(alt_close.o)
 .bss           0x0084debe        0x0 ../simple_socket_bsp/\libucosii_bsp.a(alt_dcache_flush.o)
 .bss           0x0084debe        0x0 ../simple_socket_bsp/\libucosii_bsp.a(alt_dev.o)
 .bss           0x0084debe        0x0 ../simple_socket_bsp/\libucosii_bsp.a(alt_dev_llist_insert.o)
 .bss           0x0084debe        0x0 ../simple_socket_bsp/\libucosii_bsp.a(alt_do_ctors.o)
 .bss           0x0084debe        0x0 ../simple_socket_bsp/\libucosii_bsp.a(alt_do_dtors.o)
 .bss           0x0084debe        0x0 ../simple_socket_bsp/\libucosii_bsp.a(alt_errno.o)
 .bss           0x0084debe        0x0 ../simple_socket_bsp/\libucosii_bsp.a(alt_find_dev.o)
 .bss           0x0084debe        0x0 ../simple_socket_bsp/\libucosii_bsp.a(alt_iic.o)
 .bss           0x0084debe        0x0 ../simple_socket_bsp/\libucosii_bsp.a(alt_iic_isr_register.o)
 .bss           0x0084debe        0x0 ../simple_socket_bsp/\libucosii_bsp.a(alt_io_redirect.o)
 .bss           0x0084debe        0x0 ../simple_socket_bsp/\libucosii_bsp.a(alt_irq_entry.o)
 .bss           0x0084debe        0x0 ../simple_socket_bsp/\libucosii_bsp.a(alt_irq_handler.o)
 .bss           0x0084debe        0x0 ../simple_socket_bsp/\libucosii_bsp.a(alt_open.o)
 .bss           0x0084debe        0x0 ../simple_socket_bsp/\libucosii_bsp.a(alt_read.o)
 .bss           0x0084debe        0x0 ../simple_socket_bsp/\libucosii_bsp.a(alt_release_fd.o)
 .bss           0x0084debe        0x0 ../simple_socket_bsp/\libucosii_bsp.a(alt_remap_cached.o)
 .bss           0x0084debe        0x0 ../simple_socket_bsp/\libucosii_bsp.a(alt_remap_uncached.o)
 .bss           0x0084debe        0x0 ../simple_socket_bsp/\libucosii_bsp.a(alt_tick.o)
 .bss           0x0084debe        0x0 ../simple_socket_bsp/\libucosii_bsp.a(alt_write.o)
 .bss           0x0084debe        0x0 ../simple_socket_bsp/\libucosii_bsp.a(altera_nios2_qsys_irq.o)
 .bss           0x0084debe        0x0 ../simple_socket_bsp/\libucosii_bsp.a(os_cpu_a.o)
 .bss           0x0084debe        0x0 ../simple_socket_bsp/\libucosii_bsp.a(os_cpu_c.o)
 .bss           0x0084debe        0x0 ../simple_socket_bsp/\libucosii_bsp.a(altera_avalon_cfi_flash_amd.o)
 .bss           0x0084debe        0x0 ../simple_socket_bsp/\libucosii_bsp.a(altera_avalon_cfi_flash_intel.o)
 .bss           0x0084debe        0x0 ../simple_socket_bsp/\libucosii_bsp.a(altera_avalon_spi.o)
 .bss           0x0084debe        0x0 ../simple_socket_bsp/\libucosii_bsp.a(allports.o)
 .bss           0x0084debe        0x0 ../simple_socket_bsp/\libucosii_bsp.a(timeouts.o)
 .bss           0x0084debe        0x0 ../simple_socket_bsp/\libucosii_bsp.a(tk_misc.o)
 .bss           0x0084debe        0x0 ../simple_socket_bsp/\libucosii_bsp.a(alt_iniche_fcntl.o)
 .bss           0x0084debe        0x0 ../simple_socket_bsp/\libucosii_bsp.a(et_arp.o)
 .bss           0x0084debe        0x0 ../simple_socket_bsp/\libucosii_bsp.a(iface.o)
 .bss           0x0084debe        0x0 ../simple_socket_bsp/\libucosii_bsp.a(ip.o)
 .bss           0x0084debe        0x0 ../simple_socket_bsp/\libucosii_bsp.a(ip_reasm.o)
 .bss           0x0084debe        0x0 ../simple_socket_bsp/\libucosii_bsp.a(ipdemux.o)
 .bss           0x0084debe        0x0 ../simple_socket_bsp/\libucosii_bsp.a(ipmc.o)
 .bss           0x0084debe        0x0 ../simple_socket_bsp/\libucosii_bsp.a(ipport.o)
 .bss           0x0084debe        0x0 ../simple_socket_bsp/\libucosii_bsp.a(ipraw.o)
 .bss           0x0084debe        0x0 ../simple_socket_bsp/\libucosii_bsp.a(iproute.o)
 .bss           0x0084debe        0x0 ../simple_socket_bsp/\libucosii_bsp.a(udp.o)
 .bss           0x0084debe        0x0 ../simple_socket_bsp/\libucosii_bsp.a(igmp.o)
 .bss           0x0084debe        0x0 ../simple_socket_bsp/\libucosii_bsp.a(igmp2.o)
 .bss           0x0084debe        0x0 ../simple_socket_bsp/\libucosii_bsp.a(ipopt.o)
 .bss           0x0084debe        0x0 ../simple_socket_bsp/\libucosii_bsp.a(u_mctest.o)
 .bss           0x0084debe        0x0 ../simple_socket_bsp/\libucosii_bsp.a(dhcsetup.o)
 .bss           0x0084debe        0x0 ../simple_socket_bsp/\libucosii_bsp.a(memdev.o)
 .bss           0x0084debe        0x0 ../simple_socket_bsp/\libucosii_bsp.a(tcpcksum.o)
 .bss           0x0084debe        0x0 ../simple_socket_bsp/\libucosii_bsp.a(in_pcb.o)
 .bss           0x0084debe        0x0 ../simple_socket_bsp/\libucosii_bsp.a(vfsfiles.o)
 .bss           0x0084debe        0x0 ../simple_socket_bsp/\libucosii_bsp.a(vfsport.o)
 .bss           0x0084debe        0x0 ../simple_socket_bsp/\libucosii_bsp.a(alt_exception_entry.o)
 .bss           0x0084debe        0x0 ../simple_socket_bsp/\libucosii_bsp.a(alt_fcntl.o)
 .bss           0x0084debe        0x0 ../simple_socket_bsp/\libucosii_bsp.a(alt_find_file.o)
 .bss           0x0084debe        0x0 ../simple_socket_bsp/\libucosii_bsp.a(alt_get_fd.o)
 .bss           0x0084debe        0x0 ../simple_socket_bsp/\libucosii_bsp.a(icmp.o)
 .bss           0x0084debe        0x0 j:/altera/13.0sp1/nios2eds/bin/gnu/h-i686-mingw32/bin/../lib/gcc/nios2-elf/4.1.2/../../../../nios2-elf/lib\libc.a(lib_a-atexit.o)
 .bss           0x0084debe        0x0 j:/altera/13.0sp1/nios2eds/bin/gnu/h-i686-mingw32/bin/../lib/gcc/nios2-elf/4.1.2/../../../../nios2-elf/lib\libc.a(lib_a-atoi.o)
 .bss           0x0084debe        0x0 j:/altera/13.0sp1/nios2eds/bin/gnu/h-i686-mingw32/bin/../lib/gcc/nios2-elf/4.1.2/../../../../nios2-elf/lib\libc.a(lib_a-calloc.o)
 .bss           0x0084debe        0x0 j:/altera/13.0sp1/nios2eds/bin/gnu/h-i686-mingw32/bin/../lib/gcc/nios2-elf/4.1.2/../../../../nios2-elf/lib\libc.a(lib_a-malloc.o)
 .bss           0x0084debe        0x0 j:/altera/13.0sp1/nios2eds/bin/gnu/h-i686-mingw32/bin/../lib/gcc/nios2-elf/4.1.2/../../../../nios2-elf/lib\libc.a(lib_a-memcmp.o)
 .bss           0x0084debe        0x0 j:/altera/13.0sp1/nios2eds/bin/gnu/h-i686-mingw32/bin/../lib/gcc/nios2-elf/4.1.2/../../../../nios2-elf/lib\libc.a(lib_a-sprintf.o)
 .bss           0x0084debe        0x0 j:/altera/13.0sp1/nios2eds/bin/gnu/h-i686-mingw32/bin/../lib/gcc/nios2-elf/4.1.2/../../../../nios2-elf/lib\libc.a(lib_a-strcpy.o)
 .bss           0x0084debe        0x0 j:/altera/13.0sp1/nios2eds/bin/gnu/h-i686-mingw32/bin/../lib/gcc/nios2-elf/4.1.2/../../../../nios2-elf/lib\libc.a(lib_a-strncmp.o)
 .bss           0x0084debe        0x0 j:/altera/13.0sp1/nios2eds/bin/gnu/h-i686-mingw32/bin/../lib/gcc/nios2-elf/4.1.2/../../../../nios2-elf/lib\libc.a(lib_a-strncpy.o)
 .bss           0x0084debe        0x0 j:/altera/13.0sp1/nios2eds/bin/gnu/h-i686-mingw32/bin/../lib/gcc/nios2-elf/4.1.2/../../../../nios2-elf/lib\libc.a(lib_a-strtol.o)
 .bss           0x0084debe        0x0 j:/altera/13.0sp1/nios2eds/bin/gnu/h-i686-mingw32/bin/../lib/gcc/nios2-elf/4.1.2/../../../../nios2-elf/lib\libc.a(lib_a-vprintf.o)
 .bss           0x0084debe        0x0 j:/altera/13.0sp1/nios2eds/bin/gnu/h-i686-mingw32/bin/../lib/gcc/nios2-elf/4.1.2/../../../../nios2-elf/lib\libc.a(lib_a-vsprintf.o)
 .bss           0x0084debe        0x0 j:/altera/13.0sp1/nios2eds/bin/gnu/h-i686-mingw32/bin/../lib/gcc/nios2-elf/4.1.2/../../../../nios2-elf/lib\libc.a(lib_a-__atexit.o)
 *(COMMON)
 *fill*         0x0084debe        0x2 00
 COMMON         0x0084dec0       0x44 obj/default/dm9000a.o
                0x0084dec0                g_dm9ka
 COMMON         0x0084df04     0x2000 obj/default/iniche_init.o
                0x0084df04                SSSInitialTaskStk
 COMMON         0x0084ff04     0x4078 obj/default/simple_socket_server.o
                0x0084ff04                LED7SegLightshowTaskStk
                0x00851f04                SSSLEDCommandQTbl
                0x00851f7c                LEDManagementTaskStk
 COMMON         0x00853f7c     0x3224 ../simple_socket_bsp/\libucosii_bsp.a(os_core.o)
                0x00853f7c                OSFlagTbl
                0x008542ec                OSMemTbl
                0x00854f1c                OSTaskStatStk
                0x0085571c                OSQTbl
                0x008558fc                OSTaskIdleStk
                0x008560fc                OSEventTbl
                0x00856c3c                OSTCBTbl
                0x0085714c                OSTCBPrioTbl
 COMMON         0x008571a0       0x14 ../simple_socket_bsp/\libucosii_bsp.a(ipnet.o)
                0x008571a0                rcvdq
 COMMON         0x008571b4      0x310 ../simple_socket_bsp/\libucosii_bsp.a(ipstart.o)
                0x008571b4                netstatic
                0x008574b4                nets
 COMMON         0x008574c4       0x64 ../simple_socket_bsp/\libucosii_bsp.a(igmp_cmn.o)
                0x008574c4                igmpstats
 COMMON         0x00857528       0x24 ../simple_socket_bsp/\libucosii_bsp.a(in_utils.o)
                0x00857528                eth_prt_buf
                0x0085753a                ipreturn
 COMMON         0x0085754c       0xf0 ../simple_socket_bsp/\libucosii_bsp.a(dhcpclnt.o)
                0x0085754c                dhc_states
 COMMON         0x0085763c      0x128 ../simple_socket_bsp/\libucosii_bsp.a(pktalloc.o)
                0x0085763c                lilfreeq
                0x00857650                memestats
                0x00857660                pktlog
                0x00857750                bigfreeq
 COMMON         0x00857764      0x1ec ../simple_socket_bsp/\libucosii_bsp.a(osportco.o)
                0x00857764                global_tcb_ext
                0x00857860                global_TCPwakeup_set
 COMMON         0x00857950       0x58 ../simple_socket_bsp/\libucosii_bsp.a(targnios.o)
                0x00857950                resid_semaphore
                0x00857990                app_semaphore
 COMMON         0x008579a8       0x78 ../simple_socket_bsp/\libucosii_bsp.a(nptcp.o)
                0x008579a8                soq
                0x008579bc                tcpmib
                0x008579f8                mbufq
                0x00857a0c                mfreeq
 COMMON         0x00857a20       0x28 ../simple_socket_bsp/\libucosii_bsp.a(tcp_in.o)
                0x00857a20                tcp_saveti
 COMMON         0x00857a48      0x10c ../simple_socket_bsp/\libucosii_bsp.a(tcp_subr.o)
                0x00857a48                tcb
                0x00857a74                tcpstat
 COMMON         0x00857b54      0x100 ../simple_socket_bsp/\libucosii_bsp.a(alt_irq_handler.o)
                0x00857b54                alt_irq
 COMMON         0x00857c54       0x64 ../simple_socket_bsp/\libucosii_bsp.a(timeouts.o)
                0x00857c54                intimers
 COMMON         0x00857cb8      0x100 ../simple_socket_bsp/\libucosii_bsp.a(et_arp.o)
                0x00857cb8                arp_table
 COMMON         0x00857db8       0x14 ../simple_socket_bsp/\libucosii_bsp.a(iface.o)
                0x00857db8                netlist
 COMMON         0x00857dcc       0x50 ../simple_socket_bsp/\libucosii_bsp.a(ip.o)
                0x00857dcc                ip_mib
 COMMON         0x00857e1c       0x18 ../simple_socket_bsp/\libucosii_bsp.a(ip_reasm.o)
                0x00857e1c                ire_stats
 COMMON         0x00857e34       0x10 ../simple_socket_bsp/\libucosii_bsp.a(udp.o)
                0x00857e34                udp_mib
 COMMON         0x00857e44       0x68 ../simple_socket_bsp/\libucosii_bsp.a(icmp.o)
                0x00857e44                icmp_mib
 COMMON         0x00857eac      0x190 j:/altera/13.0sp1/nios2eds/bin/gnu/h-i686-mingw32/bin/../lib/gcc/nios2-elf/4.1.2/../../../../nios2-elf/lib\libc.a(lib_a-atexit.o)
                0x00857eac                _atexit0
                0x0085803c                . = ALIGN (0x4)
                0x0085803c                __bss_end = ABSOLUTE (.)

.sdram_0        0x0085803c        0x0
                0x0085803c                PROVIDE (_alt_partition_sdram_0_start, ABSOLUTE (.))
 *(.sdram_0. sdram_0.*)
                0x0085803c                . = ALIGN (0x4)
                0x0085803c                PROVIDE (_alt_partition_sdram_0_end, ABSOLUTE (.))
                0x0085803c                _end = ABSOLUTE (.)
                0x0085803c                end = ABSOLUTE (.)
                0x0085803c                __alt_stack_base = ABSOLUTE (.)
                0x0085803c                PROVIDE (_alt_partition_sdram_0_load_addr, LOADADDR (.sdram_0))

.cfi_flash_0    0x01400020        0x0
                0x01400020                PROVIDE (_alt_partition_cfi_flash_0_start, ABSOLUTE (.))
 *(.cfi_flash_0. cfi_flash_0.*)
                0x01400020                . = ALIGN (0x4)
                0x01400020                PROVIDE (_alt_partition_cfi_flash_0_end, ABSOLUTE (.))
                0x01400020                PROVIDE (_alt_partition_cfi_flash_0_load_addr, LOADADDR (.cfi_flash_0))

.sram_0         0x01a00000        0x0
                0x01a00000                PROVIDE (_alt_partition_sram_0_start, ABSOLUTE (.))
 *(.sram_0. sram_0.*)
                0x01a00000                . = ALIGN (0x4)
                0x01a00000                PROVIDE (_alt_partition_sram_0_end, ABSOLUTE (.))
                0x01a00000                PROVIDE (_alt_partition_sram_0_load_addr, LOADADDR (.sram_0))

.epcs_controller
                0x01a81800        0x0
                0x01a81800                PROVIDE (_alt_partition_epcs_controller_start, ABSOLUTE (.))
 *(.epcs_controller. epcs_controller.*)
                0x01a81800                . = ALIGN (0x4)
                0x01a81800                PROVIDE (_alt_partition_epcs_controller_end, ABSOLUTE (.))
                0x01a81800                PROVIDE (_alt_partition_epcs_controller_load_addr, LOADADDR (.epcs_controller))

.stab
 *(.stab)

.stabstr
 *(.stabstr)

.stab.excl
 *(.stab.excl)

.stab.exclstr
 *(.stab.exclstr)

.stab.index
 *(.stab.index)

.stab.indexstr
 *(.stab.indexstr)

.comment        0x00000000       0x26
 *(.comment)
 .comment       0x00000000       0x26 obj/default/LCD.o
                                 0x27 (size before relaxing)
 .comment       0x00000000       0x27 obj/default/SSS_DE2_115.o
 .comment       0x00000000       0x27 obj/default/alt_error_handler.o
 .comment       0x00000000       0x27 obj/default/dm9000a.o
 .comment       0x00000000       0x27 obj/default/iniche_init.o
 .comment       0x00000000       0x27 obj/default/led.o
 .comment       0x00000000       0x27 obj/default/network_utilities.o
 .comment       0x00000000       0x27 obj/default/simple_socket_server.o
 .comment       0x00000000       0x27 obj/default/tse_my_system.o
 .comment       0x00000000       0x27 j:/altera/13.0sp1/nios2eds/bin/gnu/h-i686-mingw32/bin/../lib/gcc/nios2-elf/4.1.2\libgcc.a(_fixunsdfsi.o)
 .comment       0x00000000       0x27 j:/altera/13.0sp1/nios2eds/bin/gnu/h-i686-mingw32/bin/../lib/gcc/nios2-elf/4.1.2\libgcc.a(_addsub_df.o)
 .comment       0x00000000       0x27 j:/altera/13.0sp1/nios2eds/bin/gnu/h-i686-mingw32/bin/../lib/gcc/nios2-elf/4.1.2\libgcc.a(_mul_df.o)
 .comment       0x00000000       0x27 j:/altera/13.0sp1/nios2eds/bin/gnu/h-i686-mingw32/bin/../lib/gcc/nios2-elf/4.1.2\libgcc.a(_ge_df.o)
 .comment       0x00000000       0x27 j:/altera/13.0sp1/nios2eds/bin/gnu/h-i686-mingw32/bin/../lib/gcc/nios2-elf/4.1.2\libgcc.a(_df_to_si.o)
 .comment       0x00000000       0x27 j:/altera/13.0sp1/nios2eds/bin/gnu/h-i686-mingw32/bin/../lib/gcc/nios2-elf/4.1.2\libgcc.a(_thenan_df.o)
 .comment       0x00000000       0x27 j:/altera/13.0sp1/nios2eds/bin/gnu/h-i686-mingw32/bin/../lib/gcc/nios2-elf/4.1.2\libgcc.a(_usi_to_df.o)
 .comment       0x00000000       0x27 j:/altera/13.0sp1/nios2eds/bin/gnu/h-i686-mingw32/bin/../lib/gcc/nios2-elf/4.1.2\libgcc.a(_muldi3.o)
 .comment       0x00000000       0x27 j:/altera/13.0sp1/nios2eds/bin/gnu/h-i686-mingw32/bin/../lib/gcc/nios2-elf/4.1.2\libgcc.a(_clzsi2.o)
 .comment       0x00000000       0x27 j:/altera/13.0sp1/nios2eds/bin/gnu/h-i686-mingw32/bin/../lib/gcc/nios2-elf/4.1.2\libgcc.a(_pack_df.o)
 .comment       0x00000000       0x27 j:/altera/13.0sp1/nios2eds/bin/gnu/h-i686-mingw32/bin/../lib/gcc/nios2-elf/4.1.2\libgcc.a(_unpack_df.o)
 .comment       0x00000000       0x27 j:/altera/13.0sp1/nios2eds/bin/gnu/h-i686-mingw32/bin/../lib/gcc/nios2-elf/4.1.2\libgcc.a(_fpcmp_parts_df.o)
 .comment       0x00000000       0x27 j:/altera/13.0sp1/nios2eds/bin/gnu/h-i686-mingw32/bin/../lib/gcc/nios2-elf/4.1.2\libgcc.a(_clz.o)
 .comment       0x00000000       0x27 j:/altera/13.0sp1/nios2eds/bin/gnu/h-i686-mingw32/bin/../lib/gcc/nios2-elf/4.1.2/../../../../nios2-elf/lib\libc.a(lib_a-ctype_.o)
 .comment       0x00000000       0x27 j:/altera/13.0sp1/nios2eds/bin/gnu/h-i686-mingw32/bin/../lib/gcc/nios2-elf/4.1.2/../../../../nios2-elf/lib\libc.a(lib_a-exit.o)
 .comment       0x00000000       0x27 j:/altera/13.0sp1/nios2eds/bin/gnu/h-i686-mingw32/bin/../lib/gcc/nios2-elf/4.1.2/../../../../nios2-elf/lib\libc.a(lib_a-fprintf.o)
 .comment       0x00000000       0x27 j:/altera/13.0sp1/nios2eds/bin/gnu/h-i686-mingw32/bin/../lib/gcc/nios2-elf/4.1.2/../../../../nios2-elf/lib\libc.a(lib_a-fwrite.o)
 .comment       0x00000000       0x27 j:/altera/13.0sp1/nios2eds/bin/gnu/h-i686-mingw32/bin/../lib/gcc/nios2-elf/4.1.2/../../../../nios2-elf/lib\libc.a(lib_a-getc.o)
 .comment       0x00000000       0x27 j:/altera/13.0sp1/nios2eds/bin/gnu/h-i686-mingw32/bin/../lib/gcc/nios2-elf/4.1.2/../../../../nios2-elf/lib\libc.a(lib_a-impure.o)
 .comment       0x00000000       0x27 j:/altera/13.0sp1/nios2eds/bin/gnu/h-i686-mingw32/bin/../lib/gcc/nios2-elf/4.1.2/../../../../nios2-elf/lib\libc.a(lib_a-memcpy.o)
 .comment       0x00000000       0x27 j:/altera/13.0sp1/nios2eds/bin/gnu/h-i686-mingw32/bin/../lib/gcc/nios2-elf/4.1.2/../../../../nios2-elf/lib\libc.a(lib_a-memmove.o)
 .comment       0x00000000       0x27 j:/altera/13.0sp1/nios2eds/bin/gnu/h-i686-mingw32/bin/../lib/gcc/nios2-elf/4.1.2/../../../../nios2-elf/lib\libc.a(lib_a-memset.o)
 .comment       0x00000000       0x27 j:/altera/13.0sp1/nios2eds/bin/gnu/h-i686-mingw32/bin/../lib/gcc/nios2-elf/4.1.2/../../../../nios2-elf/lib\libc.a(lib_a-perror.o)
 .comment       0x00000000       0x27 j:/altera/13.0sp1/nios2eds/bin/gnu/h-i686-mingw32/bin/../lib/gcc/nios2-elf/4.1.2/../../../../nios2-elf/lib\libc.a(lib_a-printf.o)
 .comment       0x00000000       0x27 j:/altera/13.0sp1/nios2eds/bin/gnu/h-i686-mingw32/bin/../lib/gcc/nios2-elf/4.1.2/../../../../nios2-elf/lib\libc.a(lib_a-putc.o)
 .comment       0x00000000       0x27 j:/altera/13.0sp1/nios2eds/bin/gnu/h-i686-mingw32/bin/../lib/gcc/nios2-elf/4.1.2/../../../../nios2-elf/lib\libc.a(lib_a-putchar.o)
 .comment       0x00000000       0x27 j:/altera/13.0sp1/nios2eds/bin/gnu/h-i686-mingw32/bin/../lib/gcc/nios2-elf/4.1.2/../../../../nios2-elf/lib\libc.a(lib_a-puts.o)
 .comment       0x00000000       0x27 j:/altera/13.0sp1/nios2eds/bin/gnu/h-i686-mingw32/bin/../lib/gcc/nios2-elf/4.1.2/../../../../nios2-elf/lib\libc.a(lib_a-rget.o)
 .comment       0x00000000       0x27 j:/altera/13.0sp1/nios2eds/bin/gnu/h-i686-mingw32/bin/../lib/gcc/nios2-elf/4.1.2/../../../../nios2-elf/lib\libc.a(lib_a-strchr.o)
 .comment       0x00000000       0x27 j:/altera/13.0sp1/nios2eds/bin/gnu/h-i686-mingw32/bin/../lib/gcc/nios2-elf/4.1.2/../../../../nios2-elf/lib\libc.a(lib_a-strerror.o)
 .comment       0x00000000       0x27 j:/altera/13.0sp1/nios2eds/bin/gnu/h-i686-mingw32/bin/../lib/gcc/nios2-elf/4.1.2/../../../../nios2-elf/lib\libc.a(lib_a-strlen.o)
 .comment       0x00000000       0x27 j:/altera/13.0sp1/nios2eds/bin/gnu/h-i686-mingw32/bin/../lib/gcc/nios2-elf/4.1.2/../../../../nios2-elf/lib\libc.a(lib_a-u_strerr.o)
 .comment       0x00000000       0x27 j:/altera/13.0sp1/nios2eds/bin/gnu/h-i686-mingw32/bin/../lib/gcc/nios2-elf/4.1.2/../../../../nios2-elf/lib\libc.a(lib_a-vfprintf.o)
 .comment       0x00000000       0x27 j:/altera/13.0sp1/nios2eds/bin/gnu/h-i686-mingw32/bin/../lib/gcc/nios2-elf/4.1.2/../../../../nios2-elf/lib\libc.a(lib_a-wbuf.o)
 .comment       0x00000000       0x27 j:/altera/13.0sp1/nios2eds/bin/gnu/h-i686-mingw32/bin/../lib/gcc/nios2-elf/4.1.2/../../../../nios2-elf/lib\libc.a(lib_a-wsetup.o)
 .comment       0x00000000       0x27 j:/altera/13.0sp1/nios2eds/bin/gnu/h-i686-mingw32/bin/../lib/gcc/nios2-elf/4.1.2/../../../../nios2-elf/lib\libc.a(lib_a-__call_atexit.o)
 .comment       0x00000000       0x27 j:/altera/13.0sp1/nios2eds/bin/gnu/h-i686-mingw32/bin/../lib/gcc/nios2-elf/4.1.2/../../../../nios2-elf/lib\libc.a(lib_a-dtoa.o)
 .comment       0x00000000       0x27 j:/altera/13.0sp1/nios2eds/bin/gnu/h-i686-mingw32/bin/../lib/gcc/nios2-elf/4.1.2/../../../../nios2-elf/lib\libc.a(lib_a-fflush.o)
 .comment       0x00000000       0x27 j:/altera/13.0sp1/nios2eds/bin/gnu/h-i686-mingw32/bin/../lib/gcc/nios2-elf/4.1.2/../../../../nios2-elf/lib\libc.a(lib_a-findfp.o)
 .comment       0x00000000       0x27 j:/altera/13.0sp1/nios2eds/bin/gnu/h-i686-mingw32/bin/../lib/gcc/nios2-elf/4.1.2/../../../../nios2-elf/lib\libc.a(lib_a-fputc.o)
 .comment       0x00000000       0x27 j:/altera/13.0sp1/nios2eds/bin/gnu/h-i686-mingw32/bin/../lib/gcc/nios2-elf/4.1.2/../../../../nios2-elf/lib\libc.a(lib_a-fputs.o)
 .comment       0x00000000       0x27 j:/altera/13.0sp1/nios2eds/bin/gnu/h-i686-mingw32/bin/../lib/gcc/nios2-elf/4.1.2/../../../../nios2-elf/lib\libc.a(lib_a-freer.o)
 .comment       0x00000000       0x27 j:/altera/13.0sp1/nios2eds/bin/gnu/h-i686-mingw32/bin/../lib/gcc/nios2-elf/4.1.2/../../../../nios2-elf/lib\libc.a(lib_a-fvwrite.o)
 .comment       0x00000000       0x27 j:/altera/13.0sp1/nios2eds/bin/gnu/h-i686-mingw32/bin/../lib/gcc/nios2-elf/4.1.2/../../../../nios2-elf/lib\libc.a(lib_a-fwalk.o)
 .comment       0x00000000       0x27 j:/altera/13.0sp1/nios2eds/bin/gnu/h-i686-mingw32/bin/../lib/gcc/nios2-elf/4.1.2/../../../../nios2-elf/lib\libc.a(lib_a-locale.o)
 .comment       0x00000000       0x27 j:/altera/13.0sp1/nios2eds/bin/gnu/h-i686-mingw32/bin/../lib/gcc/nios2-elf/4.1.2/../../../../nios2-elf/lib\libc.a(lib_a-makebuf.o)
 .comment       0x00000000       0x27 j:/altera/13.0sp1/nios2eds/bin/gnu/h-i686-mingw32/bin/../lib/gcc/nios2-elf/4.1.2/../../../../nios2-elf/lib\libc.a(lib_a-mallocr.o)
 .comment       0x00000000       0x27 j:/altera/13.0sp1/nios2eds/bin/gnu/h-i686-mingw32/bin/../lib/gcc/nios2-elf/4.1.2/../../../../nios2-elf/lib\libc.a(lib_a-memchr.o)
 .comment       0x00000000       0x27 j:/altera/13.0sp1/nios2eds/bin/gnu/h-i686-mingw32/bin/../lib/gcc/nios2-elf/4.1.2/../../../../nios2-elf/lib\libc.a(lib_a-mprec.o)
 .comment       0x00000000       0x27 j:/altera/13.0sp1/nios2eds/bin/gnu/h-i686-mingw32/bin/../lib/gcc/nios2-elf/4.1.2/../../../../nios2-elf/lib\libc.a(lib_a-reallocr.o)
 .comment       0x00000000       0x27 j:/altera/13.0sp1/nios2eds/bin/gnu/h-i686-mingw32/bin/../lib/gcc/nios2-elf/4.1.2/../../../../nios2-elf/lib\libc.a(lib_a-refill.o)
 .comment       0x00000000       0x27 j:/altera/13.0sp1/nios2eds/bin/gnu/h-i686-mingw32/bin/../lib/gcc/nios2-elf/4.1.2/../../../../nios2-elf/lib\libc.a(lib_a-s_isinfd.o)
 .comment       0x00000000       0x27 j:/altera/13.0sp1/nios2eds/bin/gnu/h-i686-mingw32/bin/../lib/gcc/nios2-elf/4.1.2/../../../../nios2-elf/lib\libc.a(lib_a-s_isnand.o)
 .comment       0x00000000       0x27 j:/altera/13.0sp1/nios2eds/bin/gnu/h-i686-mingw32/bin/../lib/gcc/nios2-elf/4.1.2/../../../../nios2-elf/lib\libc.a(lib_a-sbrkr.o)
 .comment       0x00000000       0x27 j:/altera/13.0sp1/nios2eds/bin/gnu/h-i686-mingw32/bin/../lib/gcc/nios2-elf/4.1.2/../../../../nios2-elf/lib\libc.a(lib_a-stdio.o)
 .comment       0x00000000       0x27 j:/altera/13.0sp1/nios2eds/bin/gnu/h-i686-mingw32/bin/../lib/gcc/nios2-elf/4.1.2/../../../../nios2-elf/lib\libc.a(lib_a-strcmp.o)
 .comment       0x00000000       0x27 j:/altera/13.0sp1/nios2eds/bin/gnu/h-i686-mingw32/bin/../lib/gcc/nios2-elf/4.1.2/../../../../nios2-elf/lib\libc.a(lib_a-writer.o)
 .comment       0x00000000       0x27 j:/altera/13.0sp1/nios2eds/bin/gnu/h-i686-mingw32/bin/../lib/gcc/nios2-elf/4.1.2/../../../../nios2-elf/lib\libc.a(lib_a-callocr.o)
 .comment       0x00000000       0x27 j:/altera/13.0sp1/nios2eds/bin/gnu/h-i686-mingw32/bin/../lib/gcc/nios2-elf/4.1.2/../../../../nios2-elf/lib\libc.a(lib_a-closer.o)
 .comment       0x00000000       0x27 j:/altera/13.0sp1/nios2eds/bin/gnu/h-i686-mingw32/bin/../lib/gcc/nios2-elf/4.1.2/../../../../nios2-elf/lib\libc.a(lib_a-fclose.o)
 .comment       0x00000000       0x27 j:/altera/13.0sp1/nios2eds/bin/gnu/h-i686-mingw32/bin/../lib/gcc/nios2-elf/4.1.2/../../../../nios2-elf/lib\libc.a(lib_a-fstatr.o)
 .comment       0x00000000       0x27 j:/altera/13.0sp1/nios2eds/bin/gnu/h-i686-mingw32/bin/../lib/gcc/nios2-elf/4.1.2/../../../../nios2-elf/lib\libc.a(lib_a-int_errno.o)
 .comment       0x00000000       0x27 j:/altera/13.0sp1/nios2eds/bin/gnu/h-i686-mingw32/bin/../lib/gcc/nios2-elf/4.1.2/../../../../nios2-elf/lib\libc.a(lib_a-isattyr.o)
 .comment       0x00000000       0x27 j:/altera/13.0sp1/nios2eds/bin/gnu/h-i686-mingw32/bin/../lib/gcc/nios2-elf/4.1.2/../../../../nios2-elf/lib\libc.a(lib_a-lseekr.o)
 .comment       0x00000000       0x27 j:/altera/13.0sp1/nios2eds/bin/gnu/h-i686-mingw32/bin/../lib/gcc/nios2-elf/4.1.2/../../../../nios2-elf/lib\libc.a(lib_a-readr.o)
 .comment       0x00000000       0x27 j:/altera/13.0sp1/nios2eds/bin/gnu/h-i686-mingw32/bin/../lib/gcc/nios2-elf/4.1.2\libgcc.a(_udivdi3.o)
 .comment       0x00000000       0x27 j:/altera/13.0sp1/nios2eds/bin/gnu/h-i686-mingw32/bin/../lib/gcc/nios2-elf/4.1.2\libgcc.a(_umoddi3.o)
 .comment       0x00000000       0x27 j:/altera/13.0sp1/nios2eds/bin/gnu/h-i686-mingw32/bin/../lib/gcc/nios2-elf/4.1.2\libgcc.a(_div_df.o)
 .comment       0x00000000       0x27 j:/altera/13.0sp1/nios2eds/bin/gnu/h-i686-mingw32/bin/../lib/gcc/nios2-elf/4.1.2\libgcc.a(_eq_df.o)
 .comment       0x00000000       0x27 j:/altera/13.0sp1/nios2eds/bin/gnu/h-i686-mingw32/bin/../lib/gcc/nios2-elf/4.1.2\libgcc.a(_ne_df.o)
 .comment       0x00000000       0x27 j:/altera/13.0sp1/nios2eds/bin/gnu/h-i686-mingw32/bin/../lib/gcc/nios2-elf/4.1.2\libgcc.a(_gt_df.o)
 .comment       0x00000000       0x27 j:/altera/13.0sp1/nios2eds/bin/gnu/h-i686-mingw32/bin/../lib/gcc/nios2-elf/4.1.2\libgcc.a(_lt_df.o)
 .comment       0x00000000       0x27 j:/altera/13.0sp1/nios2eds/bin/gnu/h-i686-mingw32/bin/../lib/gcc/nios2-elf/4.1.2\libgcc.a(_si_to_df.o)
 .comment       0x00000000       0x27 j:/altera/13.0sp1/nios2eds/bin/gnu/h-i686-mingw32/bin/../lib/gcc/nios2-elf/4.1.2\libgcc.a(lib2-divmod.o)
 .comment       0x00000000       0x27 ../simple_socket_bsp/\libucosii_bsp.a(alt_exit.o)
 .comment       0x00000000       0x27 ../simple_socket_bsp/\libucosii_bsp.a(alt_flash_dev.o)
 .comment       0x00000000       0x27 ../simple_socket_bsp/\libucosii_bsp.a(alt_fstat.o)
 .comment       0x00000000       0x27 ../simple_socket_bsp/\libucosii_bsp.a(alt_irq_register.o)
 .comment       0x00000000       0x27 ../simple_socket_bsp/\libucosii_bsp.a(alt_irq_vars.o)
 .comment       0x00000000       0x27 ../simple_socket_bsp/\libucosii_bsp.a(alt_isatty.o)
 .comment       0x00000000       0x27 ../simple_socket_bsp/\libucosii_bsp.a(alt_lseek.o)
 .comment       0x00000000       0x27 ../simple_socket_bsp/\libucosii_bsp.a(alt_main.o)
 .comment       0x00000000       0x27 ../simple_socket_bsp/\libucosii_bsp.a(alt_sbrk.o)
 .comment       0x00000000       0x27 ../simple_socket_bsp/\libucosii_bsp.a(alt_usleep.o)
 .comment       0x00000000       0x27 ../simple_socket_bsp/\libucosii_bsp.a(alt_env_lock.o)
 .comment       0x00000000       0x27 ../simple_socket_bsp/\libucosii_bsp.a(alt_malloc_lock.o)
 .comment       0x00000000       0x27 ../simple_socket_bsp/\libucosii_bsp.a(os_core.o)
 .comment       0x00000000       0x27 ../simple_socket_bsp/\libucosii_bsp.a(os_dbg.o)
 .comment       0x00000000       0x27 ../simple_socket_bsp/\libucosii_bsp.a(os_flag.o)
 .comment       0x00000000       0x27 ../simple_socket_bsp/\libucosii_bsp.a(os_mem.o)
 .comment       0x00000000       0x27 ../simple_socket_bsp/\libucosii_bsp.a(os_q.o)
 .comment       0x00000000       0x27 ../simple_socket_bsp/\libucosii_bsp.a(os_sem.o)
 .comment       0x00000000       0x27 ../simple_socket_bsp/\libucosii_bsp.a(os_task.o)
 .comment       0x00000000       0x27 ../simple_socket_bsp/\libucosii_bsp.a(os_time.o)
 .comment       0x00000000       0x27 ../simple_socket_bsp/\libucosii_bsp.a(alt_sys_init.o)
 .comment       0x00000000       0x27 ../simple_socket_bsp/\libucosii_bsp.a(altera_avalon_cfi_flash.o)
 .comment       0x00000000       0x27 ../simple_socket_bsp/\libucosii_bsp.a(altera_avalon_cfi_flash_table.o)
 .comment       0x00000000       0x27 ../simple_socket_bsp/\libucosii_bsp.a(altera_avalon_epcs_flash_controller.o)
 .comment       0x00000000       0x27 ../simple_socket_bsp/\libucosii_bsp.a(altera_avalon_jtag_uart_fd.o)
 .comment       0x00000000       0x27 ../simple_socket_bsp/\libucosii_bsp.a(altera_avalon_jtag_uart_init.o)
 .comment       0x00000000       0x27 ../simple_socket_bsp/\libucosii_bsp.a(altera_avalon_jtag_uart_ioctl.o)
 .comment       0x00000000       0x27 ../simple_socket_bsp/\libucosii_bsp.a(altera_avalon_jtag_uart_read.o)
 .comment       0x00000000       0x27 ../simple_socket_bsp/\libucosii_bsp.a(altera_avalon_jtag_uart_write.o)
 .comment       0x00000000       0x27 ../simple_socket_bsp/\libucosii_bsp.a(altera_avalon_lcd_16207.o)
 .comment       0x00000000       0x27 ../simple_socket_bsp/\libucosii_bsp.a(altera_avalon_lcd_16207_fd.o)
 .comment       0x00000000       0x27 ../simple_socket_bsp/\libucosii_bsp.a(altera_avalon_timer_sc.o)
 .comment       0x00000000       0x27 ../simple_socket_bsp/\libucosii_bsp.a(altera_avalon_uart_fd.o)
 .comment       0x00000000       0x27 ../simple_socket_bsp/\libucosii_bsp.a(altera_avalon_uart_init.o)
 .comment       0x00000000       0x27 ../simple_socket_bsp/\libucosii_bsp.a(altera_avalon_uart_read.o)
 .comment       0x00000000       0x27 ../simple_socket_bsp/\libucosii_bsp.a(altera_avalon_uart_write.o)
 .comment       0x00000000       0x27 ../simple_socket_bsp/\libucosii_bsp.a(epcs_commands.o)
 .comment       0x00000000       0x27 ../simple_socket_bsp/\libucosii_bsp.a(alt_iniche_close.o)
 .comment       0x00000000       0x27 ../simple_socket_bsp/\libucosii_bsp.a(alt_iniche_dev.o)
 .comment       0x00000000       0x27 ../simple_socket_bsp/\libucosii_bsp.a(alt_iniche_read.o)
 .comment       0x00000000       0x27 ../simple_socket_bsp/\libucosii_bsp.a(alt_iniche_write.o)
 .comment       0x00000000       0x27 ../simple_socket_bsp/\libucosii_bsp.a(ipnet.o)
 .comment       0x00000000       0x27 ../simple_socket_bsp/\libucosii_bsp.a(ipstart.o)
 .comment       0x00000000       0x27 ../simple_socket_bsp/\libucosii_bsp.a(igmp_cmn.o)
 .comment       0x00000000       0x27 ../simple_socket_bsp/\libucosii_bsp.a(bsdsock.o)
 .comment       0x00000000       0x27 ../simple_socket_bsp/\libucosii_bsp.a(cksum.o)
 .comment       0x00000000       0x27 ../simple_socket_bsp/\libucosii_bsp.a(in_utils.o)
 .comment       0x00000000       0x27 ../simple_socket_bsp/\libucosii_bsp.a(netmain.o)
 .comment       0x00000000       0x27 ../simple_socket_bsp/\libucosii_bsp.a(parseip.o)
 .comment       0x00000000       0x27 ../simple_socket_bsp/\libucosii_bsp.a(tk_crnos.o)
 .comment       0x00000000       0x27 ../simple_socket_bsp/\libucosii_bsp.a(dhcpclnt.o)
 .comment       0x00000000       0x27 ../simple_socket_bsp/\libucosii_bsp.a(dhcputil.o)
 .comment       0x00000000       0x27 ../simple_socket_bsp/\libucosii_bsp.a(pktalloc.o)
 .comment       0x00000000       0x27 ../simple_socket_bsp/\libucosii_bsp.a(q.o)
 .comment       0x00000000       0x27 ../simple_socket_bsp/\libucosii_bsp.a(udp_open.o)
 .comment       0x00000000       0x27 ../simple_socket_bsp/\libucosii_bsp.a(brdutils.o)
 .comment       0x00000000       0x27 ../simple_socket_bsp/\libucosii_bsp.a(osportco.o)
 .comment       0x00000000       0x27 ../simple_socket_bsp/\libucosii_bsp.a(targnios.o)
 .comment       0x00000000       0x27 ../simple_socket_bsp/\libucosii_bsp.a(nptcp.o)
 .comment       0x00000000       0x27 ../simple_socket_bsp/\libucosii_bsp.a(rawsock.o)
 .comment       0x00000000       0x27 ../simple_socket_bsp/\libucosii_bsp.a(sockcall.o)
 .comment       0x00000000       0x27 ../simple_socket_bsp/\libucosii_bsp.a(socket.o)
 .comment       0x00000000       0x27 ../simple_socket_bsp/\libucosii_bsp.a(socket2.o)
 .comment       0x00000000       0x27 ../simple_socket_bsp/\libucosii_bsp.a(soselect.o)
 .comment       0x00000000       0x27 ../simple_socket_bsp/\libucosii_bsp.a(tcp_in.o)
 .comment       0x00000000       0x27 ../simple_socket_bsp/\libucosii_bsp.a(tcp_out.o)
 .comment       0x00000000       0x27 ../simple_socket_bsp/\libucosii_bsp.a(tcp_subr.o)
 .comment       0x00000000       0x27 ../simple_socket_bsp/\libucosii_bsp.a(tcp_timr.o)
 .comment       0x00000000       0x27 ../simple_socket_bsp/\libucosii_bsp.a(tcp_usr.o)
 .comment       0x00000000       0x27 ../simple_socket_bsp/\libucosii_bsp.a(tcpport.o)
 .comment       0x00000000       0x27 ../simple_socket_bsp/\libucosii_bsp.a(udpsock.o)
 .comment       0x00000000       0x27 ../simple_socket_bsp/\libucosii_bsp.a(alt_alarm_start.o)
 .comment       0x00000000       0x27 ../simple_socket_bsp/\libucosii_bsp.a(alt_busy_sleep.o)
 .comment       0x00000000       0x27 ../simple_socket_bsp/\libucosii_bsp.a(alt_close.o)
 .comment       0x00000000       0x27 ../simple_socket_bsp/\libucosii_bsp.a(alt_dcache_flush.o)
 .comment       0x00000000       0x27 ../simple_socket_bsp/\libucosii_bsp.a(alt_dev.o)
 .comment       0x00000000       0x27 ../simple_socket_bsp/\libucosii_bsp.a(alt_dev_llist_insert.o)
 .comment       0x00000000       0x27 ../simple_socket_bsp/\libucosii_bsp.a(alt_do_ctors.o)
 .comment       0x00000000       0x27 ../simple_socket_bsp/\libucosii_bsp.a(alt_do_dtors.o)
 .comment       0x00000000       0x27 ../simple_socket_bsp/\libucosii_bsp.a(alt_errno.o)
 .comment       0x00000000       0x27 ../simple_socket_bsp/\libucosii_bsp.a(alt_find_dev.o)
 .comment       0x00000000       0x27 ../simple_socket_bsp/\libucosii_bsp.a(alt_iic.o)
 .comment       0x00000000       0x27 ../simple_socket_bsp/\libucosii_bsp.a(alt_iic_isr_register.o)
 .comment       0x00000000       0x27 ../simple_socket_bsp/\libucosii_bsp.a(alt_io_redirect.o)
 .comment       0x00000000       0x27 ../simple_socket_bsp/\libucosii_bsp.a(alt_irq_handler.o)
 .comment       0x00000000       0x27 ../simple_socket_bsp/\libucosii_bsp.a(alt_open.o)
 .comment       0x00000000       0x27 ../simple_socket_bsp/\libucosii_bsp.a(alt_read.o)
 .comment       0x00000000       0x27 ../simple_socket_bsp/\libucosii_bsp.a(alt_release_fd.o)
 .comment       0x00000000       0x27 ../simple_socket_bsp/\libucosii_bsp.a(alt_remap_cached.o)
 .comment       0x00000000       0x27 ../simple_socket_bsp/\libucosii_bsp.a(alt_remap_uncached.o)
 .comment       0x00000000       0x27 ../simple_socket_bsp/\libucosii_bsp.a(alt_tick.o)
 .comment       0x00000000       0x27 ../simple_socket_bsp/\libucosii_bsp.a(alt_write.o)
 .comment       0x00000000       0x27 ../simple_socket_bsp/\libucosii_bsp.a(altera_nios2_qsys_irq.o)
 .comment       0x00000000       0x27 ../simple_socket_bsp/\libucosii_bsp.a(os_cpu_c.o)
 .comment       0x00000000       0x27 ../simple_socket_bsp/\libucosii_bsp.a(altera_avalon_cfi_flash_amd.o)
 .comment       0x00000000       0x27 ../simple_socket_bsp/\libucosii_bsp.a(altera_avalon_cfi_flash_intel.o)
 .comment       0x00000000       0x27 ../simple_socket_bsp/\libucosii_bsp.a(altera_avalon_spi.o)
 .comment       0x00000000       0x27 ../simple_socket_bsp/\libucosii_bsp.a(allports.o)
 .comment       0x00000000       0x27 ../simple_socket_bsp/\libucosii_bsp.a(timeouts.o)
 .comment       0x00000000       0x27 ../simple_socket_bsp/\libucosii_bsp.a(tk_misc.o)
 .comment       0x00000000       0x27 ../simple_socket_bsp/\libucosii_bsp.a(alt_iniche_fcntl.o)
 .comment       0x00000000       0x27 ../simple_socket_bsp/\libucosii_bsp.a(et_arp.o)
 .comment       0x00000000       0x27 ../simple_socket_bsp/\libucosii_bsp.a(iface.o)
 .comment       0x00000000       0x27 ../simple_socket_bsp/\libucosii_bsp.a(ip.o)
 .comment       0x00000000       0x27 ../simple_socket_bsp/\libucosii_bsp.a(ip_reasm.o)
 .comment       0x00000000       0x27 ../simple_socket_bsp/\libucosii_bsp.a(ipdemux.o)
 .comment       0x00000000       0x27 ../simple_socket_bsp/\libucosii_bsp.a(ipmc.o)
 .comment       0x00000000       0x27 ../simple_socket_bsp/\libucosii_bsp.a(ipport.o)
 .comment       0x00000000       0x27 ../simple_socket_bsp/\libucosii_bsp.a(ipraw.o)
 .comment       0x00000000       0x27 ../simple_socket_bsp/\libucosii_bsp.a(iproute.o)
 .comment       0x00000000       0x27 ../simple_socket_bsp/\libucosii_bsp.a(udp.o)
 .comment       0x00000000       0x27 ../simple_socket_bsp/\libucosii_bsp.a(igmp.o)
 .comment       0x00000000       0x27 ../simple_socket_bsp/\libucosii_bsp.a(igmp2.o)
 .comment       0x00000000       0x27 ../simple_socket_bsp/\libucosii_bsp.a(ipopt.o)
 .comment       0x00000000       0x27 ../simple_socket_bsp/\libucosii_bsp.a(u_mctest.o)
 .comment       0x00000000       0x27 ../simple_socket_bsp/\libucosii_bsp.a(dhcsetup.o)
 .comment       0x00000000       0x27 ../simple_socket_bsp/\libucosii_bsp.a(memdev.o)
 .comment       0x00000000       0x27 ../simple_socket_bsp/\libucosii_bsp.a(tcpcksum.o)
 .comment       0x00000000       0x27 ../simple_socket_bsp/\libucosii_bsp.a(in_pcb.o)
 .comment       0x00000000       0x27 ../simple_socket_bsp/\libucosii_bsp.a(vfsfiles.o)
 .comment       0x00000000       0x27 ../simple_socket_bsp/\libucosii_bsp.a(vfsport.o)
 .comment       0x00000000       0x27 ../simple_socket_bsp/\libucosii_bsp.a(alt_fcntl.o)
 .comment       0x00000000       0x27 ../simple_socket_bsp/\libucosii_bsp.a(alt_find_file.o)
 .comment       0x00000000       0x27 ../simple_socket_bsp/\libucosii_bsp.a(alt_get_fd.o)
 .comment       0x00000000       0x27 ../simple_socket_bsp/\libucosii_bsp.a(icmp.o)
 .comment       0x00000000       0x27 j:/altera/13.0sp1/nios2eds/bin/gnu/h-i686-mingw32/bin/../lib/gcc/nios2-elf/4.1.2/../../../../nios2-elf/lib\libc.a(lib_a-atexit.o)
 .comment       0x00000000       0x27 j:/altera/13.0sp1/nios2eds/bin/gnu/h-i686-mingw32/bin/../lib/gcc/nios2-elf/4.1.2/../../../../nios2-elf/lib\libc.a(lib_a-atoi.o)
 .comment       0x00000000       0x27 j:/altera/13.0sp1/nios2eds/bin/gnu/h-i686-mingw32/bin/../lib/gcc/nios2-elf/4.1.2/../../../../nios2-elf/lib\libc.a(lib_a-calloc.o)
 .comment       0x00000000       0x27 j:/altera/13.0sp1/nios2eds/bin/gnu/h-i686-mingw32/bin/../lib/gcc/nios2-elf/4.1.2/../../../../nios2-elf/lib\libc.a(lib_a-malloc.o)
 .comment       0x00000000       0x27 j:/altera/13.0sp1/nios2eds/bin/gnu/h-i686-mingw32/bin/../lib/gcc/nios2-elf/4.1.2/../../../../nios2-elf/lib\libc.a(lib_a-memcmp.o)
 .comment       0x00000000       0x27 j:/altera/13.0sp1/nios2eds/bin/gnu/h-i686-mingw32/bin/../lib/gcc/nios2-elf/4.1.2/../../../../nios2-elf/lib\libc.a(lib_a-sprintf.o)
 .comment       0x00000000       0x27 j:/altera/13.0sp1/nios2eds/bin/gnu/h-i686-mingw32/bin/../lib/gcc/nios2-elf/4.1.2/../../../../nios2-elf/lib\libc.a(lib_a-strcpy.o)
 .comment       0x00000000       0x27 j:/altera/13.0sp1/nios2eds/bin/gnu/h-i686-mingw32/bin/../lib/gcc/nios2-elf/4.1.2/../../../../nios2-elf/lib\libc.a(lib_a-strncmp.o)
 .comment       0x00000000       0x27 j:/altera/13.0sp1/nios2eds/bin/gnu/h-i686-mingw32/bin/../lib/gcc/nios2-elf/4.1.2/../../../../nios2-elf/lib\libc.a(lib_a-strncpy.o)
 .comment       0x00000000       0x27 j:/altera/13.0sp1/nios2eds/bin/gnu/h-i686-mingw32/bin/../lib/gcc/nios2-elf/4.1.2/../../../../nios2-elf/lib\libc.a(lib_a-strtol.o)
 .comment       0x00000000       0x27 j:/altera/13.0sp1/nios2eds/bin/gnu/h-i686-mingw32/bin/../lib/gcc/nios2-elf/4.1.2/../../../../nios2-elf/lib\libc.a(lib_a-vprintf.o)
 .comment       0x00000000       0x27 j:/altera/13.0sp1/nios2eds/bin/gnu/h-i686-mingw32/bin/../lib/gcc/nios2-elf/4.1.2/../../../../nios2-elf/lib\libc.a(lib_a-vsprintf.o)
 .comment       0x00000000       0x27 j:/altera/13.0sp1/nios2eds/bin/gnu/h-i686-mingw32/bin/../lib/gcc/nios2-elf/4.1.2/../../../../nios2-elf/lib\libc.a(lib_a-__atexit.o)

.debug
 *(.debug)

.line
 *(.line)

.debug_srcinfo
 *(.debug_srcinfo)

.debug_sfnames
 *(.debug_sfnames)

.debug_aranges  0x00000000     0x1b70
 *(.debug_aranges)
 .debug_aranges
                0x00000000       0x20 ../simple_socket_bsp//obj/HAL/src/crt0.o
 .debug_aranges
                0x00000020       0x20 obj/default/LCD.o
 .debug_aranges
                0x00000040       0x20 obj/default/SSS_DE2_115.o
 .debug_aranges
                0x00000060       0x20 obj/default/alt_error_handler.o
 .debug_aranges
                0x00000080       0x20 obj/default/dm9000a.o
 .debug_aranges
                0x000000a0       0x20 obj/default/iniche_init.o
 .debug_aranges
                0x000000c0       0x20 obj/default/led.o
 .debug_aranges
                0x000000e0       0x20 obj/default/network_utilities.o
 .debug_aranges
                0x00000100       0x20 obj/default/simple_socket_server.o
 .debug_aranges
                0x00000120       0x20 j:/altera/13.0sp1/nios2eds/bin/gnu/h-i686-mingw32/bin/../lib/gcc/nios2-elf/4.1.2\libgcc.a(_fixunsdfsi.o)
 .debug_aranges
                0x00000140       0x20 j:/altera/13.0sp1/nios2eds/bin/gnu/h-i686-mingw32/bin/../lib/gcc/nios2-elf/4.1.2\libgcc.a(_addsub_df.o)
 .debug_aranges
                0x00000160       0x20 j:/altera/13.0sp1/nios2eds/bin/gnu/h-i686-mingw32/bin/../lib/gcc/nios2-elf/4.1.2\libgcc.a(_mul_df.o)
 .debug_aranges
                0x00000180       0x20 j:/altera/13.0sp1/nios2eds/bin/gnu/h-i686-mingw32/bin/../lib/gcc/nios2-elf/4.1.2\libgcc.a(_ge_df.o)
 .debug_aranges
                0x000001a0       0x20 j:/altera/13.0sp1/nios2eds/bin/gnu/h-i686-mingw32/bin/../lib/gcc/nios2-elf/4.1.2\libgcc.a(_df_to_si.o)
 .debug_aranges
                0x000001c0       0x20 j:/altera/13.0sp1/nios2eds/bin/gnu/h-i686-mingw32/bin/../lib/gcc/nios2-elf/4.1.2\libgcc.a(_usi_to_df.o)
 .debug_aranges
                0x000001e0       0x20 j:/altera/13.0sp1/nios2eds/bin/gnu/h-i686-mingw32/bin/../lib/gcc/nios2-elf/4.1.2\libgcc.a(_muldi3.o)
 .debug_aranges
                0x00000200       0x20 j:/altera/13.0sp1/nios2eds/bin/gnu/h-i686-mingw32/bin/../lib/gcc/nios2-elf/4.1.2\libgcc.a(_clzsi2.o)
 .debug_aranges
                0x00000220       0x20 j:/altera/13.0sp1/nios2eds/bin/gnu/h-i686-mingw32/bin/../lib/gcc/nios2-elf/4.1.2\libgcc.a(_pack_df.o)
 .debug_aranges
                0x00000240       0x20 j:/altera/13.0sp1/nios2eds/bin/gnu/h-i686-mingw32/bin/../lib/gcc/nios2-elf/4.1.2\libgcc.a(_unpack_df.o)
 .debug_aranges
                0x00000260       0x20 j:/altera/13.0sp1/nios2eds/bin/gnu/h-i686-mingw32/bin/../lib/gcc/nios2-elf/4.1.2\libgcc.a(_fpcmp_parts_df.o)
 .debug_aranges
                0x00000280       0x20 j:/altera/13.0sp1/nios2eds/bin/gnu/h-i686-mingw32/bin/../lib/gcc/nios2-elf/4.1.2/../../../../nios2-elf/lib\libc.a(lib_a-exit.o)
 .debug_aranges
                0x000002a0       0x20 j:/altera/13.0sp1/nios2eds/bin/gnu/h-i686-mingw32/bin/../lib/gcc/nios2-elf/4.1.2/../../../../nios2-elf/lib\libc.a(lib_a-fprintf.o)
 .debug_aranges
                0x000002c0       0x20 j:/altera/13.0sp1/nios2eds/bin/gnu/h-i686-mingw32/bin/../lib/gcc/nios2-elf/4.1.2/../../../../nios2-elf/lib\libc.a(lib_a-fwrite.o)
 .debug_aranges
                0x000002e0       0x20 j:/altera/13.0sp1/nios2eds/bin/gnu/h-i686-mingw32/bin/../lib/gcc/nios2-elf/4.1.2/../../../../nios2-elf/lib\libc.a(lib_a-getc.o)
 .debug_aranges
                0x00000300       0x20 j:/altera/13.0sp1/nios2eds/bin/gnu/h-i686-mingw32/bin/../lib/gcc/nios2-elf/4.1.2/../../../../nios2-elf/lib\libc.a(lib_a-memcpy.o)
 .debug_aranges
                0x00000320       0x20 j:/altera/13.0sp1/nios2eds/bin/gnu/h-i686-mingw32/bin/../lib/gcc/nios2-elf/4.1.2/../../../../nios2-elf/lib\libc.a(lib_a-memmove.o)
 .debug_aranges
                0x00000340       0x20 j:/altera/13.0sp1/nios2eds/bin/gnu/h-i686-mingw32/bin/../lib/gcc/nios2-elf/4.1.2/../../../../nios2-elf/lib\libc.a(lib_a-memset.o)
 .debug_aranges
                0x00000360       0x20 j:/altera/13.0sp1/nios2eds/bin/gnu/h-i686-mingw32/bin/../lib/gcc/nios2-elf/4.1.2/../../../../nios2-elf/lib\libc.a(lib_a-perror.o)
 .debug_aranges
                0x00000380       0x20 j:/altera/13.0sp1/nios2eds/bin/gnu/h-i686-mingw32/bin/../lib/gcc/nios2-elf/4.1.2/../../../../nios2-elf/lib\libc.a(lib_a-printf.o)
 .debug_aranges
                0x000003a0       0x20 j:/altera/13.0sp1/nios2eds/bin/gnu/h-i686-mingw32/bin/../lib/gcc/nios2-elf/4.1.2/../../../../nios2-elf/lib\libc.a(lib_a-putc.o)
 .debug_aranges
                0x000003c0       0x20 j:/altera/13.0sp1/nios2eds/bin/gnu/h-i686-mingw32/bin/../lib/gcc/nios2-elf/4.1.2/../../../../nios2-elf/lib\libc.a(lib_a-putchar.o)
 .debug_aranges
                0x000003e0       0x20 j:/altera/13.0sp1/nios2eds/bin/gnu/h-i686-mingw32/bin/../lib/gcc/nios2-elf/4.1.2/../../../../nios2-elf/lib\libc.a(lib_a-puts.o)
 .debug_aranges
                0x00000400       0x20 j:/altera/13.0sp1/nios2eds/bin/gnu/h-i686-mingw32/bin/../lib/gcc/nios2-elf/4.1.2/../../../../nios2-elf/lib\libc.a(lib_a-rget.o)
 .debug_aranges
                0x00000420       0x20 j:/altera/13.0sp1/nios2eds/bin/gnu/h-i686-mingw32/bin/../lib/gcc/nios2-elf/4.1.2/../../../../nios2-elf/lib\libc.a(lib_a-strchr.o)
 .debug_aranges
                0x00000440       0x20 j:/altera/13.0sp1/nios2eds/bin/gnu/h-i686-mingw32/bin/../lib/gcc/nios2-elf/4.1.2/../../../../nios2-elf/lib\libc.a(lib_a-strerror.o)
 .debug_aranges
                0x00000460       0x20 j:/altera/13.0sp1/nios2eds/bin/gnu/h-i686-mingw32/bin/../lib/gcc/nios2-elf/4.1.2/../../../../nios2-elf/lib\libc.a(lib_a-strlen.o)
 .debug_aranges
                0x00000480       0x20 j:/altera/13.0sp1/nios2eds/bin/gnu/h-i686-mingw32/bin/../lib/gcc/nios2-elf/4.1.2/../../../../nios2-elf/lib\libc.a(lib_a-u_strerr.o)
 .debug_aranges
                0x000004a0       0x20 j:/altera/13.0sp1/nios2eds/bin/gnu/h-i686-mingw32/bin/../lib/gcc/nios2-elf/4.1.2/../../../../nios2-elf/lib\libc.a(lib_a-vfprintf.o)
 .debug_aranges
                0x000004c0       0x20 j:/altera/13.0sp1/nios2eds/bin/gnu/h-i686-mingw32/bin/../lib/gcc/nios2-elf/4.1.2/../../../../nios2-elf/lib\libc.a(lib_a-wbuf.o)
 .debug_aranges
                0x000004e0       0x20 j:/altera/13.0sp1/nios2eds/bin/gnu/h-i686-mingw32/bin/../lib/gcc/nios2-elf/4.1.2/../../../../nios2-elf/lib\libc.a(lib_a-wsetup.o)
 .debug_aranges
                0x00000500       0x20 j:/altera/13.0sp1/nios2eds/bin/gnu/h-i686-mingw32/bin/../lib/gcc/nios2-elf/4.1.2/../../../../nios2-elf/lib\libc.a(lib_a-__call_atexit.o)
 .debug_aranges
                0x00000520       0x20 j:/altera/13.0sp1/nios2eds/bin/gnu/h-i686-mingw32/bin/../lib/gcc/nios2-elf/4.1.2/../../../../nios2-elf/lib\libc.a(lib_a-dtoa.o)
 .debug_aranges
                0x00000540       0x20 j:/altera/13.0sp1/nios2eds/bin/gnu/h-i686-mingw32/bin/../lib/gcc/nios2-elf/4.1.2/../../../../nios2-elf/lib\libc.a(lib_a-fflush.o)
 .debug_aranges
                0x00000560       0x20 j:/altera/13.0sp1/nios2eds/bin/gnu/h-i686-mingw32/bin/../lib/gcc/nios2-elf/4.1.2/../../../../nios2-elf/lib\libc.a(lib_a-findfp.o)
 .debug_aranges
                0x00000580       0x20 j:/altera/13.0sp1/nios2eds/bin/gnu/h-i686-mingw32/bin/../lib/gcc/nios2-elf/4.1.2/../../../../nios2-elf/lib\libc.a(lib_a-fputc.o)
 .debug_aranges
                0x000005a0       0x20 j:/altera/13.0sp1/nios2eds/bin/gnu/h-i686-mingw32/bin/../lib/gcc/nios2-elf/4.1.2/../../../../nios2-elf/lib\libc.a(lib_a-fputs.o)
 .debug_aranges
                0x000005c0       0x20 j:/altera/13.0sp1/nios2eds/bin/gnu/h-i686-mingw32/bin/../lib/gcc/nios2-elf/4.1.2/../../../../nios2-elf/lib\libc.a(lib_a-freer.o)
 .debug_aranges
                0x000005e0       0x20 j:/altera/13.0sp1/nios2eds/bin/gnu/h-i686-mingw32/bin/../lib/gcc/nios2-elf/4.1.2/../../../../nios2-elf/lib\libc.a(lib_a-fvwrite.o)
 .debug_aranges
                0x00000600       0x20 j:/altera/13.0sp1/nios2eds/bin/gnu/h-i686-mingw32/bin/../lib/gcc/nios2-elf/4.1.2/../../../../nios2-elf/lib\libc.a(lib_a-fwalk.o)
 .debug_aranges
                0x00000620       0x20 j:/altera/13.0sp1/nios2eds/bin/gnu/h-i686-mingw32/bin/../lib/gcc/nios2-elf/4.1.2/../../../../nios2-elf/lib\libc.a(lib_a-locale.o)
 .debug_aranges
                0x00000640       0x20 j:/altera/13.0sp1/nios2eds/bin/gnu/h-i686-mingw32/bin/../lib/gcc/nios2-elf/4.1.2/../../../../nios2-elf/lib\libc.a(lib_a-makebuf.o)
 .debug_aranges
                0x00000660       0x20 j:/altera/13.0sp1/nios2eds/bin/gnu/h-i686-mingw32/bin/../lib/gcc/nios2-elf/4.1.2/../../../../nios2-elf/lib\libc.a(lib_a-mallocr.o)
 .debug_aranges
                0x00000680       0x20 j:/altera/13.0sp1/nios2eds/bin/gnu/h-i686-mingw32/bin/../lib/gcc/nios2-elf/4.1.2/../../../../nios2-elf/lib\libc.a(lib_a-memchr.o)
 .debug_aranges
                0x000006a0       0x20 j:/altera/13.0sp1/nios2eds/bin/gnu/h-i686-mingw32/bin/../lib/gcc/nios2-elf/4.1.2/../../../../nios2-elf/lib\libc.a(lib_a-mprec.o)
 .debug_aranges
                0x000006c0       0x20 j:/altera/13.0sp1/nios2eds/bin/gnu/h-i686-mingw32/bin/../lib/gcc/nios2-elf/4.1.2/../../../../nios2-elf/lib\libc.a(lib_a-reallocr.o)
 .debug_aranges
                0x000006e0       0x20 j:/altera/13.0sp1/nios2eds/bin/gnu/h-i686-mingw32/bin/../lib/gcc/nios2-elf/4.1.2/../../../../nios2-elf/lib\libc.a(lib_a-refill.o)
 .debug_aranges
                0x00000700       0x20 j:/altera/13.0sp1/nios2eds/bin/gnu/h-i686-mingw32/bin/../lib/gcc/nios2-elf/4.1.2/../../../../nios2-elf/lib\libc.a(lib_a-s_isinfd.o)
 .debug_aranges
                0x00000720       0x20 j:/altera/13.0sp1/nios2eds/bin/gnu/h-i686-mingw32/bin/../lib/gcc/nios2-elf/4.1.2/../../../../nios2-elf/lib\libc.a(lib_a-s_isnand.o)
 .debug_aranges
                0x00000740       0x20 j:/altera/13.0sp1/nios2eds/bin/gnu/h-i686-mingw32/bin/../lib/gcc/nios2-elf/4.1.2/../../../../nios2-elf/lib\libc.a(lib_a-sbrkr.o)
 .debug_aranges
                0x00000760       0x20 j:/altera/13.0sp1/nios2eds/bin/gnu/h-i686-mingw32/bin/../lib/gcc/nios2-elf/4.1.2/../../../../nios2-elf/lib\libc.a(lib_a-stdio.o)
 .debug_aranges
                0x00000780       0x20 j:/altera/13.0sp1/nios2eds/bin/gnu/h-i686-mingw32/bin/../lib/gcc/nios2-elf/4.1.2/../../../../nios2-elf/lib\libc.a(lib_a-strcmp.o)
 .debug_aranges
                0x000007a0       0x20 j:/altera/13.0sp1/nios2eds/bin/gnu/h-i686-mingw32/bin/../lib/gcc/nios2-elf/4.1.2/../../../../nios2-elf/lib\libc.a(lib_a-writer.o)
 .debug_aranges
                0x000007c0       0x20 j:/altera/13.0sp1/nios2eds/bin/gnu/h-i686-mingw32/bin/../lib/gcc/nios2-elf/4.1.2/../../../../nios2-elf/lib\libc.a(lib_a-callocr.o)
 .debug_aranges
                0x000007e0       0x20 j:/altera/13.0sp1/nios2eds/bin/gnu/h-i686-mingw32/bin/../lib/gcc/nios2-elf/4.1.2/../../../../nios2-elf/lib\libc.a(lib_a-closer.o)
 .debug_aranges
                0x00000800       0x20 j:/altera/13.0sp1/nios2eds/bin/gnu/h-i686-mingw32/bin/../lib/gcc/nios2-elf/4.1.2/../../../../nios2-elf/lib\libc.a(lib_a-fclose.o)
 .debug_aranges
                0x00000820       0x20 j:/altera/13.0sp1/nios2eds/bin/gnu/h-i686-mingw32/bin/../lib/gcc/nios2-elf/4.1.2/../../../../nios2-elf/lib\libc.a(lib_a-fstatr.o)
 .debug_aranges
                0x00000840       0x20 j:/altera/13.0sp1/nios2eds/bin/gnu/h-i686-mingw32/bin/../lib/gcc/nios2-elf/4.1.2/../../../../nios2-elf/lib\libc.a(lib_a-isattyr.o)
 .debug_aranges
                0x00000860       0x20 j:/altera/13.0sp1/nios2eds/bin/gnu/h-i686-mingw32/bin/../lib/gcc/nios2-elf/4.1.2/../../../../nios2-elf/lib\libc.a(lib_a-lseekr.o)
 .debug_aranges
                0x00000880       0x20 j:/altera/13.0sp1/nios2eds/bin/gnu/h-i686-mingw32/bin/../lib/gcc/nios2-elf/4.1.2/../../../../nios2-elf/lib\libc.a(lib_a-readr.o)
 .debug_aranges
                0x000008a0       0x20 j:/altera/13.0sp1/nios2eds/bin/gnu/h-i686-mingw32/bin/../lib/gcc/nios2-elf/4.1.2\libgcc.a(_udivdi3.o)
 .debug_aranges
                0x000008c0       0x20 j:/altera/13.0sp1/nios2eds/bin/gnu/h-i686-mingw32/bin/../lib/gcc/nios2-elf/4.1.2\libgcc.a(_umoddi3.o)
 .debug_aranges
                0x000008e0       0x20 j:/altera/13.0sp1/nios2eds/bin/gnu/h-i686-mingw32/bin/../lib/gcc/nios2-elf/4.1.2\libgcc.a(_div_df.o)
 .debug_aranges
                0x00000900       0x20 j:/altera/13.0sp1/nios2eds/bin/gnu/h-i686-mingw32/bin/../lib/gcc/nios2-elf/4.1.2\libgcc.a(_eq_df.o)
 .debug_aranges
                0x00000920       0x20 j:/altera/13.0sp1/nios2eds/bin/gnu/h-i686-mingw32/bin/../lib/gcc/nios2-elf/4.1.2\libgcc.a(_ne_df.o)
 .debug_aranges
                0x00000940       0x20 j:/altera/13.0sp1/nios2eds/bin/gnu/h-i686-mingw32/bin/../lib/gcc/nios2-elf/4.1.2\libgcc.a(_gt_df.o)
 .debug_aranges
                0x00000960       0x20 j:/altera/13.0sp1/nios2eds/bin/gnu/h-i686-mingw32/bin/../lib/gcc/nios2-elf/4.1.2\libgcc.a(_lt_df.o)
 .debug_aranges
                0x00000980       0x20 j:/altera/13.0sp1/nios2eds/bin/gnu/h-i686-mingw32/bin/../lib/gcc/nios2-elf/4.1.2\libgcc.a(_si_to_df.o)
 .debug_aranges
                0x000009a0       0x20 j:/altera/13.0sp1/nios2eds/bin/gnu/h-i686-mingw32/bin/../lib/gcc/nios2-elf/4.1.2\libgcc.a(lib2-divmod.o)
 .debug_aranges
                0x000009c0       0x20 ../simple_socket_bsp/\libucosii_bsp.a(alt_exit.o)
 .debug_aranges
                0x000009e0       0x20 ../simple_socket_bsp/\libucosii_bsp.a(alt_flash_dev.o)
 .debug_aranges
                0x00000a00       0x20 ../simple_socket_bsp/\libucosii_bsp.a(alt_fstat.o)
 .debug_aranges
                0x00000a20       0x20 ../simple_socket_bsp/\libucosii_bsp.a(alt_irq_register.o)
 .debug_aranges
                0x00000a40       0x20 ../simple_socket_bsp/\libucosii_bsp.a(alt_isatty.o)
 .debug_aranges
                0x00000a60       0x20 ../simple_socket_bsp/\libucosii_bsp.a(alt_lseek.o)
 .debug_aranges
                0x00000a80       0x20 ../simple_socket_bsp/\libucosii_bsp.a(alt_main.o)
 .debug_aranges
                0x00000aa0       0x20 ../simple_socket_bsp/\libucosii_bsp.a(alt_sbrk.o)
 .debug_aranges
                0x00000ac0       0x20 ../simple_socket_bsp/\libucosii_bsp.a(alt_usleep.o)
 .debug_aranges
                0x00000ae0       0x20 ../simple_socket_bsp/\libucosii_bsp.a(alt_env_lock.o)
 .debug_aranges
                0x00000b00       0x20 ../simple_socket_bsp/\libucosii_bsp.a(alt_malloc_lock.o)
 .debug_aranges
                0x00000b20       0x20 ../simple_socket_bsp/\libucosii_bsp.a(os_core.o)
 .debug_aranges
                0x00000b40       0x20 ../simple_socket_bsp/\libucosii_bsp.a(os_dbg.o)
 .debug_aranges
                0x00000b60       0x20 ../simple_socket_bsp/\libucosii_bsp.a(os_flag.o)
 .debug_aranges
                0x00000b80       0x20 ../simple_socket_bsp/\libucosii_bsp.a(os_mem.o)
 .debug_aranges
                0x00000ba0       0x20 ../simple_socket_bsp/\libucosii_bsp.a(os_q.o)
 .debug_aranges
                0x00000bc0       0x20 ../simple_socket_bsp/\libucosii_bsp.a(os_sem.o)
 .debug_aranges
                0x00000be0       0x20 ../simple_socket_bsp/\libucosii_bsp.a(os_task.o)
 .debug_aranges
                0x00000c00       0x20 ../simple_socket_bsp/\libucosii_bsp.a(os_time.o)
 .debug_aranges
                0x00000c20       0x20 ../simple_socket_bsp/\libucosii_bsp.a(alt_sys_init.o)
 .debug_aranges
                0x00000c40       0x20 ../simple_socket_bsp/\libucosii_bsp.a(altera_avalon_cfi_flash.o)
 .debug_aranges
                0x00000c60       0x20 ../simple_socket_bsp/\libucosii_bsp.a(altera_avalon_cfi_flash_table.o)
 .debug_aranges
                0x00000c80       0x20 ../simple_socket_bsp/\libucosii_bsp.a(altera_avalon_epcs_flash_controller.o)
 .debug_aranges
                0x00000ca0       0x20 ../simple_socket_bsp/\libucosii_bsp.a(altera_avalon_jtag_uart_fd.o)
 .debug_aranges
                0x00000cc0       0x20 ../simple_socket_bsp/\libucosii_bsp.a(altera_avalon_jtag_uart_init.o)
 .debug_aranges
                0x00000ce0       0x20 ../simple_socket_bsp/\libucosii_bsp.a(altera_avalon_jtag_uart_ioctl.o)
 .debug_aranges
                0x00000d00       0x20 ../simple_socket_bsp/\libucosii_bsp.a(altera_avalon_jtag_uart_read.o)
 .debug_aranges
                0x00000d20       0x20 ../simple_socket_bsp/\libucosii_bsp.a(altera_avalon_jtag_uart_write.o)
 .debug_aranges
                0x00000d40       0x20 ../simple_socket_bsp/\libucosii_bsp.a(altera_avalon_lcd_16207.o)
 .debug_aranges
                0x00000d60       0x20 ../simple_socket_bsp/\libucosii_bsp.a(altera_avalon_lcd_16207_fd.o)
 .debug_aranges
                0x00000d80       0x20 ../simple_socket_bsp/\libucosii_bsp.a(altera_avalon_timer_sc.o)
 .debug_aranges
                0x00000da0       0x20 ../simple_socket_bsp/\libucosii_bsp.a(altera_avalon_uart_fd.o)
 .debug_aranges
                0x00000dc0       0x20 ../simple_socket_bsp/\libucosii_bsp.a(altera_avalon_uart_init.o)
 .debug_aranges
                0x00000de0       0x20 ../simple_socket_bsp/\libucosii_bsp.a(altera_avalon_uart_read.o)
 .debug_aranges
                0x00000e00       0x20 ../simple_socket_bsp/\libucosii_bsp.a(altera_avalon_uart_write.o)
 .debug_aranges
                0x00000e20       0x20 ../simple_socket_bsp/\libucosii_bsp.a(epcs_commands.o)
 .debug_aranges
                0x00000e40       0x20 ../simple_socket_bsp/\libucosii_bsp.a(alt_iniche_close.o)
 .debug_aranges
                0x00000e60       0x20 ../simple_socket_bsp/\libucosii_bsp.a(alt_iniche_dev.o)
 .debug_aranges
                0x00000e80       0x20 ../simple_socket_bsp/\libucosii_bsp.a(alt_iniche_read.o)
 .debug_aranges
                0x00000ea0       0x20 ../simple_socket_bsp/\libucosii_bsp.a(alt_iniche_write.o)
 .debug_aranges
                0x00000ec0       0x20 ../simple_socket_bsp/\libucosii_bsp.a(ipnet.o)
 .debug_aranges
                0x00000ee0       0x20 ../simple_socket_bsp/\libucosii_bsp.a(ipstart.o)
 .debug_aranges
                0x00000f00       0x20 ../simple_socket_bsp/\libucosii_bsp.a(igmp_cmn.o)
 .debug_aranges
                0x00000f20       0x20 ../simple_socket_bsp/\libucosii_bsp.a(bsdsock.o)
 .debug_aranges
                0x00000f40       0x20 ../simple_socket_bsp/\libucosii_bsp.a(cksum.o)
 .debug_aranges
                0x00000f60       0x20 ../simple_socket_bsp/\libucosii_bsp.a(in_utils.o)
 .debug_aranges
                0x00000f80       0x20 ../simple_socket_bsp/\libucosii_bsp.a(netmain.o)
 .debug_aranges
                0x00000fa0       0x20 ../simple_socket_bsp/\libucosii_bsp.a(parseip.o)
 .debug_aranges
                0x00000fc0       0x20 ../simple_socket_bsp/\libucosii_bsp.a(tk_crnos.o)
 .debug_aranges
                0x00000fe0       0x20 ../simple_socket_bsp/\libucosii_bsp.a(dhcpclnt.o)
 .debug_aranges
                0x00001000       0x20 ../simple_socket_bsp/\libucosii_bsp.a(dhcputil.o)
 .debug_aranges
                0x00001020       0x20 ../simple_socket_bsp/\libucosii_bsp.a(pktalloc.o)
 .debug_aranges
                0x00001040       0x20 ../simple_socket_bsp/\libucosii_bsp.a(q.o)
 .debug_aranges
                0x00001060       0x20 ../simple_socket_bsp/\libucosii_bsp.a(udp_open.o)
 .debug_aranges
                0x00001080       0x20 ../simple_socket_bsp/\libucosii_bsp.a(asm_cksum.o)
 .debug_aranges
                0x000010a0       0x20 ../simple_socket_bsp/\libucosii_bsp.a(brdutils.o)
 .debug_aranges
                0x000010c0       0x20 ../simple_socket_bsp/\libucosii_bsp.a(osportco.o)
 .debug_aranges
                0x000010e0       0x20 ../simple_socket_bsp/\libucosii_bsp.a(targnios.o)
 .debug_aranges
                0x00001100       0x20 ../simple_socket_bsp/\libucosii_bsp.a(nptcp.o)
 .debug_aranges
                0x00001120       0x20 ../simple_socket_bsp/\libucosii_bsp.a(rawsock.o)
 .debug_aranges
                0x00001140       0x20 ../simple_socket_bsp/\libucosii_bsp.a(sockcall.o)
 .debug_aranges
                0x00001160       0x20 ../simple_socket_bsp/\libucosii_bsp.a(socket.o)
 .debug_aranges
                0x00001180       0x20 ../simple_socket_bsp/\libucosii_bsp.a(socket2.o)
 .debug_aranges
                0x000011a0       0x20 ../simple_socket_bsp/\libucosii_bsp.a(soselect.o)
 .debug_aranges
                0x000011c0       0x20 ../simple_socket_bsp/\libucosii_bsp.a(tcp_in.o)
 .debug_aranges
                0x000011e0       0x20 ../simple_socket_bsp/\libucosii_bsp.a(tcp_out.o)
 .debug_aranges
                0x00001200       0x20 ../simple_socket_bsp/\libucosii_bsp.a(tcp_subr.o)
 .debug_aranges
                0x00001220       0x20 ../simple_socket_bsp/\libucosii_bsp.a(tcp_timr.o)
 .debug_aranges
                0x00001240       0x20 ../simple_socket_bsp/\libucosii_bsp.a(tcp_usr.o)
 .debug_aranges
                0x00001260       0x20 ../simple_socket_bsp/\libucosii_bsp.a(tcpport.o)
 .debug_aranges
                0x00001280       0x20 ../simple_socket_bsp/\libucosii_bsp.a(udpsock.o)
 .debug_aranges
                0x000012a0       0x20 ../simple_socket_bsp/\libucosii_bsp.a(alt_alarm_start.o)
 .debug_aranges
                0x000012c0       0x20 ../simple_socket_bsp/\libucosii_bsp.a(alt_busy_sleep.o)
 .debug_aranges
                0x000012e0       0x20 ../simple_socket_bsp/\libucosii_bsp.a(alt_close.o)
 .debug_aranges
                0x00001300       0x20 ../simple_socket_bsp/\libucosii_bsp.a(alt_dcache_flush.o)
 .debug_aranges
                0x00001320       0x20 ../simple_socket_bsp/\libucosii_bsp.a(alt_dev.o)
 .debug_aranges
                0x00001340       0x20 ../simple_socket_bsp/\libucosii_bsp.a(alt_dev_llist_insert.o)
 .debug_aranges
                0x00001360       0x20 ../simple_socket_bsp/\libucosii_bsp.a(alt_do_ctors.o)
 .debug_aranges
                0x00001380       0x20 ../simple_socket_bsp/\libucosii_bsp.a(alt_do_dtors.o)
 .debug_aranges
                0x000013a0       0x20 ../simple_socket_bsp/\libucosii_bsp.a(alt_find_dev.o)
 .debug_aranges
                0x000013c0       0x20 ../simple_socket_bsp/\libucosii_bsp.a(alt_iic.o)
 .debug_aranges
                0x000013e0       0x20 ../simple_socket_bsp/\libucosii_bsp.a(alt_iic_isr_register.o)
 .debug_aranges
                0x00001400       0x20 ../simple_socket_bsp/\libucosii_bsp.a(alt_io_redirect.o)
 .debug_aranges
                0x00001420       0x30 ../simple_socket_bsp/\libucosii_bsp.a(alt_irq_entry.o)
 .debug_aranges
                0x00001450       0x28 ../simple_socket_bsp/\libucosii_bsp.a(alt_irq_handler.o)
 .debug_aranges
                0x00001478       0x20 ../simple_socket_bsp/\libucosii_bsp.a(alt_open.o)
 .debug_aranges
                0x00001498       0x20 ../simple_socket_bsp/\libucosii_bsp.a(alt_read.o)
 .debug_aranges
                0x000014b8       0x20 ../simple_socket_bsp/\libucosii_bsp.a(alt_release_fd.o)
 .debug_aranges
                0x000014d8       0x20 ../simple_socket_bsp/\libucosii_bsp.a(alt_remap_cached.o)
 .debug_aranges
                0x000014f8       0x20 ../simple_socket_bsp/\libucosii_bsp.a(alt_remap_uncached.o)
 .debug_aranges
                0x00001518       0x20 ../simple_socket_bsp/\libucosii_bsp.a(alt_tick.o)
 .debug_aranges
                0x00001538       0x20 ../simple_socket_bsp/\libucosii_bsp.a(alt_write.o)
 .debug_aranges
                0x00001558       0x20 ../simple_socket_bsp/\libucosii_bsp.a(altera_nios2_qsys_irq.o)
 .debug_aranges
                0x00001578       0x20 ../simple_socket_bsp/\libucosii_bsp.a(os_cpu_a.o)
 .debug_aranges
                0x00001598       0x20 ../simple_socket_bsp/\libucosii_bsp.a(os_cpu_c.o)
 .debug_aranges
                0x000015b8       0x20 ../simple_socket_bsp/\libucosii_bsp.a(altera_avalon_cfi_flash_amd.o)
 .debug_aranges
                0x000015d8       0x20 ../simple_socket_bsp/\libucosii_bsp.a(altera_avalon_cfi_flash_intel.o)
 .debug_aranges
                0x000015f8       0x20 ../simple_socket_bsp/\libucosii_bsp.a(altera_avalon_spi.o)
 .debug_aranges
                0x00001618       0x20 ../simple_socket_bsp/\libucosii_bsp.a(allports.o)
 .debug_aranges
                0x00001638       0x20 ../simple_socket_bsp/\libucosii_bsp.a(timeouts.o)
 .debug_aranges
                0x00001658       0x20 ../simple_socket_bsp/\libucosii_bsp.a(tk_misc.o)
 .debug_aranges
                0x00001678       0x20 ../simple_socket_bsp/\libucosii_bsp.a(alt_iniche_fcntl.o)
 .debug_aranges
                0x00001698       0x20 ../simple_socket_bsp/\libucosii_bsp.a(et_arp.o)
 .debug_aranges
                0x000016b8       0x20 ../simple_socket_bsp/\libucosii_bsp.a(iface.o)
 .debug_aranges
                0x000016d8       0x20 ../simple_socket_bsp/\libucosii_bsp.a(ip.o)
 .debug_aranges
                0x000016f8       0x20 ../simple_socket_bsp/\libucosii_bsp.a(ip_reasm.o)
 .debug_aranges
                0x00001718       0x20 ../simple_socket_bsp/\libucosii_bsp.a(ipdemux.o)
 .debug_aranges
                0x00001738       0x20 ../simple_socket_bsp/\libucosii_bsp.a(ipmc.o)
 .debug_aranges
                0x00001758       0x20 ../simple_socket_bsp/\libucosii_bsp.a(ipport.o)
 .debug_aranges
                0x00001778       0x20 ../simple_socket_bsp/\libucosii_bsp.a(ipraw.o)
 .debug_aranges
                0x00001798       0x20 ../simple_socket_bsp/\libucosii_bsp.a(iproute.o)
 .debug_aranges
                0x000017b8       0x20 ../simple_socket_bsp/\libucosii_bsp.a(udp.o)
 .debug_aranges
                0x000017d8       0x20 ../simple_socket_bsp/\libucosii_bsp.a(igmp.o)
 .debug_aranges
                0x000017f8       0x20 ../simple_socket_bsp/\libucosii_bsp.a(igmp2.o)
 .debug_aranges
                0x00001818       0x20 ../simple_socket_bsp/\libucosii_bsp.a(ipopt.o)
 .debug_aranges
                0x00001838       0x20 ../simple_socket_bsp/\libucosii_bsp.a(u_mctest.o)
 .debug_aranges
                0x00001858       0x20 ../simple_socket_bsp/\libucosii_bsp.a(dhcsetup.o)
 .debug_aranges
                0x00001878       0x20 ../simple_socket_bsp/\libucosii_bsp.a(memdev.o)
 .debug_aranges
                0x00001898       0x20 ../simple_socket_bsp/\libucosii_bsp.a(tcpcksum.o)
 .debug_aranges
                0x000018b8       0x20 ../simple_socket_bsp/\libucosii_bsp.a(in_pcb.o)
 .debug_aranges
                0x000018d8       0x20 ../simple_socket_bsp/\libucosii_bsp.a(vfsfiles.o)
 .debug_aranges
                0x000018f8       0x20 ../simple_socket_bsp/\libucosii_bsp.a(vfsport.o)
 .debug_aranges
                0x00001918       0x38 ../simple_socket_bsp/\libucosii_bsp.a(alt_exception_entry.o)
 .debug_aranges
                0x00001950       0x20 ../simple_socket_bsp/\libucosii_bsp.a(alt_fcntl.o)
 .debug_aranges
                0x00001970       0x20 ../simple_socket_bsp/\libucosii_bsp.a(alt_find_file.o)
 .debug_aranges
                0x00001990       0x20 ../simple_socket_bsp/\libucosii_bsp.a(alt_get_fd.o)
 .debug_aranges
                0x000019b0       0x20 ../simple_socket_bsp/\libucosii_bsp.a(icmp.o)
 .debug_aranges
                0x000019d0       0x20 j:/altera/13.0sp1/nios2eds/bin/gnu/h-i686-mingw32/bin/../lib/gcc/nios2-elf/4.1.2/../../../../nios2-elf/lib\libc.a(lib_a-atexit.o)
 .debug_aranges
                0x000019f0       0x20 j:/altera/13.0sp1/nios2eds/bin/gnu/h-i686-mingw32/bin/../lib/gcc/nios2-elf/4.1.2/../../../../nios2-elf/lib\libc.a(lib_a-atoi.o)
 .debug_aranges
                0x00001a10       0x20 j:/altera/13.0sp1/nios2eds/bin/gnu/h-i686-mingw32/bin/../lib/gcc/nios2-elf/4.1.2/../../../../nios2-elf/lib\libc.a(lib_a-calloc.o)
 .debug_aranges
                0x00001a30       0x20 j:/altera/13.0sp1/nios2eds/bin/gnu/h-i686-mingw32/bin/../lib/gcc/nios2-elf/4.1.2/../../../../nios2-elf/lib\libc.a(lib_a-malloc.o)
 .debug_aranges
                0x00001a50       0x20 j:/altera/13.0sp1/nios2eds/bin/gnu/h-i686-mingw32/bin/../lib/gcc/nios2-elf/4.1.2/../../../../nios2-elf/lib\libc.a(lib_a-memcmp.o)
 .debug_aranges
                0x00001a70       0x20 j:/altera/13.0sp1/nios2eds/bin/gnu/h-i686-mingw32/bin/../lib/gcc/nios2-elf/4.1.2/../../../../nios2-elf/lib\libc.a(lib_a-sprintf.o)
 .debug_aranges
                0x00001a90       0x20 j:/altera/13.0sp1/nios2eds/bin/gnu/h-i686-mingw32/bin/../lib/gcc/nios2-elf/4.1.2/../../../../nios2-elf/lib\libc.a(lib_a-strcpy.o)
 .debug_aranges
                0x00001ab0       0x20 j:/altera/13.0sp1/nios2eds/bin/gnu/h-i686-mingw32/bin/../lib/gcc/nios2-elf/4.1.2/../../../../nios2-elf/lib\libc.a(lib_a-strncmp.o)
 .debug_aranges
                0x00001ad0       0x20 j:/altera/13.0sp1/nios2eds/bin/gnu/h-i686-mingw32/bin/../lib/gcc/nios2-elf/4.1.2/../../../../nios2-elf/lib\libc.a(lib_a-strncpy.o)
 .debug_aranges
                0x00001af0       0x20 j:/altera/13.0sp1/nios2eds/bin/gnu/h-i686-mingw32/bin/../lib/gcc/nios2-elf/4.1.2/../../../../nios2-elf/lib\libc.a(lib_a-strtol.o)
 .debug_aranges
                0x00001b10       0x20 j:/altera/13.0sp1/nios2eds/bin/gnu/h-i686-mingw32/bin/../lib/gcc/nios2-elf/4.1.2/../../../../nios2-elf/lib\libc.a(lib_a-vprintf.o)
 .debug_aranges
                0x00001b30       0x20 j:/altera/13.0sp1/nios2eds/bin/gnu/h-i686-mingw32/bin/../lib/gcc/nios2-elf/4.1.2/../../../../nios2-elf/lib\libc.a(lib_a-vsprintf.o)
 .debug_aranges
                0x00001b50       0x20 j:/altera/13.0sp1/nios2eds/bin/gnu/h-i686-mingw32/bin/../lib/gcc/nios2-elf/4.1.2/../../../../nios2-elf/lib\libc.a(lib_a-__atexit.o)

.debug_pubnames
                0x00000000     0x55ca
 *(.debug_pubnames)
 .debug_pubnames
                0x00000000       0x68 obj/default/LCD.o
 .debug_pubnames
                0x00000068       0x7c obj/default/SSS_DE2_115.o
 .debug_pubnames
                0x000000e4       0x61 obj/default/alt_error_handler.o
 .debug_pubnames
                0x00000145      0x102 obj/default/dm9000a.o
 .debug_pubnames
                0x00000247       0x5f obj/default/iniche_init.o
 .debug_pubnames
                0x000002a6       0x54 obj/default/led.o
 .debug_pubnames
                0x000002fa       0xc9 obj/default/network_utilities.o
 .debug_pubnames
                0x000003c3      0x154 obj/default/simple_socket_server.o
 .debug_pubnames
                0x00000517       0x23 j:/altera/13.0sp1/nios2eds/bin/gnu/h-i686-mingw32/bin/../lib/gcc/nios2-elf/4.1.2\libgcc.a(_fixunsdfsi.o)
 .debug_pubnames
                0x0000053a       0x2c j:/altera/13.0sp1/nios2eds/bin/gnu/h-i686-mingw32/bin/../lib/gcc/nios2-elf/4.1.2\libgcc.a(_addsub_df.o)
 .debug_pubnames
                0x00000566       0x1f j:/altera/13.0sp1/nios2eds/bin/gnu/h-i686-mingw32/bin/../lib/gcc/nios2-elf/4.1.2\libgcc.a(_mul_df.o)
 .debug_pubnames
                0x00000585       0x1e j:/altera/13.0sp1/nios2eds/bin/gnu/h-i686-mingw32/bin/../lib/gcc/nios2-elf/4.1.2\libgcc.a(_ge_df.o)
 .debug_pubnames
                0x000005a3       0x20 j:/altera/13.0sp1/nios2eds/bin/gnu/h-i686-mingw32/bin/../lib/gcc/nios2-elf/4.1.2\libgcc.a(_df_to_si.o)
 .debug_pubnames
                0x000005c3       0x22 j:/altera/13.0sp1/nios2eds/bin/gnu/h-i686-mingw32/bin/../lib/gcc/nios2-elf/4.1.2\libgcc.a(_thenan_df.o)
 .debug_pubnames
                0x000005e5       0x24 j:/altera/13.0sp1/nios2eds/bin/gnu/h-i686-mingw32/bin/../lib/gcc/nios2-elf/4.1.2\libgcc.a(_usi_to_df.o)
 .debug_pubnames
                0x00000609       0x1f j:/altera/13.0sp1/nios2eds/bin/gnu/h-i686-mingw32/bin/../lib/gcc/nios2-elf/4.1.2\libgcc.a(_muldi3.o)
 .debug_pubnames
                0x00000628       0x1f j:/altera/13.0sp1/nios2eds/bin/gnu/h-i686-mingw32/bin/../lib/gcc/nios2-elf/4.1.2\libgcc.a(_clzsi2.o)
 .debug_pubnames
                0x00000647       0x1f j:/altera/13.0sp1/nios2eds/bin/gnu/h-i686-mingw32/bin/../lib/gcc/nios2-elf/4.1.2\libgcc.a(_pack_df.o)
 .debug_pubnames
                0x00000666       0x21 j:/altera/13.0sp1/nios2eds/bin/gnu/h-i686-mingw32/bin/../lib/gcc/nios2-elf/4.1.2\libgcc.a(_unpack_df.o)
 .debug_pubnames
                0x00000687       0x26 j:/altera/13.0sp1/nios2eds/bin/gnu/h-i686-mingw32/bin/../lib/gcc/nios2-elf/4.1.2\libgcc.a(_fpcmp_parts_df.o)
 .debug_pubnames
                0x000006ad       0x20 j:/altera/13.0sp1/nios2eds/bin/gnu/h-i686-mingw32/bin/../lib/gcc/nios2-elf/4.1.2\libgcc.a(_clz.o)
 .debug_pubnames
                0x000006cd       0x2e j:/altera/13.0sp1/nios2eds/bin/gnu/h-i686-mingw32/bin/../lib/gcc/nios2-elf/4.1.2/../../../../nios2-elf/lib\libc.a(lib_a-ctype_.o)
 .debug_pubnames
                0x000006fb       0x1b j:/altera/13.0sp1/nios2eds/bin/gnu/h-i686-mingw32/bin/../lib/gcc/nios2-elf/4.1.2/../../../../nios2-elf/lib\libc.a(lib_a-exit.o)
 .debug_pubnames
                0x00000716       0x2d j:/altera/13.0sp1/nios2eds/bin/gnu/h-i686-mingw32/bin/../lib/gcc/nios2-elf/4.1.2/../../../../nios2-elf/lib\libc.a(lib_a-fprintf.o)
 .debug_pubnames
                0x00000743       0x2b j:/altera/13.0sp1/nios2eds/bin/gnu/h-i686-mingw32/bin/../lib/gcc/nios2-elf/4.1.2/../../../../nios2-elf/lib\libc.a(lib_a-fwrite.o)
 .debug_pubnames
                0x0000076e       0x27 j:/altera/13.0sp1/nios2eds/bin/gnu/h-i686-mingw32/bin/../lib/gcc/nios2-elf/4.1.2/../../../../nios2-elf/lib\libc.a(lib_a-getc.o)
 .debug_pubnames
                0x00000795       0x39 j:/altera/13.0sp1/nios2eds/bin/gnu/h-i686-mingw32/bin/../lib/gcc/nios2-elf/4.1.2/../../../../nios2-elf/lib\libc.a(lib_a-impure.o)
 .debug_pubnames
                0x000007ce       0x1d j:/altera/13.0sp1/nios2eds/bin/gnu/h-i686-mingw32/bin/../lib/gcc/nios2-elf/4.1.2/../../../../nios2-elf/lib\libc.a(lib_a-memcpy.o)
 .debug_pubnames
                0x000007eb       0x1e j:/altera/13.0sp1/nios2eds/bin/gnu/h-i686-mingw32/bin/../lib/gcc/nios2-elf/4.1.2/../../../../nios2-elf/lib\libc.a(lib_a-memmove.o)
 .debug_pubnames
                0x00000809       0x1d j:/altera/13.0sp1/nios2eds/bin/gnu/h-i686-mingw32/bin/../lib/gcc/nios2-elf/4.1.2/../../../../nios2-elf/lib\libc.a(lib_a-memset.o)
 .debug_pubnames
                0x00000826       0x2b j:/altera/13.0sp1/nios2eds/bin/gnu/h-i686-mingw32/bin/../lib/gcc/nios2-elf/4.1.2/../../../../nios2-elf/lib\libc.a(lib_a-perror.o)
 .debug_pubnames
                0x00000851       0x2b j:/altera/13.0sp1/nios2eds/bin/gnu/h-i686-mingw32/bin/../lib/gcc/nios2-elf/4.1.2/../../../../nios2-elf/lib\libc.a(lib_a-printf.o)
 .debug_pubnames
                0x0000087c       0x27 j:/altera/13.0sp1/nios2eds/bin/gnu/h-i686-mingw32/bin/../lib/gcc/nios2-elf/4.1.2/../../../../nios2-elf/lib\libc.a(lib_a-putc.o)
 .debug_pubnames
                0x000008a3       0x2d j:/altera/13.0sp1/nios2eds/bin/gnu/h-i686-mingw32/bin/../lib/gcc/nios2-elf/4.1.2/../../../../nios2-elf/lib\libc.a(lib_a-putchar.o)
 .debug_pubnames
                0x000008d0       0x27 j:/altera/13.0sp1/nios2eds/bin/gnu/h-i686-mingw32/bin/../lib/gcc/nios2-elf/4.1.2/../../../../nios2-elf/lib\libc.a(lib_a-puts.o)
 .debug_pubnames
                0x000008f7       0x2c j:/altera/13.0sp1/nios2eds/bin/gnu/h-i686-mingw32/bin/../lib/gcc/nios2-elf/4.1.2/../../../../nios2-elf/lib\libc.a(lib_a-rget.o)
 .debug_pubnames
                0x00000923       0x1d j:/altera/13.0sp1/nios2eds/bin/gnu/h-i686-mingw32/bin/../lib/gcc/nios2-elf/4.1.2/../../../../nios2-elf/lib\libc.a(lib_a-strchr.o)
 .debug_pubnames
                0x00000940       0x1f j:/altera/13.0sp1/nios2eds/bin/gnu/h-i686-mingw32/bin/../lib/gcc/nios2-elf/4.1.2/../../../../nios2-elf/lib\libc.a(lib_a-strerror.o)
 .debug_pubnames
                0x0000095f       0x1d j:/altera/13.0sp1/nios2eds/bin/gnu/h-i686-mingw32/bin/../lib/gcc/nios2-elf/4.1.2/../../../../nios2-elf/lib\libc.a(lib_a-strlen.o)
 .debug_pubnames
                0x0000097c       0x25 j:/altera/13.0sp1/nios2eds/bin/gnu/h-i686-mingw32/bin/../lib/gcc/nios2-elf/4.1.2/../../../../nios2-elf/lib\libc.a(lib_a-u_strerr.o)
 .debug_pubnames
                0x000009a1       0x45 j:/altera/13.0sp1/nios2eds/bin/gnu/h-i686-mingw32/bin/../lib/gcc/nios2-elf/4.1.2/../../../../nios2-elf/lib\libc.a(lib_a-vfprintf.o)
 .debug_pubnames
                0x000009e6       0x2c j:/altera/13.0sp1/nios2eds/bin/gnu/h-i686-mingw32/bin/../lib/gcc/nios2-elf/4.1.2/../../../../nios2-elf/lib\libc.a(lib_a-wbuf.o)
 .debug_pubnames
                0x00000a12       0x22 j:/altera/13.0sp1/nios2eds/bin/gnu/h-i686-mingw32/bin/../lib/gcc/nios2-elf/4.1.2/../../../../nios2-elf/lib\libc.a(lib_a-wsetup.o)
 .debug_pubnames
                0x00000a34       0x27 j:/altera/13.0sp1/nios2eds/bin/gnu/h-i686-mingw32/bin/../lib/gcc/nios2-elf/4.1.2/../../../../nios2-elf/lib\libc.a(lib_a-__call_atexit.o)
 .debug_pubnames
                0x00000a5b       0x1e j:/altera/13.0sp1/nios2eds/bin/gnu/h-i686-mingw32/bin/../lib/gcc/nios2-elf/4.1.2/../../../../nios2-elf/lib\libc.a(lib_a-dtoa.o)
 .debug_pubnames
                0x00000a79       0x2b j:/altera/13.0sp1/nios2eds/bin/gnu/h-i686-mingw32/bin/../lib/gcc/nios2-elf/4.1.2/../../../../nios2-elf/lib\libc.a(lib_a-fflush.o)
 .debug_pubnames
                0x00000aa4       0xdb j:/altera/13.0sp1/nios2eds/bin/gnu/h-i686-mingw32/bin/../lib/gcc/nios2-elf/4.1.2/../../../../nios2-elf/lib\libc.a(lib_a-findfp.o)
 .debug_pubnames
                0x00000b7f       0x29 j:/altera/13.0sp1/nios2eds/bin/gnu/h-i686-mingw32/bin/../lib/gcc/nios2-elf/4.1.2/../../../../nios2-elf/lib\libc.a(lib_a-fputc.o)
 .debug_pubnames
                0x00000ba8       0x29 j:/altera/13.0sp1/nios2eds/bin/gnu/h-i686-mingw32/bin/../lib/gcc/nios2-elf/4.1.2/../../../../nios2-elf/lib\libc.a(lib_a-fputs.o)
 .debug_pubnames
                0x00000bd1       0x31 j:/altera/13.0sp1/nios2eds/bin/gnu/h-i686-mingw32/bin/../lib/gcc/nios2-elf/4.1.2/../../../../nios2-elf/lib\libc.a(lib_a-freer.o)
 .debug_pubnames
                0x00000c02       0x23 j:/altera/13.0sp1/nios2eds/bin/gnu/h-i686-mingw32/bin/../lib/gcc/nios2-elf/4.1.2/../../../../nios2-elf/lib\libc.a(lib_a-fvwrite.o)
 .debug_pubnames
                0x00000c25       0x2e j:/altera/13.0sp1/nios2eds/bin/gnu/h-i686-mingw32/bin/../lib/gcc/nios2-elf/4.1.2/../../../../nios2-elf/lib\libc.a(lib_a-fwalk.o)
 .debug_pubnames
                0x00000c53       0xc3 j:/altera/13.0sp1/nios2eds/bin/gnu/h-i686-mingw32/bin/../lib/gcc/nios2-elf/4.1.2/../../../../nios2-elf/lib\libc.a(lib_a-locale.o)
 .debug_pubnames
                0x00000d16       0x23 j:/altera/13.0sp1/nios2eds/bin/gnu/h-i686-mingw32/bin/../lib/gcc/nios2-elf/4.1.2/../../../../nios2-elf/lib\libc.a(lib_a-makebuf.o)
 .debug_pubnames
                0x00000d39       0xce j:/altera/13.0sp1/nios2eds/bin/gnu/h-i686-mingw32/bin/../lib/gcc/nios2-elf/4.1.2/../../../../nios2-elf/lib\libc.a(lib_a-mallocr.o)
 .debug_pubnames
                0x00000e07       0x1d j:/altera/13.0sp1/nios2eds/bin/gnu/h-i686-mingw32/bin/../lib/gcc/nios2-elf/4.1.2/../../../../nios2-elf/lib\libc.a(lib_a-memchr.o)
 .debug_pubnames
                0x00000e24      0x13a j:/altera/13.0sp1/nios2eds/bin/gnu/h-i686-mingw32/bin/../lib/gcc/nios2-elf/4.1.2/../../../../nios2-elf/lib\libc.a(lib_a-mprec.o)
 .debug_pubnames
                0x00000f5e       0x21 j:/altera/13.0sp1/nios2eds/bin/gnu/h-i686-mingw32/bin/../lib/gcc/nios2-elf/4.1.2/../../../../nios2-elf/lib\libc.a(lib_a-reallocr.o)
 .debug_pubnames
                0x00000f7f       0x22 j:/altera/13.0sp1/nios2eds/bin/gnu/h-i686-mingw32/bin/../lib/gcc/nios2-elf/4.1.2/../../../../nios2-elf/lib\libc.a(lib_a-refill.o)
 .debug_pubnames
                0x00000fa1       0x1f j:/altera/13.0sp1/nios2eds/bin/gnu/h-i686-mingw32/bin/../lib/gcc/nios2-elf/4.1.2/../../../../nios2-elf/lib\libc.a(lib_a-s_isinfd.o)
 .debug_pubnames
                0x00000fc0       0x1f j:/altera/13.0sp1/nios2eds/bin/gnu/h-i686-mingw32/bin/../lib/gcc/nios2-elf/4.1.2/../../../../nios2-elf/lib\libc.a(lib_a-s_isnand.o)
 .debug_pubnames
                0x00000fdf       0x1e j:/altera/13.0sp1/nios2eds/bin/gnu/h-i686-mingw32/bin/../lib/gcc/nios2-elf/4.1.2/../../../../nios2-elf/lib\libc.a(lib_a-sbrkr.o)
 .debug_pubnames
                0x00000ffd       0x44 j:/altera/13.0sp1/nios2eds/bin/gnu/h-i686-mingw32/bin/../lib/gcc/nios2-elf/4.1.2/../../../../nios2-elf/lib\libc.a(lib_a-stdio.o)
 .debug_pubnames
                0x00001041       0x1d j:/altera/13.0sp1/nios2eds/bin/gnu/h-i686-mingw32/bin/../lib/gcc/nios2-elf/4.1.2/../../../../nios2-elf/lib\libc.a(lib_a-strcmp.o)
 .debug_pubnames
                0x0000105e       0x1f j:/altera/13.0sp1/nios2eds/bin/gnu/h-i686-mingw32/bin/../lib/gcc/nios2-elf/4.1.2/../../../../nios2-elf/lib\libc.a(lib_a-writer.o)
 .debug_pubnames
                0x0000107d       0x20 j:/altera/13.0sp1/nios2eds/bin/gnu/h-i686-mingw32/bin/../lib/gcc/nios2-elf/4.1.2/../../../../nios2-elf/lib\libc.a(lib_a-callocr.o)
 .debug_pubnames
                0x0000109d       0x1f j:/altera/13.0sp1/nios2eds/bin/gnu/h-i686-mingw32/bin/../lib/gcc/nios2-elf/4.1.2/../../../../nios2-elf/lib\libc.a(lib_a-closer.o)
 .debug_pubnames
                0x000010bc       0x2b j:/altera/13.0sp1/nios2eds/bin/gnu/h-i686-mingw32/bin/../lib/gcc/nios2-elf/4.1.2/../../../../nios2-elf/lib\libc.a(lib_a-fclose.o)
 .debug_pubnames
                0x000010e7       0x1f j:/altera/13.0sp1/nios2eds/bin/gnu/h-i686-mingw32/bin/../lib/gcc/nios2-elf/4.1.2/../../../../nios2-elf/lib\libc.a(lib_a-fstatr.o)
 .debug_pubnames
                0x00001106       0x1c j:/altera/13.0sp1/nios2eds/bin/gnu/h-i686-mingw32/bin/../lib/gcc/nios2-elf/4.1.2/../../../../nios2-elf/lib\libc.a(lib_a-int_errno.o)
 .debug_pubnames
                0x00001122       0x20 j:/altera/13.0sp1/nios2eds/bin/gnu/h-i686-mingw32/bin/../lib/gcc/nios2-elf/4.1.2/../../../../nios2-elf/lib\libc.a(lib_a-isattyr.o)
 .debug_pubnames
                0x00001142       0x1f j:/altera/13.0sp1/nios2eds/bin/gnu/h-i686-mingw32/bin/../lib/gcc/nios2-elf/4.1.2/../../../../nios2-elf/lib\libc.a(lib_a-lseekr.o)
 .debug_pubnames
                0x00001161       0x1e j:/altera/13.0sp1/nios2eds/bin/gnu/h-i686-mingw32/bin/../lib/gcc/nios2-elf/4.1.2/../../../../nios2-elf/lib\libc.a(lib_a-readr.o)
 .debug_pubnames
                0x0000117f       0x20 j:/altera/13.0sp1/nios2eds/bin/gnu/h-i686-mingw32/bin/../lib/gcc/nios2-elf/4.1.2\libgcc.a(_udivdi3.o)
 .debug_pubnames
                0x0000119f       0x20 j:/altera/13.0sp1/nios2eds/bin/gnu/h-i686-mingw32/bin/../lib/gcc/nios2-elf/4.1.2\libgcc.a(_umoddi3.o)
 .debug_pubnames
                0x000011bf       0x1f j:/altera/13.0sp1/nios2eds/bin/gnu/h-i686-mingw32/bin/../lib/gcc/nios2-elf/4.1.2\libgcc.a(_div_df.o)
 .debug_pubnames
                0x000011de       0x1e j:/altera/13.0sp1/nios2eds/bin/gnu/h-i686-mingw32/bin/../lib/gcc/nios2-elf/4.1.2\libgcc.a(_eq_df.o)
 .debug_pubnames
                0x000011fc       0x1e j:/altera/13.0sp1/nios2eds/bin/gnu/h-i686-mingw32/bin/../lib/gcc/nios2-elf/4.1.2\libgcc.a(_ne_df.o)
 .debug_pubnames
                0x0000121a       0x1e j:/altera/13.0sp1/nios2eds/bin/gnu/h-i686-mingw32/bin/../lib/gcc/nios2-elf/4.1.2\libgcc.a(_gt_df.o)
 .debug_pubnames
                0x00001238       0x1e j:/altera/13.0sp1/nios2eds/bin/gnu/h-i686-mingw32/bin/../lib/gcc/nios2-elf/4.1.2\libgcc.a(_lt_df.o)
 .debug_pubnames
                0x00001256       0x22 j:/altera/13.0sp1/nios2eds/bin/gnu/h-i686-mingw32/bin/../lib/gcc/nios2-elf/4.1.2\libgcc.a(_si_to_df.o)
 .debug_pubnames
                0x00001278       0x48 j:/altera/13.0sp1/nios2eds/bin/gnu/h-i686-mingw32/bin/../lib/gcc/nios2-elf/4.1.2\libgcc.a(lib2-divmod.o)
 .debug_pubnames
                0x000012c0       0x1c ../simple_socket_bsp/\libucosii_bsp.a(alt_exit.o)
 .debug_pubnames
                0x000012dc       0x58 ../simple_socket_bsp/\libucosii_bsp.a(alt_flash_dev.o)
 .debug_pubnames
                0x00001334       0x1c ../simple_socket_bsp/\libucosii_bsp.a(alt_fstat.o)
 .debug_pubnames
                0x00001350       0x27 ../simple_socket_bsp/\libucosii_bsp.a(alt_irq_register.o)
 .debug_pubnames
                0x00001377       0x3b ../simple_socket_bsp/\libucosii_bsp.a(alt_irq_vars.o)
 .debug_pubnames
                0x000013b2       0x1d ../simple_socket_bsp/\libucosii_bsp.a(alt_isatty.o)
 .debug_pubnames
                0x000013cf       0x1c ../simple_socket_bsp/\libucosii_bsp.a(alt_lseek.o)
 .debug_pubnames
                0x000013eb       0x46 ../simple_socket_bsp/\libucosii_bsp.a(alt_main.o)
 .debug_pubnames
                0x00001431       0x1b ../simple_socket_bsp/\libucosii_bsp.a(alt_sbrk.o)
 .debug_pubnames
                0x0000144c       0x1d ../simple_socket_bsp/\libucosii_bsp.a(alt_usleep.o)
 .debug_pubnames
                0x00001469       0x41 ../simple_socket_bsp/\libucosii_bsp.a(alt_env_lock.o)
 .debug_pubnames
                0x000014aa       0x48 ../simple_socket_bsp/\libucosii_bsp.a(alt_malloc_lock.o)
 .debug_pubnames
                0x000014f2      0x3f8 ../simple_socket_bsp/\libucosii_bsp.a(os_core.o)
 .debug_pubnames
                0x000018ea      0x3c5 ../simple_socket_bsp/\libucosii_bsp.a(os_dbg.o)
 .debug_pubnames
                0x00001caf       0xd0 ../simple_socket_bsp/\libucosii_bsp.a(os_flag.o)
 .debug_pubnames
                0x00001d7f       0x7c ../simple_socket_bsp/\libucosii_bsp.a(os_mem.o)
 .debug_pubnames
                0x00001dfb       0xa9 ../simple_socket_bsp/\libucosii_bsp.a(os_q.o)
 .debug_pubnames
                0x00001ea4       0x8a ../simple_socket_bsp/\libucosii_bsp.a(os_sem.o)
 .debug_pubnames
                0x00001f2e       0xe5 ../simple_socket_bsp/\libucosii_bsp.a(os_task.o)
 .debug_pubnames
                0x00002013       0x62 ../simple_socket_bsp/\libucosii_bsp.a(os_time.o)
 .debug_pubnames
                0x00002075       0x34 ../simple_socket_bsp/\libucosii_bsp.a(alt_sys_init.o)
 .debug_pubnames
                0x000020a9       0xac ../simple_socket_bsp/\libucosii_bsp.a(altera_avalon_cfi_flash.o)
 .debug_pubnames
                0x00002155      0x27a ../simple_socket_bsp/\libucosii_bsp.a(altera_avalon_cfi_flash_table.o)
 .debug_pubnames
                0x000023cf       0xb5 ../simple_socket_bsp/\libucosii_bsp.a(altera_avalon_epcs_flash_controller.o)
 .debug_pubnames
                0x00002484       0xa5 ../simple_socket_bsp/\libucosii_bsp.a(altera_avalon_jtag_uart_fd.o)
 .debug_pubnames
                0x00002529       0x55 ../simple_socket_bsp/\libucosii_bsp.a(altera_avalon_jtag_uart_init.o)
 .debug_pubnames
                0x0000257e       0x34 ../simple_socket_bsp/\libucosii_bsp.a(altera_avalon_jtag_uart_ioctl.o)
 .debug_pubnames
                0x000025b2       0x33 ../simple_socket_bsp/\libucosii_bsp.a(altera_avalon_jtag_uart_read.o)
 .debug_pubnames
                0x000025e5       0x34 ../simple_socket_bsp/\libucosii_bsp.a(altera_avalon_jtag_uart_write.o)
 .debug_pubnames
                0x00002619       0x55 ../simple_socket_bsp/\libucosii_bsp.a(altera_avalon_lcd_16207.o)
 .debug_pubnames
                0x0000266e       0x37 ../simple_socket_bsp/\libucosii_bsp.a(altera_avalon_lcd_16207_fd.o)
 .debug_pubnames
                0x000026a5       0x2f ../simple_socket_bsp/\libucosii_bsp.a(altera_avalon_timer_sc.o)
 .debug_pubnames
                0x000026d4       0x71 ../simple_socket_bsp/\libucosii_bsp.a(altera_avalon_uart_fd.o)
 .debug_pubnames
                0x00002745       0x4b ../simple_socket_bsp/\libucosii_bsp.a(altera_avalon_uart_init.o)
 .debug_pubnames
                0x00002790       0x2e ../simple_socket_bsp/\libucosii_bsp.a(altera_avalon_uart_read.o)
 .debug_pubnames
                0x000027be       0x2f ../simple_socket_bsp/\libucosii_bsp.a(altera_avalon_uart_write.o)
 .debug_pubnames
                0x000027ed      0x118 ../simple_socket_bsp/\libucosii_bsp.a(epcs_commands.o)
 .debug_pubnames
                0x00002905       0x1c ../simple_socket_bsp/\libucosii_bsp.a(alt_iniche_close.o)
 .debug_pubnames
                0x00002921       0x42 ../simple_socket_bsp/\libucosii_bsp.a(alt_iniche_dev.o)
 .debug_pubnames
                0x00002963       0x1b ../simple_socket_bsp/\libucosii_bsp.a(alt_iniche_read.o)
 .debug_pubnames
                0x0000297e       0x1c ../simple_socket_bsp/\libucosii_bsp.a(alt_iniche_write.o)
 .debug_pubnames
                0x0000299a       0x90 ../simple_socket_bsp/\libucosii_bsp.a(ipnet.o)
 .debug_pubnames
                0x00002a2a       0x81 ../simple_socket_bsp/\libucosii_bsp.a(ipstart.o)
 .debug_pubnames
                0x00002aab      0x108 ../simple_socket_bsp/\libucosii_bsp.a(igmp_cmn.o)
 .debug_pubnames
                0x00002bb3       0xc4 ../simple_socket_bsp/\libucosii_bsp.a(bsdsock.o)
 .debug_pubnames
                0x00002c77       0x27 ../simple_socket_bsp/\libucosii_bsp.a(cksum.o)
 .debug_pubnames
                0x00002c9e       0xcc ../simple_socket_bsp/\libucosii_bsp.a(in_utils.o)
 .debug_pubnames
                0x00002d6a       0xb2 ../simple_socket_bsp/\libucosii_bsp.a(netmain.o)
 .debug_pubnames
                0x00002e1c       0xa6 ../simple_socket_bsp/\libucosii_bsp.a(parseip.o)
 .debug_pubnames
                0x00002ec2       0x97 ../simple_socket_bsp/\libucosii_bsp.a(tk_crnos.o)
 .debug_pubnames
                0x00002f59      0x252 ../simple_socket_bsp/\libucosii_bsp.a(dhcpclnt.o)
 .debug_pubnames
                0x000031ab       0x1f ../simple_socket_bsp/\libucosii_bsp.a(dhcputil.o)
 .debug_pubnames
                0x000031ca       0xe2 ../simple_socket_bsp/\libucosii_bsp.a(pktalloc.o)
 .debug_pubnames
                0x000032ac       0x2d ../simple_socket_bsp/\libucosii_bsp.a(q.o)
 .debug_pubnames
                0x000032d9       0x3a ../simple_socket_bsp/\libucosii_bsp.a(udp_open.o)
 .debug_pubnames
                0x00003313       0xc5 ../simple_socket_bsp/\libucosii_bsp.a(brdutils.o)
 .debug_pubnames
                0x000033d8      0x10c ../simple_socket_bsp/\libucosii_bsp.a(osportco.o)
 .debug_pubnames
                0x000034e4       0xf5 ../simple_socket_bsp/\libucosii_bsp.a(targnios.o)
 .debug_pubnames
                0x000035d9      0x190 ../simple_socket_bsp/\libucosii_bsp.a(nptcp.o)
 .debug_pubnames
                0x00003769       0x46 ../simple_socket_bsp/\libucosii_bsp.a(rawsock.o)
 .debug_pubnames
                0x000037af      0x108 ../simple_socket_bsp/\libucosii_bsp.a(sockcall.o)
 .debug_pubnames
                0x000038b7       0xfc ../simple_socket_bsp/\libucosii_bsp.a(socket.o)
 .debug_pubnames
                0x000039b3      0x178 ../simple_socket_bsp/\libucosii_bsp.a(socket2.o)
 .debug_pubnames
                0x00003b2b       0x92 ../simple_socket_bsp/\libucosii_bsp.a(soselect.o)
 .debug_pubnames
                0x00003bbd       0xc2 ../simple_socket_bsp/\libucosii_bsp.a(tcp_in.o)
 .debug_pubnames
                0x00003c7f       0x57 ../simple_socket_bsp/\libucosii_bsp.a(tcp_out.o)
 .debug_pubnames
                0x00003cd6       0xb9 ../simple_socket_bsp/\libucosii_bsp.a(tcp_subr.o)
 .debug_pubnames
                0x00003d8f       0x96 ../simple_socket_bsp/\libucosii_bsp.a(tcp_timr.o)
 .debug_pubnames
                0x00003e25       0x79 ../simple_socket_bsp/\libucosii_bsp.a(tcp_usr.o)
 .debug_pubnames
                0x00003e9e       0x1e ../simple_socket_bsp/\libucosii_bsp.a(tcpport.o)
 .debug_pubnames
                0x00003ebc       0x76 ../simple_socket_bsp/\libucosii_bsp.a(udpsock.o)
 .debug_pubnames
                0x00003f32       0x26 ../simple_socket_bsp/\libucosii_bsp.a(alt_alarm_start.o)
 .debug_pubnames
                0x00003f58       0x25 ../simple_socket_bsp/\libucosii_bsp.a(alt_busy_sleep.o)
 .debug_pubnames
                0x00003f7d       0x20 ../simple_socket_bsp/\libucosii_bsp.a(alt_close.o)
 .debug_pubnames
                0x00003f9d       0x27 ../simple_socket_bsp/\libucosii_bsp.a(alt_dcache_flush.o)
 .debug_pubnames
                0x00003fc4       0x78 ../simple_socket_bsp/\libucosii_bsp.a(alt_dev.o)
 .debug_pubnames
                0x0000403c       0x2b ../simple_socket_bsp/\libucosii_bsp.a(alt_dev_llist_insert.o)
 .debug_pubnames
                0x00004067       0x20 ../simple_socket_bsp/\libucosii_bsp.a(alt_do_ctors.o)
 .debug_pubnames
                0x00004087       0x20 ../simple_socket_bsp/\libucosii_bsp.a(alt_do_dtors.o)
 .debug_pubnames
                0x000040a7       0x20 ../simple_socket_bsp/\libucosii_bsp.a(alt_errno.o)
 .debug_pubnames
                0x000040c7       0x23 ../simple_socket_bsp/\libucosii_bsp.a(alt_find_dev.o)
 .debug_pubnames
                0x000040ea       0x6e ../simple_socket_bsp/\libucosii_bsp.a(alt_iic.o)
 .debug_pubnames
                0x00004158       0x2b ../simple_socket_bsp/\libucosii_bsp.a(alt_iic_isr_register.o)
 .debug_pubnames
                0x00004183       0x26 ../simple_socket_bsp/\libucosii_bsp.a(alt_io_redirect.o)
 .debug_pubnames
                0x000041a9       0x32 ../simple_socket_bsp/\libucosii_bsp.a(alt_irq_handler.o)
 .debug_pubnames
                0x000041db       0x1b ../simple_socket_bsp/\libucosii_bsp.a(alt_open.o)
 .debug_pubnames
                0x000041f6       0x1f ../simple_socket_bsp/\libucosii_bsp.a(alt_read.o)
 .debug_pubnames
                0x00004215       0x25 ../simple_socket_bsp/\libucosii_bsp.a(alt_release_fd.o)
 .debug_pubnames
                0x0000423a       0x27 ../simple_socket_bsp/\libucosii_bsp.a(alt_remap_cached.o)
 .debug_pubnames
                0x00004261       0x29 ../simple_socket_bsp/\libucosii_bsp.a(alt_remap_uncached.o)
 .debug_pubnames
                0x0000428a       0x68 ../simple_socket_bsp/\libucosii_bsp.a(alt_tick.o)
 .debug_pubnames
                0x000042f2       0x20 ../simple_socket_bsp/\libucosii_bsp.a(alt_write.o)
 .debug_pubnames
                0x00004312       0x31 ../simple_socket_bsp/\libucosii_bsp.a(altera_nios2_qsys_irq.o)
 .debug_pubnames
                0x00004343       0xcd ../simple_socket_bsp/\libucosii_bsp.a(os_cpu_c.o)
 .debug_pubnames
                0x00004410       0x3e ../simple_socket_bsp/\libucosii_bsp.a(altera_avalon_cfi_flash_amd.o)
 .debug_pubnames
                0x0000444e       0x42 ../simple_socket_bsp/\libucosii_bsp.a(altera_avalon_cfi_flash_intel.o)
 .debug_pubnames
                0x00004490       0x2d ../simple_socket_bsp/\libucosii_bsp.a(altera_avalon_spi.o)
 .debug_pubnames
                0x000044bd       0xd4 ../simple_socket_bsp/\libucosii_bsp.a(allports.o)
 .debug_pubnames
                0x00004591       0x6f ../simple_socket_bsp/\libucosii_bsp.a(timeouts.o)
 .debug_pubnames
                0x00004600       0x35 ../simple_socket_bsp/\libucosii_bsp.a(tk_misc.o)
 .debug_pubnames
                0x00004635       0x1c ../simple_socket_bsp/\libucosii_bsp.a(alt_iniche_fcntl.o)
 .debug_pubnames
                0x00004651      0x134 ../simple_socket_bsp/\libucosii_bsp.a(et_arp.o)
 .debug_pubnames
                0x00004785       0x58 ../simple_socket_bsp/\libucosii_bsp.a(iface.o)
 .debug_pubnames
                0x000047dd       0xea ../simple_socket_bsp/\libucosii_bsp.a(ip.o)
 .debug_pubnames
                0x000048c7      0x22e ../simple_socket_bsp/\libucosii_bsp.a(ip_reasm.o)
 .debug_pubnames
                0x00004af5       0x3c ../simple_socket_bsp/\libucosii_bsp.a(ipdemux.o)
 .debug_pubnames
                0x00004b31       0x43 ../simple_socket_bsp/\libucosii_bsp.a(ipmc.o)
 .debug_pubnames
                0x00004b74       0x99 ../simple_socket_bsp/\libucosii_bsp.a(ipport.o)
 .debug_pubnames
                0x00004c0d       0x87 ../simple_socket_bsp/\libucosii_bsp.a(ipraw.o)
 .debug_pubnames
                0x00004c94       0x5d ../simple_socket_bsp/\libucosii_bsp.a(iproute.o)
 .debug_pubnames
                0x00004cf1       0x7f ../simple_socket_bsp/\libucosii_bsp.a(udp.o)
 .debug_pubnames
                0x00004d70       0x23 ../simple_socket_bsp/\libucosii_bsp.a(igmp.o)
 .debug_pubnames
                0x00004d93       0x8d ../simple_socket_bsp/\libucosii_bsp.a(igmp2.o)
 .debug_pubnames
                0x00004e20       0x5f ../simple_socket_bsp/\libucosii_bsp.a(ipopt.o)
 .debug_pubnames
                0x00004e7f       0x35 ../simple_socket_bsp/\libucosii_bsp.a(u_mctest.o)
 .debug_pubnames
                0x00004eb4       0x33 ../simple_socket_bsp/\libucosii_bsp.a(dhcsetup.o)
 .debug_pubnames
                0x00004ee7       0xb1 ../simple_socket_bsp/\libucosii_bsp.a(memdev.o)
 .debug_pubnames
                0x00004f98       0x20 ../simple_socket_bsp/\libucosii_bsp.a(tcpcksum.o)
 .debug_pubnames
                0x00004fb8       0xc8 ../simple_socket_bsp/\libucosii_bsp.a(in_pcb.o)
 .debug_pubnames
                0x00005080      0x278 ../simple_socket_bsp/\libucosii_bsp.a(vfsfiles.o)
 .debug_pubnames
                0x000052f8       0x1f ../simple_socket_bsp/\libucosii_bsp.a(vfsport.o)
 .debug_pubnames
                0x00005317       0x20 ../simple_socket_bsp/\libucosii_bsp.a(alt_fcntl.o)
 .debug_pubnames
                0x00005337       0x24 ../simple_socket_bsp/\libucosii_bsp.a(alt_find_file.o)
 .debug_pubnames
                0x0000535b       0x21 ../simple_socket_bsp/\libucosii_bsp.a(alt_get_fd.o)
 .debug_pubnames
                0x0000537c       0x66 ../simple_socket_bsp/\libucosii_bsp.a(icmp.o)
 .debug_pubnames
                0x000053e2       0x2a j:/altera/13.0sp1/nios2eds/bin/gnu/h-i686-mingw32/bin/../lib/gcc/nios2-elf/4.1.2/../../../../nios2-elf/lib\libc.a(lib_a-atexit.o)
 .debug_pubnames
                0x0000540c       0x27 j:/altera/13.0sp1/nios2eds/bin/gnu/h-i686-mingw32/bin/../lib/gcc/nios2-elf/4.1.2/../../../../nios2-elf/lib\libc.a(lib_a-atoi.o)
 .debug_pubnames
                0x00005433       0x1d j:/altera/13.0sp1/nios2eds/bin/gnu/h-i686-mingw32/bin/../lib/gcc/nios2-elf/4.1.2/../../../../nios2-elf/lib\libc.a(lib_a-calloc.o)
 .debug_pubnames
                0x00005450       0x26 j:/altera/13.0sp1/nios2eds/bin/gnu/h-i686-mingw32/bin/../lib/gcc/nios2-elf/4.1.2/../../../../nios2-elf/lib\libc.a(lib_a-malloc.o)
 .debug_pubnames
                0x00005476       0x1d j:/altera/13.0sp1/nios2eds/bin/gnu/h-i686-mingw32/bin/../lib/gcc/nios2-elf/4.1.2/../../../../nios2-elf/lib\libc.a(lib_a-memcmp.o)
 .debug_pubnames
                0x00005493       0x2d j:/altera/13.0sp1/nios2eds/bin/gnu/h-i686-mingw32/bin/../lib/gcc/nios2-elf/4.1.2/../../../../nios2-elf/lib\libc.a(lib_a-sprintf.o)
 .debug_pubnames
                0x000054c0       0x1d j:/altera/13.0sp1/nios2eds/bin/gnu/h-i686-mingw32/bin/../lib/gcc/nios2-elf/4.1.2/../../../../nios2-elf/lib\libc.a(lib_a-strcpy.o)
 .debug_pubnames
                0x000054dd       0x1e j:/altera/13.0sp1/nios2eds/bin/gnu/h-i686-mingw32/bin/../lib/gcc/nios2-elf/4.1.2/../../../../nios2-elf/lib\libc.a(lib_a-strncmp.o)
 .debug_pubnames
                0x000054fb       0x1e j:/altera/13.0sp1/nios2eds/bin/gnu/h-i686-mingw32/bin/../lib/gcc/nios2-elf/4.1.2/../../../../nios2-elf/lib\libc.a(lib_a-strncpy.o)
 .debug_pubnames
                0x00005519       0x2b j:/altera/13.0sp1/nios2eds/bin/gnu/h-i686-mingw32/bin/../lib/gcc/nios2-elf/4.1.2/../../../../nios2-elf/lib\libc.a(lib_a-strtol.o)
 .debug_pubnames
                0x00005544       0x2d j:/altera/13.0sp1/nios2eds/bin/gnu/h-i686-mingw32/bin/../lib/gcc/nios2-elf/4.1.2/../../../../nios2-elf/lib\libc.a(lib_a-vprintf.o)
 .debug_pubnames
                0x00005571       0x2f j:/altera/13.0sp1/nios2eds/bin/gnu/h-i686-mingw32/bin/../lib/gcc/nios2-elf/4.1.2/../../../../nios2-elf/lib\libc.a(lib_a-vsprintf.o)
 .debug_pubnames
                0x000055a0       0x2a j:/altera/13.0sp1/nios2eds/bin/gnu/h-i686-mingw32/bin/../lib/gcc/nios2-elf/4.1.2/../../../../nios2-elf/lib\libc.a(lib_a-__atexit.o)

.debug_info     0x00000000    0x7e489
 *(.debug_info .gnu.linkonce.wi.*)
 .debug_info    0x00000000       0x92 ../simple_socket_bsp//obj/HAL/src/crt0.o
 .debug_info    0x00000092      0x243 obj/default/LCD.o
 .debug_info    0x000002d5      0x73c obj/default/SSS_DE2_115.o
 .debug_info    0x00000a11      0xd83 obj/default/alt_error_handler.o
 .debug_info    0x00001794     0x1270 obj/default/dm9000a.o
 .debug_info    0x00002a04      0xf27 obj/default/iniche_init.o
 .debug_info    0x0000392b      0x489 obj/default/led.o
 .debug_info    0x00003db4     0x1bb0 obj/default/network_utilities.o
 .debug_info    0x00005964      0x9e7 obj/default/simple_socket_server.o
 .debug_info    0x0000634b        0x0 obj/default/tse_my_system.o
 .debug_info    0x0000634b       0xce j:/altera/13.0sp1/nios2eds/bin/gnu/h-i686-mingw32/bin/../lib/gcc/nios2-elf/4.1.2\libgcc.a(_fixunsdfsi.o)
 .debug_info    0x00006419      0x493 j:/altera/13.0sp1/nios2eds/bin/gnu/h-i686-mingw32/bin/../lib/gcc/nios2-elf/4.1.2\libgcc.a(_addsub_df.o)
 .debug_info    0x000068ac      0x488 j:/altera/13.0sp1/nios2eds/bin/gnu/h-i686-mingw32/bin/../lib/gcc/nios2-elf/4.1.2\libgcc.a(_mul_df.o)
 .debug_info    0x00006d34      0x29d j:/altera/13.0sp1/nios2eds/bin/gnu/h-i686-mingw32/bin/../lib/gcc/nios2-elf/4.1.2\libgcc.a(_ge_df.o)
 .debug_info    0x00006fd1      0x2cd j:/altera/13.0sp1/nios2eds/bin/gnu/h-i686-mingw32/bin/../lib/gcc/nios2-elf/4.1.2\libgcc.a(_df_to_si.o)
 .debug_info    0x0000729e      0x164 j:/altera/13.0sp1/nios2eds/bin/gnu/h-i686-mingw32/bin/../lib/gcc/nios2-elf/4.1.2\libgcc.a(_thenan_df.o)
 .debug_info    0x00007402      0x213 j:/altera/13.0sp1/nios2eds/bin/gnu/h-i686-mingw32/bin/../lib/gcc/nios2-elf/4.1.2\libgcc.a(_usi_to_df.o)
 .debug_info    0x00007615      0x215 j:/altera/13.0sp1/nios2eds/bin/gnu/h-i686-mingw32/bin/../lib/gcc/nios2-elf/4.1.2\libgcc.a(_muldi3.o)
 .debug_info    0x0000782a      0x130 j:/altera/13.0sp1/nios2eds/bin/gnu/h-i686-mingw32/bin/../lib/gcc/nios2-elf/4.1.2\libgcc.a(_clzsi2.o)
 .debug_info    0x0000795a      0x2fc j:/altera/13.0sp1/nios2eds/bin/gnu/h-i686-mingw32/bin/../lib/gcc/nios2-elf/4.1.2\libgcc.a(_pack_df.o)
 .debug_info    0x00007c56      0x268 j:/altera/13.0sp1/nios2eds/bin/gnu/h-i686-mingw32/bin/../lib/gcc/nios2-elf/4.1.2\libgcc.a(_unpack_df.o)
 .debug_info    0x00007ebe      0x21b j:/altera/13.0sp1/nios2eds/bin/gnu/h-i686-mingw32/bin/../lib/gcc/nios2-elf/4.1.2\libgcc.a(_fpcmp_parts_df.o)
 .debug_info    0x000080d9       0xc9 j:/altera/13.0sp1/nios2eds/bin/gnu/h-i686-mingw32/bin/../lib/gcc/nios2-elf/4.1.2\libgcc.a(_clz.o)
 .debug_info    0x000081a2       0xa0 j:/altera/13.0sp1/nios2eds/bin/gnu/h-i686-mingw32/bin/../lib/gcc/nios2-elf/4.1.2/../../../../nios2-elf/lib\libc.a(lib_a-ctype_.o)
 .debug_info    0x00008242      0x93f j:/altera/13.0sp1/nios2eds/bin/gnu/h-i686-mingw32/bin/../lib/gcc/nios2-elf/4.1.2/../../../../nios2-elf/lib\libc.a(lib_a-exit.o)
 .debug_info    0x00008b81      0x9e1 j:/altera/13.0sp1/nios2eds/bin/gnu/h-i686-mingw32/bin/../lib/gcc/nios2-elf/4.1.2/../../../../nios2-elf/lib\libc.a(lib_a-fprintf.o)
 .debug_info    0x00009562      0xa83 j:/altera/13.0sp1/nios2eds/bin/gnu/h-i686-mingw32/bin/../lib/gcc/nios2-elf/4.1.2/../../../../nios2-elf/lib\libc.a(lib_a-fwrite.o)
 .debug_info    0x00009fe5      0x9a7 j:/altera/13.0sp1/nios2eds/bin/gnu/h-i686-mingw32/bin/../lib/gcc/nios2-elf/4.1.2/../../../../nios2-elf/lib\libc.a(lib_a-getc.o)
 .debug_info    0x0000a98c      0x93d j:/altera/13.0sp1/nios2eds/bin/gnu/h-i686-mingw32/bin/../lib/gcc/nios2-elf/4.1.2/../../../../nios2-elf/lib\libc.a(lib_a-impure.o)
 .debug_info    0x0000b2c9      0x106 j:/altera/13.0sp1/nios2eds/bin/gnu/h-i686-mingw32/bin/../lib/gcc/nios2-elf/4.1.2/../../../../nios2-elf/lib\libc.a(lib_a-memcpy.o)
 .debug_info    0x0000b3cf      0x13e j:/altera/13.0sp1/nios2eds/bin/gnu/h-i686-mingw32/bin/../lib/gcc/nios2-elf/4.1.2/../../../../nios2-elf/lib\libc.a(lib_a-memmove.o)
 .debug_info    0x0000b50d      0x113 j:/altera/13.0sp1/nios2eds/bin/gnu/h-i686-mingw32/bin/../lib/gcc/nios2-elf/4.1.2/../../../../nios2-elf/lib\libc.a(lib_a-memset.o)
 .debug_info    0x0000b620      0x97b j:/altera/13.0sp1/nios2eds/bin/gnu/h-i686-mingw32/bin/../lib/gcc/nios2-elf/4.1.2/../../../../nios2-elf/lib\libc.a(lib_a-perror.o)
 .debug_info    0x0000bf9b      0x9d1 j:/altera/13.0sp1/nios2eds/bin/gnu/h-i686-mingw32/bin/../lib/gcc/nios2-elf/4.1.2/../../../../nios2-elf/lib\libc.a(lib_a-printf.o)
 .debug_info    0x0000c96c      0x9c1 j:/altera/13.0sp1/nios2eds/bin/gnu/h-i686-mingw32/bin/../lib/gcc/nios2-elf/4.1.2/../../../../nios2-elf/lib\libc.a(lib_a-putc.o)
 .debug_info    0x0000d32d      0x972 j:/altera/13.0sp1/nios2eds/bin/gnu/h-i686-mingw32/bin/../lib/gcc/nios2-elf/4.1.2/../../../../nios2-elf/lib\libc.a(lib_a-putchar.o)
 .debug_info    0x0000dc9f      0xa25 j:/altera/13.0sp1/nios2eds/bin/gnu/h-i686-mingw32/bin/../lib/gcc/nios2-elf/4.1.2/../../../../nios2-elf/lib\libc.a(lib_a-puts.o)
 .debug_info    0x0000e6c4      0x987 j:/altera/13.0sp1/nios2eds/bin/gnu/h-i686-mingw32/bin/../lib/gcc/nios2-elf/4.1.2/../../../../nios2-elf/lib\libc.a(lib_a-rget.o)
 .debug_info    0x0000f04b      0x118 j:/altera/13.0sp1/nios2eds/bin/gnu/h-i686-mingw32/bin/../lib/gcc/nios2-elf/4.1.2/../../../../nios2-elf/lib\libc.a(lib_a-strchr.o)
 .debug_info    0x0000f163       0xbb j:/altera/13.0sp1/nios2eds/bin/gnu/h-i686-mingw32/bin/../lib/gcc/nios2-elf/4.1.2/../../../../nios2-elf/lib\libc.a(lib_a-strerror.o)
 .debug_info    0x0000f21e       0xdb j:/altera/13.0sp1/nios2eds/bin/gnu/h-i686-mingw32/bin/../lib/gcc/nios2-elf/4.1.2/../../../../nios2-elf/lib\libc.a(lib_a-strlen.o)
 .debug_info    0x0000f2f9       0x63 j:/altera/13.0sp1/nios2eds/bin/gnu/h-i686-mingw32/bin/../lib/gcc/nios2-elf/4.1.2/../../../../nios2-elf/lib\libc.a(lib_a-u_strerr.o)
 .debug_info    0x0000f35c     0x10d5 j:/altera/13.0sp1/nios2eds/bin/gnu/h-i686-mingw32/bin/../lib/gcc/nios2-elf/4.1.2/../../../../nios2-elf/lib\libc.a(lib_a-vfprintf.o)
 .debug_info    0x00010431      0x9ae j:/altera/13.0sp1/nios2eds/bin/gnu/h-i686-mingw32/bin/../lib/gcc/nios2-elf/4.1.2/../../../../nios2-elf/lib\libc.a(lib_a-wbuf.o)
 .debug_info    0x00010ddf      0x95d j:/altera/13.0sp1/nios2eds/bin/gnu/h-i686-mingw32/bin/../lib/gcc/nios2-elf/4.1.2/../../../../nios2-elf/lib\libc.a(lib_a-wsetup.o)
 .debug_info    0x0001173c      0x9e2 j:/altera/13.0sp1/nios2eds/bin/gnu/h-i686-mingw32/bin/../lib/gcc/nios2-elf/4.1.2/../../../../nios2-elf/lib\libc.a(lib_a-__call_atexit.o)
 .debug_info    0x0001211e      0xd6f j:/altera/13.0sp1/nios2eds/bin/gnu/h-i686-mingw32/bin/../lib/gcc/nios2-elf/4.1.2/../../../../nios2-elf/lib\libc.a(lib_a-dtoa.o)
 .debug_info    0x00012e8d      0x9fe j:/altera/13.0sp1/nios2eds/bin/gnu/h-i686-mingw32/bin/../lib/gcc/nios2-elf/4.1.2/../../../../nios2-elf/lib\libc.a(lib_a-fflush.o)
 .debug_info    0x0001388b      0xb72 j:/altera/13.0sp1/nios2eds/bin/gnu/h-i686-mingw32/bin/../lib/gcc/nios2-elf/4.1.2/../../../../nios2-elf/lib\libc.a(lib_a-findfp.o)
 .debug_info    0x000143fd      0x9bd j:/altera/13.0sp1/nios2eds/bin/gnu/h-i686-mingw32/bin/../lib/gcc/nios2-elf/4.1.2/../../../../nios2-elf/lib\libc.a(lib_a-fputc.o)
 .debug_info    0x00014dba      0xa40 j:/altera/13.0sp1/nios2eds/bin/gnu/h-i686-mingw32/bin/../lib/gcc/nios2-elf/4.1.2/../../../../nios2-elf/lib\libc.a(lib_a-fputs.o)
 .debug_info    0x000157fa      0xbc9 j:/altera/13.0sp1/nios2eds/bin/gnu/h-i686-mingw32/bin/../lib/gcc/nios2-elf/4.1.2/../../../../nios2-elf/lib\libc.a(lib_a-freer.o)
 .debug_info    0x000163c3      0xa88 j:/altera/13.0sp1/nios2eds/bin/gnu/h-i686-mingw32/bin/../lib/gcc/nios2-elf/4.1.2/../../../../nios2-elf/lib\libc.a(lib_a-fvwrite.o)
 .debug_info    0x00016e4b      0xaed j:/altera/13.0sp1/nios2eds/bin/gnu/h-i686-mingw32/bin/../lib/gcc/nios2-elf/4.1.2/../../../../nios2-elf/lib\libc.a(lib_a-fwalk.o)
 .debug_info    0x00017938      0xb97 j:/altera/13.0sp1/nios2eds/bin/gnu/h-i686-mingw32/bin/../lib/gcc/nios2-elf/4.1.2/../../../../nios2-elf/lib\libc.a(lib_a-locale.o)
 .debug_info    0x000184cf      0xb1a j:/altera/13.0sp1/nios2eds/bin/gnu/h-i686-mingw32/bin/../lib/gcc/nios2-elf/4.1.2/../../../../nios2-elf/lib\libc.a(lib_a-makebuf.o)
 .debug_info    0x00018fe9      0xcd0 j:/altera/13.0sp1/nios2eds/bin/gnu/h-i686-mingw32/bin/../lib/gcc/nios2-elf/4.1.2/../../../../nios2-elf/lib\libc.a(lib_a-mallocr.o)
 .debug_info    0x00019cb9      0x138 j:/altera/13.0sp1/nios2eds/bin/gnu/h-i686-mingw32/bin/../lib/gcc/nios2-elf/4.1.2/../../../../nios2-elf/lib\libc.a(lib_a-memchr.o)
 .debug_info    0x00019df1     0x1437 j:/altera/13.0sp1/nios2eds/bin/gnu/h-i686-mingw32/bin/../lib/gcc/nios2-elf/4.1.2/../../../../nios2-elf/lib\libc.a(lib_a-mprec.o)
 .debug_info    0x0001b228      0xbd7 j:/altera/13.0sp1/nios2eds/bin/gnu/h-i686-mingw32/bin/../lib/gcc/nios2-elf/4.1.2/../../../../nios2-elf/lib\libc.a(lib_a-reallocr.o)
 .debug_info    0x0001bdff      0x98b j:/altera/13.0sp1/nios2eds/bin/gnu/h-i686-mingw32/bin/../lib/gcc/nios2-elf/4.1.2/../../../../nios2-elf/lib\libc.a(lib_a-refill.o)
 .debug_info    0x0001c78a       0xd7 j:/altera/13.0sp1/nios2eds/bin/gnu/h-i686-mingw32/bin/../lib/gcc/nios2-elf/4.1.2/../../../../nios2-elf/lib\libc.a(lib_a-s_isinfd.o)
 .debug_info    0x0001c861       0xd5 j:/altera/13.0sp1/nios2eds/bin/gnu/h-i686-mingw32/bin/../lib/gcc/nios2-elf/4.1.2/../../../../nios2-elf/lib\libc.a(lib_a-s_isnand.o)
 .debug_info    0x0001c936      0x962 j:/altera/13.0sp1/nios2eds/bin/gnu/h-i686-mingw32/bin/../lib/gcc/nios2-elf/4.1.2/../../../../nios2-elf/lib\libc.a(lib_a-sbrkr.o)
 .debug_info    0x0001d298      0xaac j:/altera/13.0sp1/nios2eds/bin/gnu/h-i686-mingw32/bin/../lib/gcc/nios2-elf/4.1.2/../../../../nios2-elf/lib\libc.a(lib_a-stdio.o)
 .debug_info    0x0001dd44       0xdd j:/altera/13.0sp1/nios2eds/bin/gnu/h-i686-mingw32/bin/../lib/gcc/nios2-elf/4.1.2/../../../../nios2-elf/lib\libc.a(lib_a-strcmp.o)
 .debug_info    0x0001de21      0x993 j:/altera/13.0sp1/nios2eds/bin/gnu/h-i686-mingw32/bin/../lib/gcc/nios2-elf/4.1.2/../../../../nios2-elf/lib\libc.a(lib_a-writer.o)
 .debug_info    0x0001e7b4      0xa1b j:/altera/13.0sp1/nios2eds/bin/gnu/h-i686-mingw32/bin/../lib/gcc/nios2-elf/4.1.2/../../../../nios2-elf/lib\libc.a(lib_a-callocr.o)
 .debug_info    0x0001f1cf      0x958 j:/altera/13.0sp1/nios2eds/bin/gnu/h-i686-mingw32/bin/../lib/gcc/nios2-elf/4.1.2/../../../../nios2-elf/lib\libc.a(lib_a-closer.o)
 .debug_info    0x0001fb27      0x994 j:/altera/13.0sp1/nios2eds/bin/gnu/h-i686-mingw32/bin/../lib/gcc/nios2-elf/4.1.2/../../../../nios2-elf/lib\libc.a(lib_a-fclose.o)
 .debug_info    0x000204bb      0xafc j:/altera/13.0sp1/nios2eds/bin/gnu/h-i686-mingw32/bin/../lib/gcc/nios2-elf/4.1.2/../../../../nios2-elf/lib\libc.a(lib_a-fstatr.o)
 .debug_info    0x00020fb7       0x8c j:/altera/13.0sp1/nios2eds/bin/gnu/h-i686-mingw32/bin/../lib/gcc/nios2-elf/4.1.2/../../../../nios2-elf/lib\libc.a(lib_a-int_errno.o)
 .debug_info    0x00021043      0x958 j:/altera/13.0sp1/nios2eds/bin/gnu/h-i686-mingw32/bin/../lib/gcc/nios2-elf/4.1.2/../../../../nios2-elf/lib\libc.a(lib_a-isattyr.o)
 .debug_info    0x0002199b      0x981 j:/altera/13.0sp1/nios2eds/bin/gnu/h-i686-mingw32/bin/../lib/gcc/nios2-elf/4.1.2/../../../../nios2-elf/lib\libc.a(lib_a-lseekr.o)
 .debug_info    0x0002231c      0x98c j:/altera/13.0sp1/nios2eds/bin/gnu/h-i686-mingw32/bin/../lib/gcc/nios2-elf/4.1.2/../../../../nios2-elf/lib\libc.a(lib_a-readr.o)
 .debug_info    0x00022ca8      0x724 j:/altera/13.0sp1/nios2eds/bin/gnu/h-i686-mingw32/bin/../lib/gcc/nios2-elf/4.1.2\libgcc.a(_udivdi3.o)
 .debug_info    0x000233cc      0x751 j:/altera/13.0sp1/nios2eds/bin/gnu/h-i686-mingw32/bin/../lib/gcc/nios2-elf/4.1.2\libgcc.a(_umoddi3.o)
 .debug_info    0x00023b1d      0x39b j:/altera/13.0sp1/nios2eds/bin/gnu/h-i686-mingw32/bin/../lib/gcc/nios2-elf/4.1.2\libgcc.a(_div_df.o)
 .debug_info    0x00023eb8      0x29d j:/altera/13.0sp1/nios2eds/bin/gnu/h-i686-mingw32/bin/../lib/gcc/nios2-elf/4.1.2\libgcc.a(_eq_df.o)
 .debug_info    0x00024155      0x29d j:/altera/13.0sp1/nios2eds/bin/gnu/h-i686-mingw32/bin/../lib/gcc/nios2-elf/4.1.2\libgcc.a(_ne_df.o)
 .debug_info    0x000243f2      0x29d j:/altera/13.0sp1/nios2eds/bin/gnu/h-i686-mingw32/bin/../lib/gcc/nios2-elf/4.1.2\libgcc.a(_gt_df.o)
 .debug_info    0x0002468f      0x29d j:/altera/13.0sp1/nios2eds/bin/gnu/h-i686-mingw32/bin/../lib/gcc/nios2-elf/4.1.2\libgcc.a(_lt_df.o)
 .debug_info    0x0002492c      0x218 j:/altera/13.0sp1/nios2eds/bin/gnu/h-i686-mingw32/bin/../lib/gcc/nios2-elf/4.1.2\libgcc.a(_si_to_df.o)
 .debug_info    0x00024b44      0x21c j:/altera/13.0sp1/nios2eds/bin/gnu/h-i686-mingw32/bin/../lib/gcc/nios2-elf/4.1.2\libgcc.a(lib2-divmod.o)
 .debug_info    0x00024d60      0x21b ../simple_socket_bsp/\libucosii_bsp.a(alt_exit.o)
 .debug_info    0x00024f7b      0x600 ../simple_socket_bsp/\libucosii_bsp.a(alt_flash_dev.o)
 .debug_info    0x0002557b      0x6c7 ../simple_socket_bsp/\libucosii_bsp.a(alt_fstat.o)
 .debug_info    0x00025c42      0x47d ../simple_socket_bsp/\libucosii_bsp.a(alt_irq_register.o)
 .debug_info    0x000260bf      0x17a ../simple_socket_bsp/\libucosii_bsp.a(alt_irq_vars.o)
 .debug_info    0x00026239      0x6cd ../simple_socket_bsp/\libucosii_bsp.a(alt_isatty.o)
 .debug_info    0x00026906      0x501 ../simple_socket_bsp/\libucosii_bsp.a(alt_lseek.o)
 .debug_info    0x00026e07      0x3f0 ../simple_socket_bsp/\libucosii_bsp.a(alt_main.o)
 .debug_info    0x000271f7      0x2ca ../simple_socket_bsp/\libucosii_bsp.a(alt_sbrk.o)
 .debug_info    0x000274c1      0x247 ../simple_socket_bsp/\libucosii_bsp.a(alt_usleep.o)
 .debug_info    0x00027708     0x11e6 ../simple_socket_bsp/\libucosii_bsp.a(alt_env_lock.o)
 .debug_info    0x000288ee     0x1342 ../simple_socket_bsp/\libucosii_bsp.a(alt_malloc_lock.o)
 .debug_info    0x00029c30     0x1bfc ../simple_socket_bsp/\libucosii_bsp.a(os_core.o)
 .debug_info    0x0002b82c     0x1141 ../simple_socket_bsp/\libucosii_bsp.a(os_dbg.o)
 .debug_info    0x0002c96d     0x1257 ../simple_socket_bsp/\libucosii_bsp.a(os_flag.o)
 .debug_info    0x0002dbc4      0x821 ../simple_socket_bsp/\libucosii_bsp.a(os_mem.o)
 .debug_info    0x0002e3e5     0x1091 ../simple_socket_bsp/\libucosii_bsp.a(os_q.o)
 .debug_info    0x0002f476      0xcf9 ../simple_socket_bsp/\libucosii_bsp.a(os_sem.o)
 .debug_info    0x0003016f     0x136f ../simple_socket_bsp/\libucosii_bsp.a(os_task.o)
 .debug_info    0x000314de      0x9f3 ../simple_socket_bsp/\libucosii_bsp.a(os_time.o)
 .debug_info    0x00031ed1     0x12b3 ../simple_socket_bsp/\libucosii_bsp.a(alt_sys_init.o)
 .debug_info    0x00033184      0xb5c ../simple_socket_bsp/\libucosii_bsp.a(altera_avalon_cfi_flash.o)
 .debug_info    0x00033ce0      0xe48 ../simple_socket_bsp/\libucosii_bsp.a(altera_avalon_cfi_flash_table.o)
 .debug_info    0x00034b28      0xbbc ../simple_socket_bsp/\libucosii_bsp.a(altera_avalon_epcs_flash_controller.o)
 .debug_info    0x000356e4      0x9e5 ../simple_socket_bsp/\libucosii_bsp.a(altera_avalon_jtag_uart_fd.o)
 .debug_info    0x000360c9      0x963 ../simple_socket_bsp/\libucosii_bsp.a(altera_avalon_jtag_uart_init.o)
 .debug_info    0x00036a2c      0x64f ../simple_socket_bsp/\libucosii_bsp.a(altera_avalon_jtag_uart_ioctl.o)
 .debug_info    0x0003707b      0x80b ../simple_socket_bsp/\libucosii_bsp.a(altera_avalon_jtag_uart_read.o)
 .debug_info    0x00037886      0x802 ../simple_socket_bsp/\libucosii_bsp.a(altera_avalon_jtag_uart_write.o)
 .debug_info    0x00038088      0xab1 ../simple_socket_bsp/\libucosii_bsp.a(altera_avalon_lcd_16207.o)
 .debug_info    0x00038b39      0x849 ../simple_socket_bsp/\libucosii_bsp.a(altera_avalon_lcd_16207_fd.o)
 .debug_info    0x00039382      0x39e ../simple_socket_bsp/\libucosii_bsp.a(altera_avalon_timer_sc.o)
 .debug_info    0x00039720      0x885 ../simple_socket_bsp/\libucosii_bsp.a(altera_avalon_uart_fd.o)
 .debug_info    0x00039fa5      0x851 ../simple_socket_bsp/\libucosii_bsp.a(altera_avalon_uart_init.o)
 .debug_info    0x0003a7f6      0x7d3 ../simple_socket_bsp/\libucosii_bsp.a(altera_avalon_uart_read.o)
 .debug_info    0x0003afc9      0x7c2 ../simple_socket_bsp/\libucosii_bsp.a(altera_avalon_uart_write.o)
 .debug_info    0x0003b78b      0x64f ../simple_socket_bsp/\libucosii_bsp.a(epcs_commands.o)
 .debug_info    0x0003bdda      0x1c9 ../simple_socket_bsp/\libucosii_bsp.a(alt_iniche_close.o)
 .debug_info    0x0003bfa3      0xb70 ../simple_socket_bsp/\libucosii_bsp.a(alt_iniche_dev.o)
 .debug_info    0x0003cb13      0x1f3 ../simple_socket_bsp/\libucosii_bsp.a(alt_iniche_read.o)
 .debug_info    0x0003cd06      0x1fa ../simple_socket_bsp/\libucosii_bsp.a(alt_iniche_write.o)
 .debug_info    0x0003cf00      0xc5c ../simple_socket_bsp/\libucosii_bsp.a(ipnet.o)
 .debug_info    0x0003db5c      0xbaf ../simple_socket_bsp/\libucosii_bsp.a(ipstart.o)
 .debug_info    0x0003e70b     0x1543 ../simple_socket_bsp/\libucosii_bsp.a(igmp_cmn.o)
 .debug_info    0x0003fc4e     0x1473 ../simple_socket_bsp/\libucosii_bsp.a(bsdsock.o)
 .debug_info    0x000410c1      0x265 ../simple_socket_bsp/\libucosii_bsp.a(cksum.o)
 .debug_info    0x00041326      0x757 ../simple_socket_bsp/\libucosii_bsp.a(in_utils.o)
 .debug_info    0x00041a7d      0x571 ../simple_socket_bsp/\libucosii_bsp.a(netmain.o)
 .debug_info    0x00041fee      0x6fd ../simple_socket_bsp/\libucosii_bsp.a(parseip.o)
 .debug_info    0x000426eb      0x97e ../simple_socket_bsp/\libucosii_bsp.a(tk_crnos.o)
 .debug_info    0x00043069     0x160c ../simple_socket_bsp/\libucosii_bsp.a(dhcpclnt.o)
 .debug_info    0x00044675      0x1ef ../simple_socket_bsp/\libucosii_bsp.a(dhcputil.o)
 .debug_info    0x00044864      0xcbb ../simple_socket_bsp/\libucosii_bsp.a(pktalloc.o)
 .debug_info    0x0004551f      0x2ff ../simple_socket_bsp/\libucosii_bsp.a(q.o)
 .debug_info    0x0004581e      0xb3a ../simple_socket_bsp/\libucosii_bsp.a(udp_open.o)
 .debug_info    0x00046358       0xa0 ../simple_socket_bsp/\libucosii_bsp.a(asm_cksum.o)
 .debug_info    0x000463f8      0xec0 ../simple_socket_bsp/\libucosii_bsp.a(brdutils.o)
 .debug_info    0x000472b8      0x6f2 ../simple_socket_bsp/\libucosii_bsp.a(osportco.o)
 .debug_info    0x000479aa      0x66f ../simple_socket_bsp/\libucosii_bsp.a(targnios.o)
 .debug_info    0x00048019     0x2536 ../simple_socket_bsp/\libucosii_bsp.a(nptcp.o)
 .debug_info    0x0004a54f     0x11ee ../simple_socket_bsp/\libucosii_bsp.a(rawsock.o)
 .debug_info    0x0004b73d     0x1cac ../simple_socket_bsp/\libucosii_bsp.a(sockcall.o)
 .debug_info    0x0004d3e9     0x1ab2 ../simple_socket_bsp/\libucosii_bsp.a(socket.o)
 .debug_info    0x0004ee9b     0x1578 ../simple_socket_bsp/\libucosii_bsp.a(socket2.o)
 .debug_info    0x00050413     0x1291 ../simple_socket_bsp/\libucosii_bsp.a(soselect.o)
 .debug_info    0x000516a4     0x2143 ../simple_socket_bsp/\libucosii_bsp.a(tcp_in.o)
 .debug_info    0x000537e7     0x1e32 ../simple_socket_bsp/\libucosii_bsp.a(tcp_out.o)
 .debug_info    0x00055619     0x1e9a ../simple_socket_bsp/\libucosii_bsp.a(tcp_subr.o)
 .debug_info    0x000574b3     0x1cb5 ../simple_socket_bsp/\libucosii_bsp.a(tcp_timr.o)
 .debug_info    0x00059168     0x1c72 ../simple_socket_bsp/\libucosii_bsp.a(tcp_usr.o)
 .debug_info    0x0005adda      0x1c5 ../simple_socket_bsp/\libucosii_bsp.a(tcpport.o)
 .debug_info    0x0005af9f     0x1348 ../simple_socket_bsp/\libucosii_bsp.a(udpsock.o)
 .debug_info    0x0005c2e7      0x455 ../simple_socket_bsp/\libucosii_bsp.a(alt_alarm_start.o)
 .debug_info    0x0005c73c      0x1be ../simple_socket_bsp/\libucosii_bsp.a(alt_busy_sleep.o)
 .debug_info    0x0005c8fa      0x4d2 ../simple_socket_bsp/\libucosii_bsp.a(alt_close.o)
 .debug_info    0x0005cdcc      0x1b7 ../simple_socket_bsp/\libucosii_bsp.a(alt_dcache_flush.o)
 .debug_info    0x0005cf83      0x7f0 ../simple_socket_bsp/\libucosii_bsp.a(alt_dev.o)
 .debug_info    0x0005d773      0x2ca ../simple_socket_bsp/\libucosii_bsp.a(alt_dev_llist_insert.o)
 .debug_info    0x0005da3d      0x122 ../simple_socket_bsp/\libucosii_bsp.a(alt_do_ctors.o)
 .debug_info    0x0005db5f      0x121 ../simple_socket_bsp/\libucosii_bsp.a(alt_do_dtors.o)
 .debug_info    0x0005dc80      0x177 ../simple_socket_bsp/\libucosii_bsp.a(alt_errno.o)
 .debug_info    0x0005ddf7      0x47f ../simple_socket_bsp/\libucosii_bsp.a(alt_find_dev.o)
 .debug_info    0x0005e276      0x4a6 ../simple_socket_bsp/\libucosii_bsp.a(alt_iic.o)
 .debug_info    0x0005e71c      0x327 ../simple_socket_bsp/\libucosii_bsp.a(alt_iic_isr_register.o)
 .debug_info    0x0005ea43      0x6fc ../simple_socket_bsp/\libucosii_bsp.a(alt_io_redirect.o)
 .debug_info    0x0005f13f       0x97 ../simple_socket_bsp/\libucosii_bsp.a(alt_irq_entry.o)
 .debug_info    0x0005f1d6      0x2cd ../simple_socket_bsp/\libucosii_bsp.a(alt_irq_handler.o)
 .debug_info    0x0005f4a3      0x57d ../simple_socket_bsp/\libucosii_bsp.a(alt_open.o)
 .debug_info    0x0005fa20      0x6f5 ../simple_socket_bsp/\libucosii_bsp.a(alt_read.o)
 .debug_info    0x00060115      0x462 ../simple_socket_bsp/\libucosii_bsp.a(alt_release_fd.o)
 .debug_info    0x00060577      0x1a4 ../simple_socket_bsp/\libucosii_bsp.a(alt_remap_cached.o)
 .debug_info    0x0006071b      0x1a8 ../simple_socket_bsp/\libucosii_bsp.a(alt_remap_uncached.o)
 .debug_info    0x000608c3      0x424 ../simple_socket_bsp/\libucosii_bsp.a(alt_tick.o)
 .debug_info    0x00060ce7      0x6fe ../simple_socket_bsp/\libucosii_bsp.a(alt_write.o)
 .debug_info    0x000613e5      0x176 ../simple_socket_bsp/\libucosii_bsp.a(altera_nios2_qsys_irq.o)
 .debug_info    0x0006155b       0x96 ../simple_socket_bsp/\libucosii_bsp.a(os_cpu_a.o)
 .debug_info    0x000615f1     0x12e6 ../simple_socket_bsp/\libucosii_bsp.a(os_cpu_c.o)
 .debug_info    0x000628d7      0x8fc ../simple_socket_bsp/\libucosii_bsp.a(altera_avalon_cfi_flash_amd.o)
 .debug_info    0x000631d3      0x8f2 ../simple_socket_bsp/\libucosii_bsp.a(altera_avalon_cfi_flash_intel.o)
 .debug_info    0x00063ac5      0x2bc ../simple_socket_bsp/\libucosii_bsp.a(altera_avalon_spi.o)
 .debug_info    0x00063d81      0xdb2 ../simple_socket_bsp/\libucosii_bsp.a(allports.o)
 .debug_info    0x00064b33      0x3d4 ../simple_socket_bsp/\libucosii_bsp.a(timeouts.o)
 .debug_info    0x00064f07      0x233 ../simple_socket_bsp/\libucosii_bsp.a(tk_misc.o)
 .debug_info    0x0006513a      0x220 ../simple_socket_bsp/\libucosii_bsp.a(alt_iniche_fcntl.o)
 .debug_info    0x0006535a     0x128c ../simple_socket_bsp/\libucosii_bsp.a(et_arp.o)
 .debug_info    0x000665e6      0xfaa ../simple_socket_bsp/\libucosii_bsp.a(iface.o)
 .debug_info    0x00067590     0x1717 ../simple_socket_bsp/\libucosii_bsp.a(ip.o)
 .debug_info    0x00068ca7     0x187b ../simple_socket_bsp/\libucosii_bsp.a(ip_reasm.o)
 .debug_info    0x0006a522      0xdfc ../simple_socket_bsp/\libucosii_bsp.a(ipdemux.o)
 .debug_info    0x0006b31e      0xa58 ../simple_socket_bsp/\libucosii_bsp.a(ipmc.o)
 .debug_info    0x0006bd76      0x2f6 ../simple_socket_bsp/\libucosii_bsp.a(ipport.o)
 .debug_info    0x0006c06c      0xf69 ../simple_socket_bsp/\libucosii_bsp.a(ipraw.o)
 .debug_info    0x0006cfd5      0xf14 ../simple_socket_bsp/\libucosii_bsp.a(iproute.o)
 .debug_info    0x0006dee9     0x12ab ../simple_socket_bsp/\libucosii_bsp.a(udp.o)
 .debug_info    0x0006f194     0x1145 ../simple_socket_bsp/\libucosii_bsp.a(igmp.o)
 .debug_info    0x000702d9     0x1379 ../simple_socket_bsp/\libucosii_bsp.a(igmp2.o)
 .debug_info    0x00071652     0x10f4 ../simple_socket_bsp/\libucosii_bsp.a(ipopt.o)
 .debug_info    0x00072746      0xbcc ../simple_socket_bsp/\libucosii_bsp.a(u_mctest.o)
 .debug_info    0x00073312      0xa6a ../simple_socket_bsp/\libucosii_bsp.a(dhcsetup.o)
 .debug_info    0x00073d7c      0x752 ../simple_socket_bsp/\libucosii_bsp.a(memdev.o)
 .debug_info    0x000744ce      0x3f7 ../simple_socket_bsp/\libucosii_bsp.a(tcpcksum.o)
 .debug_info    0x000748c5     0x12c6 ../simple_socket_bsp/\libucosii_bsp.a(in_pcb.o)
 .debug_info    0x00075b8b      0xff7 ../simple_socket_bsp/\libucosii_bsp.a(vfsfiles.o)
 .debug_info    0x00076b82      0x1c6 ../simple_socket_bsp/\libucosii_bsp.a(vfsport.o)
 .debug_info    0x00076d48       0x9d ../simple_socket_bsp/\libucosii_bsp.a(alt_exception_entry.o)
 .debug_info    0x00076de5      0x713 ../simple_socket_bsp/\libucosii_bsp.a(alt_fcntl.o)
 .debug_info    0x000774f8      0x486 ../simple_socket_bsp/\libucosii_bsp.a(alt_find_file.o)
 .debug_info    0x0007797e      0x618 ../simple_socket_bsp/\libucosii_bsp.a(alt_get_fd.o)
 .debug_info    0x00077f96     0x1199 ../simple_socket_bsp/\libucosii_bsp.a(icmp.o)
 .debug_info    0x0007912f      0x181 j:/altera/13.0sp1/nios2eds/bin/gnu/h-i686-mingw32/bin/../lib/gcc/nios2-elf/4.1.2/../../../../nios2-elf/lib\libc.a(lib_a-atexit.o)
 .debug_info    0x000792b0      0x960 j:/altera/13.0sp1/nios2eds/bin/gnu/h-i686-mingw32/bin/../lib/gcc/nios2-elf/4.1.2/../../../../nios2-elf/lib\libc.a(lib_a-atoi.o)
 .debug_info    0x00079c10      0x954 j:/altera/13.0sp1/nios2eds/bin/gnu/h-i686-mingw32/bin/../lib/gcc/nios2-elf/4.1.2/../../../../nios2-elf/lib\libc.a(lib_a-calloc.o)
 .debug_info    0x0007a564      0x96e j:/altera/13.0sp1/nios2eds/bin/gnu/h-i686-mingw32/bin/../lib/gcc/nios2-elf/4.1.2/../../../../nios2-elf/lib\libc.a(lib_a-malloc.o)
 .debug_info    0x0007aed2      0x115 j:/altera/13.0sp1/nios2eds/bin/gnu/h-i686-mingw32/bin/../lib/gcc/nios2-elf/4.1.2/../../../../nios2-elf/lib\libc.a(lib_a-memcmp.o)
 .debug_info    0x0007afe7      0xa16 j:/altera/13.0sp1/nios2eds/bin/gnu/h-i686-mingw32/bin/../lib/gcc/nios2-elf/4.1.2/../../../../nios2-elf/lib\libc.a(lib_a-sprintf.o)
 .debug_info    0x0007b9fd      0x110 j:/altera/13.0sp1/nios2eds/bin/gnu/h-i686-mingw32/bin/../lib/gcc/nios2-elf/4.1.2/../../../../nios2-elf/lib\libc.a(lib_a-strcpy.o)
 .debug_info    0x0007bb0d       0xf5 j:/altera/13.0sp1/nios2eds/bin/gnu/h-i686-mingw32/bin/../lib/gcc/nios2-elf/4.1.2/../../../../nios2-elf/lib\libc.a(lib_a-strncmp.o)
 .debug_info    0x0007bc02      0x12a j:/altera/13.0sp1/nios2eds/bin/gnu/h-i686-mingw32/bin/../lib/gcc/nios2-elf/4.1.2/../../../../nios2-elf/lib\libc.a(lib_a-strncpy.o)
 .debug_info    0x0007bd2c      0xa2a j:/altera/13.0sp1/nios2eds/bin/gnu/h-i686-mingw32/bin/../lib/gcc/nios2-elf/4.1.2/../../../../nios2-elf/lib\libc.a(lib_a-strtol.o)
 .debug_info    0x0007c756      0x9aa j:/altera/13.0sp1/nios2eds/bin/gnu/h-i686-mingw32/bin/../lib/gcc/nios2-elf/4.1.2/../../../../nios2-elf/lib\libc.a(lib_a-vprintf.o)
 .debug_info    0x0007d100      0x9ed j:/altera/13.0sp1/nios2eds/bin/gnu/h-i686-mingw32/bin/../lib/gcc/nios2-elf/4.1.2/../../../../nios2-elf/lib\libc.a(lib_a-vsprintf.o)
 .debug_info    0x0007daed      0x99c j:/altera/13.0sp1/nios2eds/bin/gnu/h-i686-mingw32/bin/../lib/gcc/nios2-elf/4.1.2/../../../../nios2-elf/lib\libc.a(lib_a-__atexit.o)

.debug_abbrev   0x00000000    0x125ac
 *(.debug_abbrev)
 .debug_abbrev  0x00000000       0x14 ../simple_socket_bsp//obj/HAL/src/crt0.o
 .debug_abbrev  0x00000014       0xa9 obj/default/LCD.o
 .debug_abbrev  0x000000bd      0x15c obj/default/SSS_DE2_115.o
 .debug_abbrev  0x00000219      0x1f1 obj/default/alt_error_handler.o
 .debug_abbrev  0x0000040a      0x231 obj/default/dm9000a.o
 .debug_abbrev  0x0000063b      0x197 obj/default/iniche_init.o
 .debug_abbrev  0x000007d2       0xf5 obj/default/led.o
 .debug_abbrev  0x000008c7      0x282 obj/default/network_utilities.o
 .debug_abbrev  0x00000b49      0x1c4 obj/default/simple_socket_server.o
 .debug_abbrev  0x00000d0d        0x1 obj/default/tse_my_system.o
 .debug_abbrev  0x00000d0e       0x5d j:/altera/13.0sp1/nios2eds/bin/gnu/h-i686-mingw32/bin/../lib/gcc/nios2-elf/4.1.2\libgcc.a(_fixunsdfsi.o)
 .debug_abbrev  0x00000d6b      0x1d2 j:/altera/13.0sp1/nios2eds/bin/gnu/h-i686-mingw32/bin/../lib/gcc/nios2-elf/4.1.2\libgcc.a(_addsub_df.o)
 .debug_abbrev  0x00000f3d      0x204 j:/altera/13.0sp1/nios2eds/bin/gnu/h-i686-mingw32/bin/../lib/gcc/nios2-elf/4.1.2\libgcc.a(_mul_df.o)
 .debug_abbrev  0x00001141      0x151 j:/altera/13.0sp1/nios2eds/bin/gnu/h-i686-mingw32/bin/../lib/gcc/nios2-elf/4.1.2\libgcc.a(_ge_df.o)
 .debug_abbrev  0x00001292      0x176 j:/altera/13.0sp1/nios2eds/bin/gnu/h-i686-mingw32/bin/../lib/gcc/nios2-elf/4.1.2\libgcc.a(_df_to_si.o)
 .debug_abbrev  0x00001408       0xba j:/altera/13.0sp1/nios2eds/bin/gnu/h-i686-mingw32/bin/../lib/gcc/nios2-elf/4.1.2\libgcc.a(_thenan_df.o)
 .debug_abbrev  0x000014c2      0x155 j:/altera/13.0sp1/nios2eds/bin/gnu/h-i686-mingw32/bin/../lib/gcc/nios2-elf/4.1.2\libgcc.a(_usi_to_df.o)
 .debug_abbrev  0x00001617       0xee j:/altera/13.0sp1/nios2eds/bin/gnu/h-i686-mingw32/bin/../lib/gcc/nios2-elf/4.1.2\libgcc.a(_muldi3.o)
 .debug_abbrev  0x00001705       0xb9 j:/altera/13.0sp1/nios2eds/bin/gnu/h-i686-mingw32/bin/../lib/gcc/nios2-elf/4.1.2\libgcc.a(_clzsi2.o)
 .debug_abbrev  0x000017be      0x1b1 j:/altera/13.0sp1/nios2eds/bin/gnu/h-i686-mingw32/bin/../lib/gcc/nios2-elf/4.1.2\libgcc.a(_pack_df.o)
 .debug_abbrev  0x0000196f      0x149 j:/altera/13.0sp1/nios2eds/bin/gnu/h-i686-mingw32/bin/../lib/gcc/nios2-elf/4.1.2\libgcc.a(_unpack_df.o)
 .debug_abbrev  0x00001ab8      0x132 j:/altera/13.0sp1/nios2eds/bin/gnu/h-i686-mingw32/bin/../lib/gcc/nios2-elf/4.1.2\libgcc.a(_fpcmp_parts_df.o)
 .debug_abbrev  0x00001bea       0x61 j:/altera/13.0sp1/nios2eds/bin/gnu/h-i686-mingw32/bin/../lib/gcc/nios2-elf/4.1.2\libgcc.a(_clz.o)
 .debug_abbrev  0x00001c4b       0x61 j:/altera/13.0sp1/nios2eds/bin/gnu/h-i686-mingw32/bin/../lib/gcc/nios2-elf/4.1.2/../../../../nios2-elf/lib\libc.a(lib_a-ctype_.o)
 .debug_abbrev  0x00001cac      0x16e j:/altera/13.0sp1/nios2eds/bin/gnu/h-i686-mingw32/bin/../lib/gcc/nios2-elf/4.1.2/../../../../nios2-elf/lib\libc.a(lib_a-exit.o)
 .debug_abbrev  0x00001e1a      0x197 j:/altera/13.0sp1/nios2eds/bin/gnu/h-i686-mingw32/bin/../lib/gcc/nios2-elf/4.1.2/../../../../nios2-elf/lib\libc.a(lib_a-fprintf.o)
 .debug_abbrev  0x00001fb1      0x1b1 j:/altera/13.0sp1/nios2eds/bin/gnu/h-i686-mingw32/bin/../lib/gcc/nios2-elf/4.1.2/../../../../nios2-elf/lib\libc.a(lib_a-fwrite.o)
 .debug_abbrev  0x00002162      0x17f j:/altera/13.0sp1/nios2eds/bin/gnu/h-i686-mingw32/bin/../lib/gcc/nios2-elf/4.1.2/../../../../nios2-elf/lib\libc.a(lib_a-getc.o)
 .debug_abbrev  0x000022e1      0x157 j:/altera/13.0sp1/nios2eds/bin/gnu/h-i686-mingw32/bin/../lib/gcc/nios2-elf/4.1.2/../../../../nios2-elf/lib\libc.a(lib_a-impure.o)
 .debug_abbrev  0x00002438       0xb5 j:/altera/13.0sp1/nios2eds/bin/gnu/h-i686-mingw32/bin/../lib/gcc/nios2-elf/4.1.2/../../../../nios2-elf/lib\libc.a(lib_a-memcpy.o)
 .debug_abbrev  0x000024ed       0xb5 j:/altera/13.0sp1/nios2eds/bin/gnu/h-i686-mingw32/bin/../lib/gcc/nios2-elf/4.1.2/../../../../nios2-elf/lib\libc.a(lib_a-memmove.o)
 .debug_abbrev  0x000025a2       0xb8 j:/altera/13.0sp1/nios2eds/bin/gnu/h-i686-mingw32/bin/../lib/gcc/nios2-elf/4.1.2/../../../../nios2-elf/lib\libc.a(lib_a-memset.o)
 .debug_abbrev  0x0000265a      0x194 j:/altera/13.0sp1/nios2eds/bin/gnu/h-i686-mingw32/bin/../lib/gcc/nios2-elf/4.1.2/../../../../nios2-elf/lib\libc.a(lib_a-perror.o)
 .debug_abbrev  0x000027ee      0x191 j:/altera/13.0sp1/nios2eds/bin/gnu/h-i686-mingw32/bin/../lib/gcc/nios2-elf/4.1.2/../../../../nios2-elf/lib\libc.a(lib_a-printf.o)
 .debug_abbrev  0x0000297f      0x17f j:/altera/13.0sp1/nios2eds/bin/gnu/h-i686-mingw32/bin/../lib/gcc/nios2-elf/4.1.2/../../../../nios2-elf/lib\libc.a(lib_a-putc.o)
 .debug_abbrev  0x00002afe      0x170 j:/altera/13.0sp1/nios2eds/bin/gnu/h-i686-mingw32/bin/../lib/gcc/nios2-elf/4.1.2/../../../../nios2-elf/lib\libc.a(lib_a-putchar.o)
 .debug_abbrev  0x00002c6e      0x1ac j:/altera/13.0sp1/nios2eds/bin/gnu/h-i686-mingw32/bin/../lib/gcc/nios2-elf/4.1.2/../../../../nios2-elf/lib\libc.a(lib_a-puts.o)
 .debug_abbrev  0x00002e1a      0x189 j:/altera/13.0sp1/nios2eds/bin/gnu/h-i686-mingw32/bin/../lib/gcc/nios2-elf/4.1.2/../../../../nios2-elf/lib\libc.a(lib_a-rget.o)
 .debug_abbrev  0x00002fa3       0x80 j:/altera/13.0sp1/nios2eds/bin/gnu/h-i686-mingw32/bin/../lib/gcc/nios2-elf/4.1.2/../../../../nios2-elf/lib\libc.a(lib_a-strchr.o)
 .debug_abbrev  0x00003023       0x68 j:/altera/13.0sp1/nios2eds/bin/gnu/h-i686-mingw32/bin/../lib/gcc/nios2-elf/4.1.2/../../../../nios2-elf/lib\libc.a(lib_a-strerror.o)
 .debug_abbrev  0x0000308b       0x8b j:/altera/13.0sp1/nios2eds/bin/gnu/h-i686-mingw32/bin/../lib/gcc/nios2-elf/4.1.2/../../../../nios2-elf/lib\libc.a(lib_a-strlen.o)
 .debug_abbrev  0x00003116       0x5b j:/altera/13.0sp1/nios2eds/bin/gnu/h-i686-mingw32/bin/../lib/gcc/nios2-elf/4.1.2/../../../../nios2-elf/lib\libc.a(lib_a-u_strerr.o)
 .debug_abbrev  0x00003171      0x30a j:/altera/13.0sp1/nios2eds/bin/gnu/h-i686-mingw32/bin/../lib/gcc/nios2-elf/4.1.2/../../../../nios2-elf/lib\libc.a(lib_a-vfprintf.o)
 .debug_abbrev  0x0000347b      0x198 j:/altera/13.0sp1/nios2eds/bin/gnu/h-i686-mingw32/bin/../lib/gcc/nios2-elf/4.1.2/../../../../nios2-elf/lib\libc.a(lib_a-wbuf.o)
 .debug_abbrev  0x00003613      0x170 j:/altera/13.0sp1/nios2eds/bin/gnu/h-i686-mingw32/bin/../lib/gcc/nios2-elf/4.1.2/../../../../nios2-elf/lib\libc.a(lib_a-wsetup.o)
 .debug_abbrev  0x00003783      0x1de j:/altera/13.0sp1/nios2eds/bin/gnu/h-i686-mingw32/bin/../lib/gcc/nios2-elf/4.1.2/../../../../nios2-elf/lib\libc.a(lib_a-__call_atexit.o)
 .debug_abbrev  0x00003961      0x232 j:/altera/13.0sp1/nios2eds/bin/gnu/h-i686-mingw32/bin/../lib/gcc/nios2-elf/4.1.2/../../../../nios2-elf/lib\libc.a(lib_a-dtoa.o)
 .debug_abbrev  0x00003b93      0x1c6 j:/altera/13.0sp1/nios2eds/bin/gnu/h-i686-mingw32/bin/../lib/gcc/nios2-elf/4.1.2/../../../../nios2-elf/lib\libc.a(lib_a-fflush.o)
 .debug_abbrev  0x00003d59      0x24c j:/altera/13.0sp1/nios2eds/bin/gnu/h-i686-mingw32/bin/../lib/gcc/nios2-elf/4.1.2/../../../../nios2-elf/lib\libc.a(lib_a-findfp.o)
 .debug_abbrev  0x00003fa5      0x18c j:/altera/13.0sp1/nios2eds/bin/gnu/h-i686-mingw32/bin/../lib/gcc/nios2-elf/4.1.2/../../../../nios2-elf/lib\libc.a(lib_a-fputc.o)
 .debug_abbrev  0x00004131      0x1aa j:/altera/13.0sp1/nios2eds/bin/gnu/h-i686-mingw32/bin/../lib/gcc/nios2-elf/4.1.2/../../../../nios2-elf/lib\libc.a(lib_a-fputs.o)
 .debug_abbrev  0x000042db      0x1d9 j:/altera/13.0sp1/nios2eds/bin/gnu/h-i686-mingw32/bin/../lib/gcc/nios2-elf/4.1.2/../../../../nios2-elf/lib\libc.a(lib_a-freer.o)
 .debug_abbrev  0x000044b4      0x1a3 j:/altera/13.0sp1/nios2eds/bin/gnu/h-i686-mingw32/bin/../lib/gcc/nios2-elf/4.1.2/../../../../nios2-elf/lib\libc.a(lib_a-fvwrite.o)
 .debug_abbrev  0x00004657      0x1e3 j:/altera/13.0sp1/nios2eds/bin/gnu/h-i686-mingw32/bin/../lib/gcc/nios2-elf/4.1.2/../../../../nios2-elf/lib\libc.a(lib_a-fwalk.o)
 .debug_abbrev  0x0000483a      0x1ed j:/altera/13.0sp1/nios2eds/bin/gnu/h-i686-mingw32/bin/../lib/gcc/nios2-elf/4.1.2/../../../../nios2-elf/lib\libc.a(lib_a-locale.o)
 .debug_abbrev  0x00004a27      0x197 j:/altera/13.0sp1/nios2eds/bin/gnu/h-i686-mingw32/bin/../lib/gcc/nios2-elf/4.1.2/../../../../nios2-elf/lib\libc.a(lib_a-makebuf.o)
 .debug_abbrev  0x00004bbe      0x216 j:/altera/13.0sp1/nios2eds/bin/gnu/h-i686-mingw32/bin/../lib/gcc/nios2-elf/4.1.2/../../../../nios2-elf/lib\libc.a(lib_a-mallocr.o)
 .debug_abbrev  0x00004dd4       0xb5 j:/altera/13.0sp1/nios2eds/bin/gnu/h-i686-mingw32/bin/../lib/gcc/nios2-elf/4.1.2/../../../../nios2-elf/lib\libc.a(lib_a-memchr.o)
 .debug_abbrev  0x00004e89      0x297 j:/altera/13.0sp1/nios2eds/bin/gnu/h-i686-mingw32/bin/../lib/gcc/nios2-elf/4.1.2/../../../../nios2-elf/lib\libc.a(lib_a-mprec.o)
 .debug_abbrev  0x00005120      0x1c3 j:/altera/13.0sp1/nios2eds/bin/gnu/h-i686-mingw32/bin/../lib/gcc/nios2-elf/4.1.2/../../../../nios2-elf/lib\libc.a(lib_a-reallocr.o)
 .debug_abbrev  0x000052e3      0x187 j:/altera/13.0sp1/nios2eds/bin/gnu/h-i686-mingw32/bin/../lib/gcc/nios2-elf/4.1.2/../../../../nios2-elf/lib\libc.a(lib_a-refill.o)
 .debug_abbrev  0x0000546a       0x79 j:/altera/13.0sp1/nios2eds/bin/gnu/h-i686-mingw32/bin/../lib/gcc/nios2-elf/4.1.2/../../../../nios2-elf/lib\libc.a(lib_a-s_isinfd.o)
 .debug_abbrev  0x000054e3       0x79 j:/altera/13.0sp1/nios2eds/bin/gnu/h-i686-mingw32/bin/../lib/gcc/nios2-elf/4.1.2/../../../../nios2-elf/lib\libc.a(lib_a-s_isnand.o)
 .debug_abbrev  0x0000555c      0x18c j:/altera/13.0sp1/nios2eds/bin/gnu/h-i686-mingw32/bin/../lib/gcc/nios2-elf/4.1.2/../../../../nios2-elf/lib\libc.a(lib_a-sbrkr.o)
 .debug_abbrev  0x000056e8      0x1c9 j:/altera/13.0sp1/nios2eds/bin/gnu/h-i686-mingw32/bin/../lib/gcc/nios2-elf/4.1.2/../../../../nios2-elf/lib\libc.a(lib_a-stdio.o)
 .debug_abbrev  0x000058b1       0x80 j:/altera/13.0sp1/nios2eds/bin/gnu/h-i686-mingw32/bin/../lib/gcc/nios2-elf/4.1.2/../../../../nios2-elf/lib\libc.a(lib_a-strcmp.o)
 .debug_abbrev  0x00005931      0x184 j:/altera/13.0sp1/nios2eds/bin/gnu/h-i686-mingw32/bin/../lib/gcc/nios2-elf/4.1.2/../../../../nios2-elf/lib\libc.a(lib_a-writer.o)
 .debug_abbrev  0x00005ab5      0x1b8 j:/altera/13.0sp1/nios2eds/bin/gnu/h-i686-mingw32/bin/../lib/gcc/nios2-elf/4.1.2/../../../../nios2-elf/lib\libc.a(lib_a-callocr.o)
 .debug_abbrev  0x00005c6d      0x17f j:/altera/13.0sp1/nios2eds/bin/gnu/h-i686-mingw32/bin/../lib/gcc/nios2-elf/4.1.2/../../../../nios2-elf/lib\libc.a(lib_a-closer.o)
 .debug_abbrev  0x00005dec      0x1a7 j:/altera/13.0sp1/nios2eds/bin/gnu/h-i686-mingw32/bin/../lib/gcc/nios2-elf/4.1.2/../../../../nios2-elf/lib\libc.a(lib_a-fclose.o)
 .debug_abbrev  0x00005f93      0x18e j:/altera/13.0sp1/nios2eds/bin/gnu/h-i686-mingw32/bin/../lib/gcc/nios2-elf/4.1.2/../../../../nios2-elf/lib\libc.a(lib_a-fstatr.o)
 .debug_abbrev  0x00006121       0x3b j:/altera/13.0sp1/nios2eds/bin/gnu/h-i686-mingw32/bin/../lib/gcc/nios2-elf/4.1.2/../../../../nios2-elf/lib\libc.a(lib_a-int_errno.o)
 .debug_abbrev  0x0000615c      0x17f j:/altera/13.0sp1/nios2eds/bin/gnu/h-i686-mingw32/bin/../lib/gcc/nios2-elf/4.1.2/../../../../nios2-elf/lib\libc.a(lib_a-isattyr.o)
 .debug_abbrev  0x000062db      0x18e j:/altera/13.0sp1/nios2eds/bin/gnu/h-i686-mingw32/bin/../lib/gcc/nios2-elf/4.1.2/../../../../nios2-elf/lib\libc.a(lib_a-lseekr.o)
 .debug_abbrev  0x00006469      0x17f j:/altera/13.0sp1/nios2eds/bin/gnu/h-i686-mingw32/bin/../lib/gcc/nios2-elf/4.1.2/../../../../nios2-elf/lib\libc.a(lib_a-readr.o)
 .debug_abbrev  0x000065e8      0x16b j:/altera/13.0sp1/nios2eds/bin/gnu/h-i686-mingw32/bin/../lib/gcc/nios2-elf/4.1.2\libgcc.a(_udivdi3.o)
 .debug_abbrev  0x00006753      0x18e j:/altera/13.0sp1/nios2eds/bin/gnu/h-i686-mingw32/bin/../lib/gcc/nios2-elf/4.1.2\libgcc.a(_umoddi3.o)
 .debug_abbrev  0x000068e1      0x1e3 j:/altera/13.0sp1/nios2eds/bin/gnu/h-i686-mingw32/bin/../lib/gcc/nios2-elf/4.1.2\libgcc.a(_div_df.o)
 .debug_abbrev  0x00006ac4      0x151 j:/altera/13.0sp1/nios2eds/bin/gnu/h-i686-mingw32/bin/../lib/gcc/nios2-elf/4.1.2\libgcc.a(_eq_df.o)
 .debug_abbrev  0x00006c15      0x151 j:/altera/13.0sp1/nios2eds/bin/gnu/h-i686-mingw32/bin/../lib/gcc/nios2-elf/4.1.2\libgcc.a(_ne_df.o)
 .debug_abbrev  0x00006d66      0x151 j:/altera/13.0sp1/nios2eds/bin/gnu/h-i686-mingw32/bin/../lib/gcc/nios2-elf/4.1.2\libgcc.a(_gt_df.o)
 .debug_abbrev  0x00006eb7      0x151 j:/altera/13.0sp1/nios2eds/bin/gnu/h-i686-mingw32/bin/../lib/gcc/nios2-elf/4.1.2\libgcc.a(_lt_df.o)
 .debug_abbrev  0x00007008      0x13f j:/altera/13.0sp1/nios2eds/bin/gnu/h-i686-mingw32/bin/../lib/gcc/nios2-elf/4.1.2\libgcc.a(_si_to_df.o)
 .debug_abbrev  0x00007147       0xe0 j:/altera/13.0sp1/nios2eds/bin/gnu/h-i686-mingw32/bin/../lib/gcc/nios2-elf/4.1.2\libgcc.a(lib2-divmod.o)
 .debug_abbrev  0x00007227       0xaa ../simple_socket_bsp/\libucosii_bsp.a(alt_exit.o)
 .debug_abbrev  0x000072d1      0x128 ../simple_socket_bsp/\libucosii_bsp.a(alt_flash_dev.o)
 .debug_abbrev  0x000073f9      0x102 ../simple_socket_bsp/\libucosii_bsp.a(alt_fstat.o)
 .debug_abbrev  0x000074fb      0x180 ../simple_socket_bsp/\libucosii_bsp.a(alt_irq_register.o)
 .debug_abbrev  0x0000767b       0x44 ../simple_socket_bsp/\libucosii_bsp.a(alt_irq_vars.o)
 .debug_abbrev  0x000076bf      0x102 ../simple_socket_bsp/\libucosii_bsp.a(alt_isatty.o)
 .debug_abbrev  0x000077c1      0x102 ../simple_socket_bsp/\libucosii_bsp.a(alt_lseek.o)
 .debug_abbrev  0x000078c3      0x120 ../simple_socket_bsp/\libucosii_bsp.a(alt_main.o)
 .debug_abbrev  0x000079e3      0x115 ../simple_socket_bsp/\libucosii_bsp.a(alt_sbrk.o)
 .debug_abbrev  0x00007af8       0xb7 ../simple_socket_bsp/\libucosii_bsp.a(alt_usleep.o)
 .debug_abbrev  0x00007baf      0x1b3 ../simple_socket_bsp/\libucosii_bsp.a(alt_env_lock.o)
 .debug_abbrev  0x00007d62      0x234 ../simple_socket_bsp/\libucosii_bsp.a(alt_malloc_lock.o)
 .debug_abbrev  0x00007f96      0x2aa ../simple_socket_bsp/\libucosii_bsp.a(os_core.o)
 .debug_abbrev  0x00008240      0x114 ../simple_socket_bsp/\libucosii_bsp.a(os_dbg.o)
 .debug_abbrev  0x00008354      0x21b ../simple_socket_bsp/\libucosii_bsp.a(os_flag.o)
 .debug_abbrev  0x0000856f      0x235 ../simple_socket_bsp/\libucosii_bsp.a(os_mem.o)
 .debug_abbrev  0x000087a4      0x20d ../simple_socket_bsp/\libucosii_bsp.a(os_q.o)
 .debug_abbrev  0x000089b1      0x20d ../simple_socket_bsp/\libucosii_bsp.a(os_sem.o)
 .debug_abbrev  0x00008bbe      0x20e ../simple_socket_bsp/\libucosii_bsp.a(os_task.o)
 .debug_abbrev  0x00008dcc      0x1de ../simple_socket_bsp/\libucosii_bsp.a(os_time.o)
 .debug_abbrev  0x00008faa      0x1c8 ../simple_socket_bsp/\libucosii_bsp.a(alt_sys_init.o)
 .debug_abbrev  0x00009172      0x1bf ../simple_socket_bsp/\libucosii_bsp.a(altera_avalon_cfi_flash.o)
 .debug_abbrev  0x00009331      0x185 ../simple_socket_bsp/\libucosii_bsp.a(altera_avalon_cfi_flash_table.o)
 .debug_abbrev  0x000094b6      0x1bf ../simple_socket_bsp/\libucosii_bsp.a(altera_avalon_epcs_flash_controller.o)
 .debug_abbrev  0x00009675      0x13c ../simple_socket_bsp/\libucosii_bsp.a(altera_avalon_jtag_uart_fd.o)
 .debug_abbrev  0x000097b1      0x21e ../simple_socket_bsp/\libucosii_bsp.a(altera_avalon_jtag_uart_init.o)
 .debug_abbrev  0x000099cf      0x135 ../simple_socket_bsp/\libucosii_bsp.a(altera_avalon_jtag_uart_ioctl.o)
 .debug_abbrev  0x00009b04      0x1ee ../simple_socket_bsp/\libucosii_bsp.a(altera_avalon_jtag_uart_read.o)
 .debug_abbrev  0x00009cf2      0x1ea ../simple_socket_bsp/\libucosii_bsp.a(altera_avalon_jtag_uart_write.o)
 .debug_abbrev  0x00009edc      0x235 ../simple_socket_bsp/\libucosii_bsp.a(altera_avalon_lcd_16207.o)
 .debug_abbrev  0x0000a111      0x12f ../simple_socket_bsp/\libucosii_bsp.a(altera_avalon_lcd_16207_fd.o)
 .debug_abbrev  0x0000a240      0x137 ../simple_socket_bsp/\libucosii_bsp.a(altera_avalon_timer_sc.o)
 .debug_abbrev  0x0000a377      0x124 ../simple_socket_bsp/\libucosii_bsp.a(altera_avalon_uart_fd.o)
 .debug_abbrev  0x0000a49b      0x204 ../simple_socket_bsp/\libucosii_bsp.a(altera_avalon_uart_init.o)
 .debug_abbrev  0x0000a69f      0x1b9 ../simple_socket_bsp/\libucosii_bsp.a(altera_avalon_uart_read.o)
 .debug_abbrev  0x0000a858      0x1c0 ../simple_socket_bsp/\libucosii_bsp.a(altera_avalon_uart_write.o)
 .debug_abbrev  0x0000aa18      0x145 ../simple_socket_bsp/\libucosii_bsp.a(epcs_commands.o)
 .debug_abbrev  0x0000ab5d       0x77 ../simple_socket_bsp/\libucosii_bsp.a(alt_iniche_close.o)
 .debug_abbrev  0x0000abd4      0x11f ../simple_socket_bsp/\libucosii_bsp.a(alt_iniche_dev.o)
 .debug_abbrev  0x0000acf3       0x7e ../simple_socket_bsp/\libucosii_bsp.a(alt_iniche_read.o)
 .debug_abbrev  0x0000ad71       0x85 ../simple_socket_bsp/\libucosii_bsp.a(alt_iniche_write.o)
 .debug_abbrev  0x0000adf6      0x184 ../simple_socket_bsp/\libucosii_bsp.a(ipnet.o)
 .debug_abbrev  0x0000af7a      0x18b ../simple_socket_bsp/\libucosii_bsp.a(ipstart.o)
 .debug_abbrev  0x0000b105      0x191 ../simple_socket_bsp/\libucosii_bsp.a(igmp_cmn.o)
 .debug_abbrev  0x0000b296      0x1a3 ../simple_socket_bsp/\libucosii_bsp.a(bsdsock.o)
 .debug_abbrev  0x0000b439       0x96 ../simple_socket_bsp/\libucosii_bsp.a(cksum.o)
 .debug_abbrev  0x0000b4cf      0x18b ../simple_socket_bsp/\libucosii_bsp.a(in_utils.o)
 .debug_abbrev  0x0000b65a      0x152 ../simple_socket_bsp/\libucosii_bsp.a(netmain.o)
 .debug_abbrev  0x0000b7ac      0x154 ../simple_socket_bsp/\libucosii_bsp.a(parseip.o)
 .debug_abbrev  0x0000b900      0x144 ../simple_socket_bsp/\libucosii_bsp.a(tk_crnos.o)
 .debug_abbrev  0x0000ba44      0x217 ../simple_socket_bsp/\libucosii_bsp.a(dhcpclnt.o)
 .debug_abbrev  0x0000bc5b       0x8f ../simple_socket_bsp/\libucosii_bsp.a(dhcputil.o)
 .debug_abbrev  0x0000bcea      0x196 ../simple_socket_bsp/\libucosii_bsp.a(pktalloc.o)
 .debug_abbrev  0x0000be80       0xcb ../simple_socket_bsp/\libucosii_bsp.a(q.o)
 .debug_abbrev  0x0000bf4b      0x144 ../simple_socket_bsp/\libucosii_bsp.a(udp_open.o)
 .debug_abbrev  0x0000c08f       0x14 ../simple_socket_bsp/\libucosii_bsp.a(asm_cksum.o)
 .debug_abbrev  0x0000c0a3      0x242 ../simple_socket_bsp/\libucosii_bsp.a(brdutils.o)
 .debug_abbrev  0x0000c2e5      0x194 ../simple_socket_bsp/\libucosii_bsp.a(osportco.o)
 .debug_abbrev  0x0000c479      0x199 ../simple_socket_bsp/\libucosii_bsp.a(targnios.o)
 .debug_abbrev  0x0000c612      0x1dc ../simple_socket_bsp/\libucosii_bsp.a(nptcp.o)
 .debug_abbrev  0x0000c7ee      0x136 ../simple_socket_bsp/\libucosii_bsp.a(rawsock.o)
 .debug_abbrev  0x0000c924      0x1de ../simple_socket_bsp/\libucosii_bsp.a(sockcall.o)
 .debug_abbrev  0x0000cb02      0x1ef ../simple_socket_bsp/\libucosii_bsp.a(socket.o)
 .debug_abbrev  0x0000ccf1      0x1ac ../simple_socket_bsp/\libucosii_bsp.a(socket2.o)
 .debug_abbrev  0x0000ce9d      0x17f ../simple_socket_bsp/\libucosii_bsp.a(soselect.o)
 .debug_abbrev  0x0000d01c      0x1ca ../simple_socket_bsp/\libucosii_bsp.a(tcp_in.o)
 .debug_abbrev  0x0000d1e6      0x1a4 ../simple_socket_bsp/\libucosii_bsp.a(tcp_out.o)
 .debug_abbrev  0x0000d38a      0x1c3 ../simple_socket_bsp/\libucosii_bsp.a(tcp_subr.o)
 .debug_abbrev  0x0000d54d      0x19e ../simple_socket_bsp/\libucosii_bsp.a(tcp_timr.o)
 .debug_abbrev  0x0000d6eb      0x175 ../simple_socket_bsp/\libucosii_bsp.a(tcp_usr.o)
 .debug_abbrev  0x0000d860       0x77 ../simple_socket_bsp/\libucosii_bsp.a(tcpport.o)
 .debug_abbrev  0x0000d8d7      0x190 ../simple_socket_bsp/\libucosii_bsp.a(udpsock.o)
 .debug_abbrev  0x0000da67      0x172 ../simple_socket_bsp/\libucosii_bsp.a(alt_alarm_start.o)
 .debug_abbrev  0x0000dbd9       0x6c ../simple_socket_bsp/\libucosii_bsp.a(alt_busy_sleep.o)
 .debug_abbrev  0x0000dc45      0x102 ../simple_socket_bsp/\libucosii_bsp.a(alt_close.o)
 .debug_abbrev  0x0000dd47       0x7a ../simple_socket_bsp/\libucosii_bsp.a(alt_dcache_flush.o)
 .debug_abbrev  0x0000ddc1      0x10a ../simple_socket_bsp/\libucosii_bsp.a(alt_dev.o)
 .debug_abbrev  0x0000decb       0xf6 ../simple_socket_bsp/\libucosii_bsp.a(alt_dev_llist_insert.o)
 .debug_abbrev  0x0000dfc1       0x76 ../simple_socket_bsp/\libucosii_bsp.a(alt_do_ctors.o)
 .debug_abbrev  0x0000e037       0x76 ../simple_socket_bsp/\libucosii_bsp.a(alt_do_dtors.o)
 .debug_abbrev  0x0000e0ad       0x5e ../simple_socket_bsp/\libucosii_bsp.a(alt_errno.o)
 .debug_abbrev  0x0000e10b       0xd6 ../simple_socket_bsp/\libucosii_bsp.a(alt_find_dev.o)
 .debug_abbrev  0x0000e1e1      0x134 ../simple_socket_bsp/\libucosii_bsp.a(alt_iic.o)
 .debug_abbrev  0x0000e315      0x14e ../simple_socket_bsp/\libucosii_bsp.a(alt_iic_isr_register.o)
 .debug_abbrev  0x0000e463       0xf7 ../simple_socket_bsp/\libucosii_bsp.a(alt_io_redirect.o)
 .debug_abbrev  0x0000e55a       0x12 ../simple_socket_bsp/\libucosii_bsp.a(alt_irq_entry.o)
 .debug_abbrev  0x0000e56c      0x124 ../simple_socket_bsp/\libucosii_bsp.a(alt_irq_handler.o)
 .debug_abbrev  0x0000e690      0x119 ../simple_socket_bsp/\libucosii_bsp.a(alt_open.o)
 .debug_abbrev  0x0000e7a9      0x102 ../simple_socket_bsp/\libucosii_bsp.a(alt_read.o)
 .debug_abbrev  0x0000e8ab       0xd3 ../simple_socket_bsp/\libucosii_bsp.a(alt_release_fd.o)
 .debug_abbrev  0x0000e97e       0x74 ../simple_socket_bsp/\libucosii_bsp.a(alt_remap_cached.o)
 .debug_abbrev  0x0000e9f2       0x74 ../simple_socket_bsp/\libucosii_bsp.a(alt_remap_uncached.o)
 .debug_abbrev  0x0000ea66      0x150 ../simple_socket_bsp/\libucosii_bsp.a(alt_tick.o)
 .debug_abbrev  0x0000ebb6      0x107 ../simple_socket_bsp/\libucosii_bsp.a(alt_write.o)
 .debug_abbrev  0x0000ecbd       0x3f ../simple_socket_bsp/\libucosii_bsp.a(altera_nios2_qsys_irq.o)
 .debug_abbrev  0x0000ecfc       0x14 ../simple_socket_bsp/\libucosii_bsp.a(os_cpu_a.o)
 .debug_abbrev  0x0000ed10      0x1d0 ../simple_socket_bsp/\libucosii_bsp.a(os_cpu_c.o)
 .debug_abbrev  0x0000eee0      0x14d ../simple_socket_bsp/\libucosii_bsp.a(altera_avalon_cfi_flash_amd.o)
 .debug_abbrev  0x0000f02d      0x14d ../simple_socket_bsp/\libucosii_bsp.a(altera_avalon_cfi_flash_intel.o)
 .debug_abbrev  0x0000f17a       0x7c ../simple_socket_bsp/\libucosii_bsp.a(altera_avalon_spi.o)
 .debug_abbrev  0x0000f1f6      0x173 ../simple_socket_bsp/\libucosii_bsp.a(allports.o)
 .debug_abbrev  0x0000f369      0x151 ../simple_socket_bsp/\libucosii_bsp.a(timeouts.o)
 .debug_abbrev  0x0000f4ba       0xa4 ../simple_socket_bsp/\libucosii_bsp.a(tk_misc.o)
 .debug_abbrev  0x0000f55e       0x92 ../simple_socket_bsp/\libucosii_bsp.a(alt_iniche_fcntl.o)
 .debug_abbrev  0x0000f5f0      0x1eb ../simple_socket_bsp/\libucosii_bsp.a(et_arp.o)
 .debug_abbrev  0x0000f7db      0x13d ../simple_socket_bsp/\libucosii_bsp.a(iface.o)
 .debug_abbrev  0x0000f918      0x1ed ../simple_socket_bsp/\libucosii_bsp.a(ip.o)
 .debug_abbrev  0x0000fb05      0x1ca ../simple_socket_bsp/\libucosii_bsp.a(ip_reasm.o)
 .debug_abbrev  0x0000fccf      0x166 ../simple_socket_bsp/\libucosii_bsp.a(ipdemux.o)
 .debug_abbrev  0x0000fe35      0x114 ../simple_socket_bsp/\libucosii_bsp.a(ipmc.o)
 .debug_abbrev  0x0000ff49       0xe9 ../simple_socket_bsp/\libucosii_bsp.a(ipport.o)
 .debug_abbrev  0x00010032      0x19c ../simple_socket_bsp/\libucosii_bsp.a(ipraw.o)
 .debug_abbrev  0x000101ce      0x156 ../simple_socket_bsp/\libucosii_bsp.a(iproute.o)
 .debug_abbrev  0x00010324      0x1c0 ../simple_socket_bsp/\libucosii_bsp.a(udp.o)
 .debug_abbrev  0x000104e4      0x10e ../simple_socket_bsp/\libucosii_bsp.a(igmp.o)
 .debug_abbrev  0x000105f2      0x17a ../simple_socket_bsp/\libucosii_bsp.a(igmp2.o)
 .debug_abbrev  0x0001076c      0x189 ../simple_socket_bsp/\libucosii_bsp.a(ipopt.o)
 .debug_abbrev  0x000108f5      0x15a ../simple_socket_bsp/\libucosii_bsp.a(u_mctest.o)
 .debug_abbrev  0x00010a4f      0x12e ../simple_socket_bsp/\libucosii_bsp.a(dhcsetup.o)
 .debug_abbrev  0x00010b7d      0x175 ../simple_socket_bsp/\libucosii_bsp.a(memdev.o)
 .debug_abbrev  0x00010cf2       0xad ../simple_socket_bsp/\libucosii_bsp.a(tcpcksum.o)
 .debug_abbrev  0x00010d9f      0x19f ../simple_socket_bsp/\libucosii_bsp.a(in_pcb.o)
 .debug_abbrev  0x00010f3e      0x1b6 ../simple_socket_bsp/\libucosii_bsp.a(vfsfiles.o)
 .debug_abbrev  0x000110f4       0x77 ../simple_socket_bsp/\libucosii_bsp.a(vfsport.o)
 .debug_abbrev  0x0001116b       0x12 ../simple_socket_bsp/\libucosii_bsp.a(alt_exception_entry.o)
 .debug_abbrev  0x0001117d      0x107 ../simple_socket_bsp/\libucosii_bsp.a(alt_fcntl.o)
 .debug_abbrev  0x00011284       0xd6 ../simple_socket_bsp/\libucosii_bsp.a(alt_find_file.o)
 .debug_abbrev  0x0001135a      0x173 ../simple_socket_bsp/\libucosii_bsp.a(alt_get_fd.o)
 .debug_abbrev  0x000114cd      0x15d ../simple_socket_bsp/\libucosii_bsp.a(icmp.o)
 .debug_abbrev  0x0001162a       0xb7 j:/altera/13.0sp1/nios2eds/bin/gnu/h-i686-mingw32/bin/../lib/gcc/nios2-elf/4.1.2/../../../../nios2-elf/lib\libc.a(lib_a-atexit.o)
 .debug_abbrev  0x000116e1      0x176 j:/altera/13.0sp1/nios2eds/bin/gnu/h-i686-mingw32/bin/../lib/gcc/nios2-elf/4.1.2/../../../../nios2-elf/lib\libc.a(lib_a-atoi.o)
 .debug_abbrev  0x00011857      0x17f j:/altera/13.0sp1/nios2eds/bin/gnu/h-i686-mingw32/bin/../lib/gcc/nios2-elf/4.1.2/../../../../nios2-elf/lib\libc.a(lib_a-calloc.o)
 .debug_abbrev  0x000119d6      0x187 j:/altera/13.0sp1/nios2eds/bin/gnu/h-i686-mingw32/bin/../lib/gcc/nios2-elf/4.1.2/../../../../nios2-elf/lib\libc.a(lib_a-malloc.o)
 .debug_abbrev  0x00011b5d       0x7c j:/altera/13.0sp1/nios2eds/bin/gnu/h-i686-mingw32/bin/../lib/gcc/nios2-elf/4.1.2/../../../../nios2-elf/lib\libc.a(lib_a-memcmp.o)
 .debug_abbrev  0x00011bd9      0x191 j:/altera/13.0sp1/nios2eds/bin/gnu/h-i686-mingw32/bin/../lib/gcc/nios2-elf/4.1.2/../../../../nios2-elf/lib\libc.a(lib_a-sprintf.o)
 .debug_abbrev  0x00011d6a       0x8f j:/altera/13.0sp1/nios2eds/bin/gnu/h-i686-mingw32/bin/../lib/gcc/nios2-elf/4.1.2/../../../../nios2-elf/lib\libc.a(lib_a-strcpy.o)
 .debug_abbrev  0x00011df9       0x8d j:/altera/13.0sp1/nios2eds/bin/gnu/h-i686-mingw32/bin/../lib/gcc/nios2-elf/4.1.2/../../../../nios2-elf/lib\libc.a(lib_a-strncmp.o)
 .debug_abbrev  0x00011e86       0x9c j:/altera/13.0sp1/nios2eds/bin/gnu/h-i686-mingw32/bin/../lib/gcc/nios2-elf/4.1.2/../../../../nios2-elf/lib\libc.a(lib_a-strncpy.o)
 .debug_abbrev  0x00011f22      0x1c7 j:/altera/13.0sp1/nios2eds/bin/gnu/h-i686-mingw32/bin/../lib/gcc/nios2-elf/4.1.2/../../../../nios2-elf/lib\libc.a(lib_a-strtol.o)
 .debug_abbrev  0x000120e9      0x170 j:/altera/13.0sp1/nios2eds/bin/gnu/h-i686-mingw32/bin/../lib/gcc/nios2-elf/4.1.2/../../../../nios2-elf/lib\libc.a(lib_a-vprintf.o)
 .debug_abbrev  0x00012259      0x1a5 j:/altera/13.0sp1/nios2eds/bin/gnu/h-i686-mingw32/bin/../lib/gcc/nios2-elf/4.1.2/../../../../nios2-elf/lib\libc.a(lib_a-vsprintf.o)
 .debug_abbrev  0x000123fe      0x1ae j:/altera/13.0sp1/nios2eds/bin/gnu/h-i686-mingw32/bin/../lib/gcc/nios2-elf/4.1.2/../../../../nios2-elf/lib\libc.a(lib_a-__atexit.o)

.debug_line     0x00000000    0x421bc
 *(.debug_line)
 .debug_line    0x00000000       0x57 ../simple_socket_bsp//obj/HAL/src/crt0.o
 .debug_line    0x00000057      0x34b obj/default/LCD.o
 .debug_line    0x000003a2      0x519 obj/default/SSS_DE2_115.o
 .debug_line    0x000008bb      0x71a obj/default/alt_error_handler.o
 .debug_line    0x00000fd5      0xad1 obj/default/dm9000a.o
 .debug_line    0x00001aa6      0x847 obj/default/iniche_init.o
 .debug_line    0x000022ed      0x41a obj/default/led.o
 .debug_line    0x00002707      0x7e0 obj/default/network_utilities.o
 .debug_line    0x00002ee7      0x79b obj/default/simple_socket_server.o
 .debug_line    0x00003682       0x24 obj/default/tse_my_system.o
 .debug_line    0x000036a6       0xff j:/altera/13.0sp1/nios2eds/bin/gnu/h-i686-mingw32/bin/../lib/gcc/nios2-elf/4.1.2\libgcc.a(_fixunsdfsi.o)
 .debug_line    0x000037a5      0x430 j:/altera/13.0sp1/nios2eds/bin/gnu/h-i686-mingw32/bin/../lib/gcc/nios2-elf/4.1.2\libgcc.a(_addsub_df.o)
 .debug_line    0x00003bd5      0x3e5 j:/altera/13.0sp1/nios2eds/bin/gnu/h-i686-mingw32/bin/../lib/gcc/nios2-elf/4.1.2\libgcc.a(_mul_df.o)
 .debug_line    0x00003fba      0x129 j:/altera/13.0sp1/nios2eds/bin/gnu/h-i686-mingw32/bin/../lib/gcc/nios2-elf/4.1.2\libgcc.a(_ge_df.o)
 .debug_line    0x000040e3      0x149 j:/altera/13.0sp1/nios2eds/bin/gnu/h-i686-mingw32/bin/../lib/gcc/nios2-elf/4.1.2\libgcc.a(_df_to_si.o)
 .debug_line    0x0000422c       0x94 j:/altera/13.0sp1/nios2eds/bin/gnu/h-i686-mingw32/bin/../lib/gcc/nios2-elf/4.1.2\libgcc.a(_thenan_df.o)
 .debug_line    0x000042c0      0x189 j:/altera/13.0sp1/nios2eds/bin/gnu/h-i686-mingw32/bin/../lib/gcc/nios2-elf/4.1.2\libgcc.a(_usi_to_df.o)
 .debug_line    0x00004449      0x11f j:/altera/13.0sp1/nios2eds/bin/gnu/h-i686-mingw32/bin/../lib/gcc/nios2-elf/4.1.2\libgcc.a(_muldi3.o)
 .debug_line    0x00004568      0x105 j:/altera/13.0sp1/nios2eds/bin/gnu/h-i686-mingw32/bin/../lib/gcc/nios2-elf/4.1.2\libgcc.a(_clzsi2.o)
 .debug_line    0x0000466d      0x222 j:/altera/13.0sp1/nios2eds/bin/gnu/h-i686-mingw32/bin/../lib/gcc/nios2-elf/4.1.2\libgcc.a(_pack_df.o)
 .debug_line    0x0000488f      0x1e4 j:/altera/13.0sp1/nios2eds/bin/gnu/h-i686-mingw32/bin/../lib/gcc/nios2-elf/4.1.2\libgcc.a(_unpack_df.o)
 .debug_line    0x00004a73      0x187 j:/altera/13.0sp1/nios2eds/bin/gnu/h-i686-mingw32/bin/../lib/gcc/nios2-elf/4.1.2\libgcc.a(_fpcmp_parts_df.o)
 .debug_line    0x00004bfa       0xaa j:/altera/13.0sp1/nios2eds/bin/gnu/h-i686-mingw32/bin/../lib/gcc/nios2-elf/4.1.2\libgcc.a(_clz.o)
 .debug_line    0x00004ca4       0x7e j:/altera/13.0sp1/nios2eds/bin/gnu/h-i686-mingw32/bin/../lib/gcc/nios2-elf/4.1.2/../../../../nios2-elf/lib\libc.a(lib_a-ctype_.o)
 .debug_line    0x00004d22      0x238 j:/altera/13.0sp1/nios2eds/bin/gnu/h-i686-mingw32/bin/../lib/gcc/nios2-elf/4.1.2/../../../../nios2-elf/lib\libc.a(lib_a-exit.o)
 .debug_line    0x00004f5a      0x284 j:/altera/13.0sp1/nios2eds/bin/gnu/h-i686-mingw32/bin/../lib/gcc/nios2-elf/4.1.2/../../../../nios2-elf/lib\libc.a(lib_a-fprintf.o)
 .debug_line    0x000051de      0x2d9 j:/altera/13.0sp1/nios2eds/bin/gnu/h-i686-mingw32/bin/../lib/gcc/nios2-elf/4.1.2/../../../../nios2-elf/lib\libc.a(lib_a-fwrite.o)
 .debug_line    0x000054b7      0x2a4 j:/altera/13.0sp1/nios2eds/bin/gnu/h-i686-mingw32/bin/../lib/gcc/nios2-elf/4.1.2/../../../../nios2-elf/lib\libc.a(lib_a-getc.o)
 .debug_line    0x0000575b      0x22d j:/altera/13.0sp1/nios2eds/bin/gnu/h-i686-mingw32/bin/../lib/gcc/nios2-elf/4.1.2/../../../../nios2-elf/lib\libc.a(lib_a-impure.o)
 .debug_line    0x00005988      0x1ac j:/altera/13.0sp1/nios2eds/bin/gnu/h-i686-mingw32/bin/../lib/gcc/nios2-elf/4.1.2/../../../../nios2-elf/lib\libc.a(lib_a-memcpy.o)
 .debug_line    0x00005b34      0x30a j:/altera/13.0sp1/nios2eds/bin/gnu/h-i686-mingw32/bin/../lib/gcc/nios2-elf/4.1.2/../../../../nios2-elf/lib\libc.a(lib_a-memmove.o)
 .debug_line    0x00005e3e      0x301 j:/altera/13.0sp1/nios2eds/bin/gnu/h-i686-mingw32/bin/../lib/gcc/nios2-elf/4.1.2/../../../../nios2-elf/lib\libc.a(lib_a-memset.o)
 .debug_line    0x0000613f      0x2a4 j:/altera/13.0sp1/nios2eds/bin/gnu/h-i686-mingw32/bin/../lib/gcc/nios2-elf/4.1.2/../../../../nios2-elf/lib\libc.a(lib_a-perror.o)
 .debug_line    0x000063e3      0x29b j:/altera/13.0sp1/nios2eds/bin/gnu/h-i686-mingw32/bin/../lib/gcc/nios2-elf/4.1.2/../../../../nios2-elf/lib\libc.a(lib_a-printf.o)
 .debug_line    0x0000667e      0x2c4 j:/altera/13.0sp1/nios2eds/bin/gnu/h-i686-mingw32/bin/../lib/gcc/nios2-elf/4.1.2/../../../../nios2-elf/lib\libc.a(lib_a-putc.o)
 .debug_line    0x00006942      0x264 j:/altera/13.0sp1/nios2eds/bin/gnu/h-i686-mingw32/bin/../lib/gcc/nios2-elf/4.1.2/../../../../nios2-elf/lib\libc.a(lib_a-putchar.o)
 .debug_line    0x00006ba6      0x2f7 j:/altera/13.0sp1/nios2eds/bin/gnu/h-i686-mingw32/bin/../lib/gcc/nios2-elf/4.1.2/../../../../nios2-elf/lib\libc.a(lib_a-puts.o)
 .debug_line    0x00006e9d      0x28d j:/altera/13.0sp1/nios2eds/bin/gnu/h-i686-mingw32/bin/../lib/gcc/nios2-elf/4.1.2/../../../../nios2-elf/lib\libc.a(lib_a-rget.o)
 .debug_line    0x0000712a      0x2c7 j:/altera/13.0sp1/nios2eds/bin/gnu/h-i686-mingw32/bin/../lib/gcc/nios2-elf/4.1.2/../../../../nios2-elf/lib\libc.a(lib_a-strchr.o)
 .debug_line    0x000073f1      0x4e1 j:/altera/13.0sp1/nios2eds/bin/gnu/h-i686-mingw32/bin/../lib/gcc/nios2-elf/4.1.2/../../../../nios2-elf/lib\libc.a(lib_a-strerror.o)
 .debug_line    0x000078d2      0x26d j:/altera/13.0sp1/nios2eds/bin/gnu/h-i686-mingw32/bin/../lib/gcc/nios2-elf/4.1.2/../../../../nios2-elf/lib\libc.a(lib_a-strlen.o)
 .debug_line    0x00007b3f       0x91 j:/altera/13.0sp1/nios2eds/bin/gnu/h-i686-mingw32/bin/../lib/gcc/nios2-elf/4.1.2/../../../../nios2-elf/lib\libc.a(lib_a-u_strerr.o)
 .debug_line    0x00007bd0     0x110c j:/altera/13.0sp1/nios2eds/bin/gnu/h-i686-mingw32/bin/../lib/gcc/nios2-elf/4.1.2/../../../../nios2-elf/lib\libc.a(lib_a-vfprintf.o)
 .debug_line    0x00008cdc      0x350 j:/altera/13.0sp1/nios2eds/bin/gnu/h-i686-mingw32/bin/../lib/gcc/nios2-elf/4.1.2/../../../../nios2-elf/lib\libc.a(lib_a-wbuf.o)
 .debug_line    0x0000902c      0x2f0 j:/altera/13.0sp1/nios2eds/bin/gnu/h-i686-mingw32/bin/../lib/gcc/nios2-elf/4.1.2/../../../../nios2-elf/lib\libc.a(lib_a-wsetup.o)
 .debug_line    0x0000931c      0x367 j:/altera/13.0sp1/nios2eds/bin/gnu/h-i686-mingw32/bin/../lib/gcc/nios2-elf/4.1.2/../../../../nios2-elf/lib\libc.a(lib_a-__call_atexit.o)
 .debug_line    0x00009683     0x12c6 j:/altera/13.0sp1/nios2eds/bin/gnu/h-i686-mingw32/bin/../lib/gcc/nios2-elf/4.1.2/../../../../nios2-elf/lib\libc.a(lib_a-dtoa.o)
 .debug_line    0x0000a949      0x40d j:/altera/13.0sp1/nios2eds/bin/gnu/h-i686-mingw32/bin/../lib/gcc/nios2-elf/4.1.2/../../../../nios2-elf/lib\libc.a(lib_a-fflush.o)
 .debug_line    0x0000ad56      0x601 j:/altera/13.0sp1/nios2eds/bin/gnu/h-i686-mingw32/bin/../lib/gcc/nios2-elf/4.1.2/../../../../nios2-elf/lib\libc.a(lib_a-findfp.o)
 .debug_line    0x0000b357      0x285 j:/altera/13.0sp1/nios2eds/bin/gnu/h-i686-mingw32/bin/../lib/gcc/nios2-elf/4.1.2/../../../../nios2-elf/lib\libc.a(lib_a-fputc.o)
 .debug_line    0x0000b5dc      0x2c8 j:/altera/13.0sp1/nios2eds/bin/gnu/h-i686-mingw32/bin/../lib/gcc/nios2-elf/4.1.2/../../../../nios2-elf/lib\libc.a(lib_a-fputs.o)
 .debug_line    0x0000b8a4      0x5eb j:/altera/13.0sp1/nios2eds/bin/gnu/h-i686-mingw32/bin/../lib/gcc/nios2-elf/4.1.2/../../../../nios2-elf/lib\libc.a(lib_a-freer.o)
 .debug_line    0x0000be8f      0x641 j:/altera/13.0sp1/nios2eds/bin/gnu/h-i686-mingw32/bin/../lib/gcc/nios2-elf/4.1.2/../../../../nios2-elf/lib\libc.a(lib_a-fvwrite.o)
 .debug_line    0x0000c4d0      0x34a j:/altera/13.0sp1/nios2eds/bin/gnu/h-i686-mingw32/bin/../lib/gcc/nios2-elf/4.1.2/../../../../nios2-elf/lib\libc.a(lib_a-fwalk.o)
 .debug_line    0x0000c81a      0x2c8 j:/altera/13.0sp1/nios2eds/bin/gnu/h-i686-mingw32/bin/../lib/gcc/nios2-elf/4.1.2/../../../../nios2-elf/lib\libc.a(lib_a-locale.o)
 .debug_line    0x0000cae2      0x3c3 j:/altera/13.0sp1/nios2eds/bin/gnu/h-i686-mingw32/bin/../lib/gcc/nios2-elf/4.1.2/../../../../nios2-elf/lib\libc.a(lib_a-makebuf.o)
 .debug_line    0x0000cea5      0x80a j:/altera/13.0sp1/nios2eds/bin/gnu/h-i686-mingw32/bin/../lib/gcc/nios2-elf/4.1.2/../../../../nios2-elf/lib\libc.a(lib_a-mallocr.o)
 .debug_line    0x0000d6af      0x303 j:/altera/13.0sp1/nios2eds/bin/gnu/h-i686-mingw32/bin/../lib/gcc/nios2-elf/4.1.2/../../../../nios2-elf/lib\libc.a(lib_a-memchr.o)
 .debug_line    0x0000d9b2     0x1243 j:/altera/13.0sp1/nios2eds/bin/gnu/h-i686-mingw32/bin/../lib/gcc/nios2-elf/4.1.2/../../../../nios2-elf/lib\libc.a(lib_a-mprec.o)
 .debug_line    0x0000ebf5      0x58a j:/altera/13.0sp1/nios2eds/bin/gnu/h-i686-mingw32/bin/../lib/gcc/nios2-elf/4.1.2/../../../../nios2-elf/lib\libc.a(lib_a-reallocr.o)
 .debug_line    0x0000f17f      0x3c4 j:/altera/13.0sp1/nios2eds/bin/gnu/h-i686-mingw32/bin/../lib/gcc/nios2-elf/4.1.2/../../../../nios2-elf/lib\libc.a(lib_a-refill.o)
 .debug_line    0x0000f543      0x222 j:/altera/13.0sp1/nios2eds/bin/gnu/h-i686-mingw32/bin/../lib/gcc/nios2-elf/4.1.2/../../../../nios2-elf/lib\libc.a(lib_a-s_isinfd.o)
 .debug_line    0x0000f765      0x21a j:/altera/13.0sp1/nios2eds/bin/gnu/h-i686-mingw32/bin/../lib/gcc/nios2-elf/4.1.2/../../../../nios2-elf/lib\libc.a(lib_a-s_isnand.o)
 .debug_line    0x0000f97f      0x299 j:/altera/13.0sp1/nios2eds/bin/gnu/h-i686-mingw32/bin/../lib/gcc/nios2-elf/4.1.2/../../../../nios2-elf/lib\libc.a(lib_a-sbrkr.o)
 .debug_line    0x0000fc18      0x38c j:/altera/13.0sp1/nios2eds/bin/gnu/h-i686-mingw32/bin/../lib/gcc/nios2-elf/4.1.2/../../../../nios2-elf/lib\libc.a(lib_a-stdio.o)
 .debug_line    0x0000ffa4      0x2d5 j:/altera/13.0sp1/nios2eds/bin/gnu/h-i686-mingw32/bin/../lib/gcc/nios2-elf/4.1.2/../../../../nios2-elf/lib\libc.a(lib_a-strcmp.o)
 .debug_line    0x00010279      0x29a j:/altera/13.0sp1/nios2eds/bin/gnu/h-i686-mingw32/bin/../lib/gcc/nios2-elf/4.1.2/../../../../nios2-elf/lib\libc.a(lib_a-writer.o)
 .debug_line    0x00010513      0x25c j:/altera/13.0sp1/nios2eds/bin/gnu/h-i686-mingw32/bin/../lib/gcc/nios2-elf/4.1.2/../../../../nios2-elf/lib\libc.a(lib_a-callocr.o)
 .debug_line    0x0001076f      0x29a j:/altera/13.0sp1/nios2eds/bin/gnu/h-i686-mingw32/bin/../lib/gcc/nios2-elf/4.1.2/../../../../nios2-elf/lib\libc.a(lib_a-closer.o)
 .debug_line    0x00010a09      0x2e8 j:/altera/13.0sp1/nios2eds/bin/gnu/h-i686-mingw32/bin/../lib/gcc/nios2-elf/4.1.2/../../../../nios2-elf/lib\libc.a(lib_a-fclose.o)
 .debug_line    0x00010cf1      0x264 j:/altera/13.0sp1/nios2eds/bin/gnu/h-i686-mingw32/bin/../lib/gcc/nios2-elf/4.1.2/../../../../nios2-elf/lib\libc.a(lib_a-fstatr.o)
 .debug_line    0x00010f55      0x1df j:/altera/13.0sp1/nios2eds/bin/gnu/h-i686-mingw32/bin/../lib/gcc/nios2-elf/4.1.2/../../../../nios2-elf/lib\libc.a(lib_a-int_errno.o)
 .debug_line    0x00011134      0x29b j:/altera/13.0sp1/nios2eds/bin/gnu/h-i686-mingw32/bin/../lib/gcc/nios2-elf/4.1.2/../../../../nios2-elf/lib\libc.a(lib_a-isattyr.o)
 .debug_line    0x000113cf      0x29a j:/altera/13.0sp1/nios2eds/bin/gnu/h-i686-mingw32/bin/../lib/gcc/nios2-elf/4.1.2/../../../../nios2-elf/lib\libc.a(lib_a-lseekr.o)
 .debug_line    0x00011669      0x299 j:/altera/13.0sp1/nios2eds/bin/gnu/h-i686-mingw32/bin/../lib/gcc/nios2-elf/4.1.2/../../../../nios2-elf/lib\libc.a(lib_a-readr.o)
 .debug_line    0x00011902      0x2f2 j:/altera/13.0sp1/nios2eds/bin/gnu/h-i686-mingw32/bin/../lib/gcc/nios2-elf/4.1.2\libgcc.a(_udivdi3.o)
 .debug_line    0x00011bf4      0x37d j:/altera/13.0sp1/nios2eds/bin/gnu/h-i686-mingw32/bin/../lib/gcc/nios2-elf/4.1.2\libgcc.a(_umoddi3.o)
 .debug_line    0x00011f71      0x301 j:/altera/13.0sp1/nios2eds/bin/gnu/h-i686-mingw32/bin/../lib/gcc/nios2-elf/4.1.2\libgcc.a(_div_df.o)
 .debug_line    0x00012272      0x129 j:/altera/13.0sp1/nios2eds/bin/gnu/h-i686-mingw32/bin/../lib/gcc/nios2-elf/4.1.2\libgcc.a(_eq_df.o)
 .debug_line    0x0001239b      0x129 j:/altera/13.0sp1/nios2eds/bin/gnu/h-i686-mingw32/bin/../lib/gcc/nios2-elf/4.1.2\libgcc.a(_ne_df.o)
 .debug_line    0x000124c4      0x129 j:/altera/13.0sp1/nios2eds/bin/gnu/h-i686-mingw32/bin/../lib/gcc/nios2-elf/4.1.2\libgcc.a(_gt_df.o)
 .debug_line    0x000125ed      0x129 j:/altera/13.0sp1/nios2eds/bin/gnu/h-i686-mingw32/bin/../lib/gcc/nios2-elf/4.1.2\libgcc.a(_lt_df.o)
 .debug_line    0x00012716      0x175 j:/altera/13.0sp1/nios2eds/bin/gnu/h-i686-mingw32/bin/../lib/gcc/nios2-elf/4.1.2\libgcc.a(_si_to_df.o)
 .debug_line    0x0001288b      0x24f j:/altera/13.0sp1/nios2eds/bin/gnu/h-i686-mingw32/bin/../lib/gcc/nios2-elf/4.1.2\libgcc.a(lib2-divmod.o)
 .debug_line    0x00012ada      0x276 ../simple_socket_bsp/\libucosii_bsp.a(alt_exit.o)
 .debug_line    0x00012d50      0x2c8 ../simple_socket_bsp/\libucosii_bsp.a(alt_flash_dev.o)
 .debug_line    0x00013018      0x301 ../simple_socket_bsp/\libucosii_bsp.a(alt_fstat.o)
 .debug_line    0x00013319      0x36d ../simple_socket_bsp/\libucosii_bsp.a(alt_irq_register.o)
 .debug_line    0x00013686       0x72 ../simple_socket_bsp/\libucosii_bsp.a(alt_irq_vars.o)
 .debug_line    0x000136f8      0x302 ../simple_socket_bsp/\libucosii_bsp.a(alt_isatty.o)
 .debug_line    0x000139fa      0x301 ../simple_socket_bsp/\libucosii_bsp.a(alt_lseek.o)
 .debug_line    0x00013cfb      0x349 ../simple_socket_bsp/\libucosii_bsp.a(alt_main.o)
 .debug_line    0x00014044      0x261 ../simple_socket_bsp/\libucosii_bsp.a(alt_sbrk.o)
 .debug_line    0x000142a5      0x2ad ../simple_socket_bsp/\libucosii_bsp.a(alt_usleep.o)
 .debug_line    0x00014552      0x2bf ../simple_socket_bsp/\libucosii_bsp.a(alt_env_lock.o)
 .debug_line    0x00014811      0x37b ../simple_socket_bsp/\libucosii_bsp.a(alt_malloc_lock.o)
 .debug_line    0x00014b8c     0x1663 ../simple_socket_bsp/\libucosii_bsp.a(os_core.o)
 .debug_line    0x000161ef      0x388 ../simple_socket_bsp/\libucosii_bsp.a(os_dbg.o)
 .debug_line    0x00016577     0x11e7 ../simple_socket_bsp/\libucosii_bsp.a(os_flag.o)
 .debug_line    0x0001775e      0x78a ../simple_socket_bsp/\libucosii_bsp.a(os_mem.o)
 .debug_line    0x00017ee8      0xe6b ../simple_socket_bsp/\libucosii_bsp.a(os_q.o)
 .debug_line    0x00018d53      0xa23 ../simple_socket_bsp/\libucosii_bsp.a(os_sem.o)
 .debug_line    0x00019776     0x112c ../simple_socket_bsp/\libucosii_bsp.a(os_task.o)
 .debug_line    0x0001a8a2      0x52f ../simple_socket_bsp/\libucosii_bsp.a(os_time.o)
 .debug_line    0x0001add1      0x404 ../simple_socket_bsp/\libucosii_bsp.a(alt_sys_init.o)
 .debug_line    0x0001b1d5      0x573 ../simple_socket_bsp/\libucosii_bsp.a(altera_avalon_cfi_flash.o)
 .debug_line    0x0001b748      0x979 ../simple_socket_bsp/\libucosii_bsp.a(altera_avalon_cfi_flash_table.o)
 .debug_line    0x0001c0c1      0x6ef ../simple_socket_bsp/\libucosii_bsp.a(altera_avalon_epcs_flash_controller.o)
 .debug_line    0x0001c7b0      0x319 ../simple_socket_bsp/\libucosii_bsp.a(altera_avalon_jtag_uart_fd.o)
 .debug_line    0x0001cac9      0x598 ../simple_socket_bsp/\libucosii_bsp.a(altera_avalon_jtag_uart_init.o)
 .debug_line    0x0001d061      0x356 ../simple_socket_bsp/\libucosii_bsp.a(altera_avalon_jtag_uart_ioctl.o)
 .debug_line    0x0001d3b7      0x494 ../simple_socket_bsp/\libucosii_bsp.a(altera_avalon_jtag_uart_read.o)
 .debug_line    0x0001d84b      0x4a2 ../simple_socket_bsp/\libucosii_bsp.a(altera_avalon_jtag_uart_write.o)
 .debug_line    0x0001dced      0x940 ../simple_socket_bsp/\libucosii_bsp.a(altera_avalon_lcd_16207.o)
 .debug_line    0x0001e62d      0x2b9 ../simple_socket_bsp/\libucosii_bsp.a(altera_avalon_lcd_16207_fd.o)
 .debug_line    0x0001e8e6      0x2b3 ../simple_socket_bsp/\libucosii_bsp.a(altera_avalon_timer_sc.o)
 .debug_line    0x0001eb99      0x2f7 ../simple_socket_bsp/\libucosii_bsp.a(altera_avalon_uart_fd.o)
 .debug_line    0x0001ee90      0x567 ../simple_socket_bsp/\libucosii_bsp.a(altera_avalon_uart_init.o)
 .debug_line    0x0001f3f7      0x4b3 ../simple_socket_bsp/\libucosii_bsp.a(altera_avalon_uart_read.o)
 .debug_line    0x0001f8aa      0x495 ../simple_socket_bsp/\libucosii_bsp.a(altera_avalon_uart_write.o)
 .debug_line    0x0001fd3f      0x408 ../simple_socket_bsp/\libucosii_bsp.a(epcs_commands.o)
 .debug_line    0x00020147      0x347 ../simple_socket_bsp/\libucosii_bsp.a(alt_iniche_close.o)
 .debug_line    0x0002048e      0x3ea ../simple_socket_bsp/\libucosii_bsp.a(alt_iniche_dev.o)
 .debug_line    0x00020878      0x346 ../simple_socket_bsp/\libucosii_bsp.a(alt_iniche_read.o)
 .debug_line    0x00020bbe      0x357 ../simple_socket_bsp/\libucosii_bsp.a(alt_iniche_write.o)
 .debug_line    0x00020f15      0x7a6 ../simple_socket_bsp/\libucosii_bsp.a(ipnet.o)
 .debug_line    0x000216bb      0x4e7 ../simple_socket_bsp/\libucosii_bsp.a(ipstart.o)
 .debug_line    0x00021ba2      0x91c ../simple_socket_bsp/\libucosii_bsp.a(igmp_cmn.o)
 .debug_line    0x000224be      0x6c7 ../simple_socket_bsp/\libucosii_bsp.a(bsdsock.o)
 .debug_line    0x00022b85      0x30a ../simple_socket_bsp/\libucosii_bsp.a(cksum.o)
 .debug_line    0x00022e8f      0x7a9 ../simple_socket_bsp/\libucosii_bsp.a(in_utils.o)
 .debug_line    0x00023638      0x43f ../simple_socket_bsp/\libucosii_bsp.a(netmain.o)
 .debug_line    0x00023a77      0x64d ../simple_socket_bsp/\libucosii_bsp.a(parseip.o)
 .debug_line    0x000240c4      0x5a8 ../simple_socket_bsp/\libucosii_bsp.a(tk_crnos.o)
 .debug_line    0x0002466c     0x1069 ../simple_socket_bsp/\libucosii_bsp.a(dhcpclnt.o)
 .debug_line    0x000256d5      0x2ff ../simple_socket_bsp/\libucosii_bsp.a(dhcputil.o)
 .debug_line    0x000259d4      0x649 ../simple_socket_bsp/\libucosii_bsp.a(pktalloc.o)
 .debug_line    0x0002601d      0x3db ../simple_socket_bsp/\libucosii_bsp.a(q.o)
 .debug_line    0x000263f8      0x46e ../simple_socket_bsp/\libucosii_bsp.a(udp_open.o)
 .debug_line    0x00026866       0xaf ../simple_socket_bsp/\libucosii_bsp.a(asm_cksum.o)
 .debug_line    0x00026915      0x472 ../simple_socket_bsp/\libucosii_bsp.a(brdutils.o)
 .debug_line    0x00026d87      0x4ff ../simple_socket_bsp/\libucosii_bsp.a(osportco.o)
 .debug_line    0x00027286      0x63e ../simple_socket_bsp/\libucosii_bsp.a(targnios.o)
 .debug_line    0x000278c4      0xf23 ../simple_socket_bsp/\libucosii_bsp.a(nptcp.o)
 .debug_line    0x000287e7      0x848 ../simple_socket_bsp/\libucosii_bsp.a(rawsock.o)
 .debug_line    0x0002902f      0xe36 ../simple_socket_bsp/\libucosii_bsp.a(sockcall.o)
 .debug_line    0x00029e65     0x12b8 ../simple_socket_bsp/\libucosii_bsp.a(socket.o)
 .debug_line    0x0002b11d      0xbec ../simple_socket_bsp/\libucosii_bsp.a(socket2.o)
 .debug_line    0x0002bd09      0x72d ../simple_socket_bsp/\libucosii_bsp.a(soselect.o)
 .debug_line    0x0002c436     0x15ee ../simple_socket_bsp/\libucosii_bsp.a(tcp_in.o)
 .debug_line    0x0002da24      0xa59 ../simple_socket_bsp/\libucosii_bsp.a(tcp_out.o)
 .debug_line    0x0002e47d      0x7c3 ../simple_socket_bsp/\libucosii_bsp.a(tcp_subr.o)
 .debug_line    0x0002ec40      0x613 ../simple_socket_bsp/\libucosii_bsp.a(tcp_timr.o)
 .debug_line    0x0002f253      0x8a2 ../simple_socket_bsp/\libucosii_bsp.a(tcp_usr.o)
 .debug_line    0x0002faf5      0x33f ../simple_socket_bsp/\libucosii_bsp.a(tcpport.o)
 .debug_line    0x0002fe34      0x959 ../simple_socket_bsp/\libucosii_bsp.a(udpsock.o)
 .debug_line    0x0003078d      0x2dc ../simple_socket_bsp/\libucosii_bsp.a(alt_alarm_start.o)
 .debug_line    0x00030a69      0x25c ../simple_socket_bsp/\libucosii_bsp.a(alt_busy_sleep.o)
 .debug_line    0x00030cc5      0x2f9 ../simple_socket_bsp/\libucosii_bsp.a(alt_close.o)
 .debug_line    0x00030fbe      0x1e1 ../simple_socket_bsp/\libucosii_bsp.a(alt_dcache_flush.o)
 .debug_line    0x0003119f      0x2ba ../simple_socket_bsp/\libucosii_bsp.a(alt_dev.o)
 .debug_line    0x00031459      0x25a ../simple_socket_bsp/\libucosii_bsp.a(alt_dev_llist_insert.o)
 .debug_line    0x000316b3       0x83 ../simple_socket_bsp/\libucosii_bsp.a(alt_do_ctors.o)
 .debug_line    0x00031736       0x83 ../simple_socket_bsp/\libucosii_bsp.a(alt_do_dtors.o)
 .debug_line    0x000317b9      0x1aa ../simple_socket_bsp/\libucosii_bsp.a(alt_errno.o)
 .debug_line    0x00031963      0x2da ../simple_socket_bsp/\libucosii_bsp.a(alt_find_dev.o)
 .debug_line    0x00031c3d      0x2c8 ../simple_socket_bsp/\libucosii_bsp.a(alt_iic.o)
 .debug_line    0x00031f05      0x249 ../simple_socket_bsp/\libucosii_bsp.a(alt_iic_isr_register.o)
 .debug_line    0x0003214e      0x323 ../simple_socket_bsp/\libucosii_bsp.a(alt_io_redirect.o)
 .debug_line    0x00032471       0x6b ../simple_socket_bsp/\libucosii_bsp.a(alt_irq_entry.o)
 .debug_line    0x000324dc      0x2c4 ../simple_socket_bsp/\libucosii_bsp.a(alt_irq_handler.o)
 .debug_line    0x000327a0      0x35f ../simple_socket_bsp/\libucosii_bsp.a(alt_open.o)
 .debug_line    0x00032aff      0x328 ../simple_socket_bsp/\libucosii_bsp.a(alt_read.o)
 .debug_line    0x00032e27      0x279 ../simple_socket_bsp/\libucosii_bsp.a(alt_release_fd.o)
 .debug_line    0x000330a0      0x1b9 ../simple_socket_bsp/\libucosii_bsp.a(alt_remap_cached.o)
 .debug_line    0x00033259      0x1c3 ../simple_socket_bsp/\libucosii_bsp.a(alt_remap_uncached.o)
 .debug_line    0x0003341c      0x316 ../simple_socket_bsp/\libucosii_bsp.a(alt_tick.o)
 .debug_line    0x00033732      0x329 ../simple_socket_bsp/\libucosii_bsp.a(alt_write.o)
 .debug_line    0x00033a5b      0x1ce ../simple_socket_bsp/\libucosii_bsp.a(altera_nios2_qsys_irq.o)
 .debug_line    0x00033c29       0x86 ../simple_socket_bsp/\libucosii_bsp.a(os_cpu_a.o)
 .debug_line    0x00033caf      0x330 ../simple_socket_bsp/\libucosii_bsp.a(os_cpu_c.o)
 .debug_line    0x00033fdf      0x445 ../simple_socket_bsp/\libucosii_bsp.a(altera_avalon_cfi_flash_amd.o)
 .debug_line    0x00034424      0x437 ../simple_socket_bsp/\libucosii_bsp.a(altera_avalon_cfi_flash_intel.o)
 .debug_line    0x0003485b      0x1f2 ../simple_socket_bsp/\libucosii_bsp.a(altera_avalon_spi.o)
 .debug_line    0x00034a4d      0x51f ../simple_socket_bsp/\libucosii_bsp.a(allports.o)
 .debug_line    0x00034f6c      0x483 ../simple_socket_bsp/\libucosii_bsp.a(timeouts.o)
 .debug_line    0x000353ef      0x370 ../simple_socket_bsp/\libucosii_bsp.a(tk_misc.o)
 .debug_line    0x0003575f      0x38f ../simple_socket_bsp/\libucosii_bsp.a(alt_iniche_fcntl.o)
 .debug_line    0x00035aee      0xca2 ../simple_socket_bsp/\libucosii_bsp.a(et_arp.o)
 .debug_line    0x00036790      0x479 ../simple_socket_bsp/\libucosii_bsp.a(iface.o)
 .debug_line    0x00036c09      0xf95 ../simple_socket_bsp/\libucosii_bsp.a(ip.o)
 .debug_line    0x00037b9e      0xf7c ../simple_socket_bsp/\libucosii_bsp.a(ip_reasm.o)
 .debug_line    0x00038b1a      0x786 ../simple_socket_bsp/\libucosii_bsp.a(ipdemux.o)
 .debug_line    0x000392a0      0x468 ../simple_socket_bsp/\libucosii_bsp.a(ipmc.o)
 .debug_line    0x00039708      0x338 ../simple_socket_bsp/\libucosii_bsp.a(ipport.o)
 .debug_line    0x00039a40      0x5b9 ../simple_socket_bsp/\libucosii_bsp.a(ipraw.o)
 .debug_line    0x00039ff9      0x5bb ../simple_socket_bsp/\libucosii_bsp.a(iproute.o)
 .debug_line    0x0003a5b4      0x7f6 ../simple_socket_bsp/\libucosii_bsp.a(udp.o)
 .debug_line    0x0003adaa      0x43a ../simple_socket_bsp/\libucosii_bsp.a(igmp.o)
 .debug_line    0x0003b1e4      0x62d ../simple_socket_bsp/\libucosii_bsp.a(igmp2.o)
 .debug_line    0x0003b811      0x711 ../simple_socket_bsp/\libucosii_bsp.a(ipopt.o)
 .debug_line    0x0003bf22      0x5fb ../simple_socket_bsp/\libucosii_bsp.a(u_mctest.o)
 .debug_line    0x0003c51d      0x43f ../simple_socket_bsp/\libucosii_bsp.a(dhcsetup.o)
 .debug_line    0x0003c95c      0x449 ../simple_socket_bsp/\libucosii_bsp.a(memdev.o)
 .debug_line    0x0003cda5      0x3b9 ../simple_socket_bsp/\libucosii_bsp.a(tcpcksum.o)
 .debug_line    0x0003d15e      0x76d ../simple_socket_bsp/\libucosii_bsp.a(in_pcb.o)
 .debug_line    0x0003d8cb      0xff7 ../simple_socket_bsp/\libucosii_bsp.a(vfsfiles.o)
 .debug_line    0x0003e8c2      0x2c4 ../simple_socket_bsp/\libucosii_bsp.a(vfsport.o)
 .debug_line    0x0003eb86       0xab ../simple_socket_bsp/\libucosii_bsp.a(alt_exception_entry.o)
 .debug_line    0x0003ec31      0x358 ../simple_socket_bsp/\libucosii_bsp.a(alt_fcntl.o)
 .debug_line    0x0003ef89      0x2eb ../simple_socket_bsp/\libucosii_bsp.a(alt_find_file.o)
 .debug_line    0x0003f274      0x31b ../simple_socket_bsp/\libucosii_bsp.a(alt_get_fd.o)
 .debug_line    0x0003f58f      0x958 ../simple_socket_bsp/\libucosii_bsp.a(icmp.o)
 .debug_line    0x0003fee7      0x200 j:/altera/13.0sp1/nios2eds/bin/gnu/h-i686-mingw32/bin/../lib/gcc/nios2-elf/4.1.2/../../../../nios2-elf/lib\libc.a(lib_a-atexit.o)
 .debug_line    0x000400e7      0x20a j:/altera/13.0sp1/nios2eds/bin/gnu/h-i686-mingw32/bin/../lib/gcc/nios2-elf/4.1.2/../../../../nios2-elf/lib\libc.a(lib_a-atoi.o)
 .debug_line    0x000402f1      0x20c j:/altera/13.0sp1/nios2eds/bin/gnu/h-i686-mingw32/bin/../lib/gcc/nios2-elf/4.1.2/../../../../nios2-elf/lib\libc.a(lib_a-calloc.o)
 .debug_line    0x000404fd      0x24b j:/altera/13.0sp1/nios2eds/bin/gnu/h-i686-mingw32/bin/../lib/gcc/nios2-elf/4.1.2/../../../../nios2-elf/lib\libc.a(lib_a-malloc.o)
 .debug_line    0x00040748      0x29f j:/altera/13.0sp1/nios2eds/bin/gnu/h-i686-mingw32/bin/../lib/gcc/nios2-elf/4.1.2/../../../../nios2-elf/lib\libc.a(lib_a-memcmp.o)
 .debug_line    0x000409e7      0x322 j:/altera/13.0sp1/nios2eds/bin/gnu/h-i686-mingw32/bin/../lib/gcc/nios2-elf/4.1.2/../../../../nios2-elf/lib\libc.a(lib_a-sprintf.o)
 .debug_line    0x00040d09      0x287 j:/altera/13.0sp1/nios2eds/bin/gnu/h-i686-mingw32/bin/../lib/gcc/nios2-elf/4.1.2/../../../../nios2-elf/lib\libc.a(lib_a-strcpy.o)
 .debug_line    0x00040f90      0x2fe j:/altera/13.0sp1/nios2eds/bin/gnu/h-i686-mingw32/bin/../lib/gcc/nios2-elf/4.1.2/../../../../nios2-elf/lib\libc.a(lib_a-strncmp.o)
 .debug_line    0x0004128e      0x2d0 j:/altera/13.0sp1/nios2eds/bin/gnu/h-i686-mingw32/bin/../lib/gcc/nios2-elf/4.1.2/../../../../nios2-elf/lib\libc.a(lib_a-strncpy.o)
 .debug_line    0x0004155e      0x403 j:/altera/13.0sp1/nios2eds/bin/gnu/h-i686-mingw32/bin/../lib/gcc/nios2-elf/4.1.2/../../../../nios2-elf/lib\libc.a(lib_a-strtol.o)
 .debug_line    0x00041961      0x26f j:/altera/13.0sp1/nios2eds/bin/gnu/h-i686-mingw32/bin/../lib/gcc/nios2-elf/4.1.2/../../../../nios2-elf/lib\libc.a(lib_a-vprintf.o)
 .debug_line    0x00041bd0      0x2d9 j:/altera/13.0sp1/nios2eds/bin/gnu/h-i686-mingw32/bin/../lib/gcc/nios2-elf/4.1.2/../../../../nios2-elf/lib\libc.a(lib_a-vsprintf.o)
 .debug_line    0x00041ea9      0x313 j:/altera/13.0sp1/nios2eds/bin/gnu/h-i686-mingw32/bin/../lib/gcc/nios2-elf/4.1.2/../../../../nios2-elf/lib\libc.a(lib_a-__atexit.o)

.debug_frame    0x00000000     0x673c
 *(.debug_frame)
 .debug_frame   0x00000000       0xbc obj/default/LCD.o
 .debug_frame   0x000000bc       0x48 obj/default/SSS_DE2_115.o
 .debug_frame   0x00000104       0x64 obj/default/alt_error_handler.o
 .debug_frame   0x00000168      0x19c obj/default/dm9000a.o
 .debug_frame   0x00000304       0x4c obj/default/iniche_init.o
 .debug_frame   0x00000350       0x64 obj/default/led.o
 .debug_frame   0x000003b4       0xbc obj/default/network_utilities.o
 .debug_frame   0x00000470       0xfc obj/default/simple_socket_server.o
 .debug_frame   0x0000056c       0x30 j:/altera/13.0sp1/nios2eds/bin/gnu/h-i686-mingw32/bin/../lib/gcc/nios2-elf/4.1.2\libgcc.a(_fixunsdfsi.o)
 .debug_frame   0x0000059c       0x70 j:/altera/13.0sp1/nios2eds/bin/gnu/h-i686-mingw32/bin/../lib/gcc/nios2-elf/4.1.2\libgcc.a(_addsub_df.o)
 .debug_frame   0x0000060c       0x3c j:/altera/13.0sp1/nios2eds/bin/gnu/h-i686-mingw32/bin/../lib/gcc/nios2-elf/4.1.2\libgcc.a(_mul_df.o)
 .debug_frame   0x00000648       0x2c j:/altera/13.0sp1/nios2eds/bin/gnu/h-i686-mingw32/bin/../lib/gcc/nios2-elf/4.1.2\libgcc.a(_ge_df.o)
 .debug_frame   0x00000674       0x28 j:/altera/13.0sp1/nios2eds/bin/gnu/h-i686-mingw32/bin/../lib/gcc/nios2-elf/4.1.2\libgcc.a(_df_to_si.o)
 .debug_frame   0x0000069c       0x38 j:/altera/13.0sp1/nios2eds/bin/gnu/h-i686-mingw32/bin/../lib/gcc/nios2-elf/4.1.2\libgcc.a(_usi_to_df.o)
 .debug_frame   0x000006d4       0x2c j:/altera/13.0sp1/nios2eds/bin/gnu/h-i686-mingw32/bin/../lib/gcc/nios2-elf/4.1.2\libgcc.a(_muldi3.o)
 .debug_frame   0x00000700       0x20 j:/altera/13.0sp1/nios2eds/bin/gnu/h-i686-mingw32/bin/../lib/gcc/nios2-elf/4.1.2\libgcc.a(_clzsi2.o)
 .debug_frame   0x00000720       0x2c j:/altera/13.0sp1/nios2eds/bin/gnu/h-i686-mingw32/bin/../lib/gcc/nios2-elf/4.1.2\libgcc.a(_pack_df.o)
 .debug_frame   0x0000074c       0x20 j:/altera/13.0sp1/nios2eds/bin/gnu/h-i686-mingw32/bin/../lib/gcc/nios2-elf/4.1.2\libgcc.a(_unpack_df.o)
 .debug_frame   0x0000076c       0x20 j:/altera/13.0sp1/nios2eds/bin/gnu/h-i686-mingw32/bin/../lib/gcc/nios2-elf/4.1.2\libgcc.a(_fpcmp_parts_df.o)
 .debug_frame   0x0000078c       0x28 j:/altera/13.0sp1/nios2eds/bin/gnu/h-i686-mingw32/bin/../lib/gcc/nios2-elf/4.1.2/../../../../nios2-elf/lib\libc.a(lib_a-exit.o)
 .debug_frame   0x000007b4       0x40 j:/altera/13.0sp1/nios2eds/bin/gnu/h-i686-mingw32/bin/../lib/gcc/nios2-elf/4.1.2/../../../../nios2-elf/lib\libc.a(lib_a-fprintf.o)
 .debug_frame   0x000007f4       0x48 j:/altera/13.0sp1/nios2eds/bin/gnu/h-i686-mingw32/bin/../lib/gcc/nios2-elf/4.1.2/../../../../nios2-elf/lib\libc.a(lib_a-fwrite.o)
 .debug_frame   0x0000083c       0x48 j:/altera/13.0sp1/nios2eds/bin/gnu/h-i686-mingw32/bin/../lib/gcc/nios2-elf/4.1.2/../../../../nios2-elf/lib\libc.a(lib_a-getc.o)
 .debug_frame   0x00000884       0x20 j:/altera/13.0sp1/nios2eds/bin/gnu/h-i686-mingw32/bin/../lib/gcc/nios2-elf/4.1.2/../../../../nios2-elf/lib\libc.a(lib_a-memcpy.o)
 .debug_frame   0x000008a4       0x20 j:/altera/13.0sp1/nios2eds/bin/gnu/h-i686-mingw32/bin/../lib/gcc/nios2-elf/4.1.2/../../../../nios2-elf/lib\libc.a(lib_a-memmove.o)
 .debug_frame   0x000008c4       0x20 j:/altera/13.0sp1/nios2eds/bin/gnu/h-i686-mingw32/bin/../lib/gcc/nios2-elf/4.1.2/../../../../nios2-elf/lib\libc.a(lib_a-memset.o)
 .debug_frame   0x000008e4       0x38 j:/altera/13.0sp1/nios2eds/bin/gnu/h-i686-mingw32/bin/../lib/gcc/nios2-elf/4.1.2/../../../../nios2-elf/lib\libc.a(lib_a-perror.o)
 .debug_frame   0x0000091c       0x40 j:/altera/13.0sp1/nios2eds/bin/gnu/h-i686-mingw32/bin/../lib/gcc/nios2-elf/4.1.2/../../../../nios2-elf/lib\libc.a(lib_a-printf.o)
 .debug_frame   0x0000095c       0x4c j:/altera/13.0sp1/nios2eds/bin/gnu/h-i686-mingw32/bin/../lib/gcc/nios2-elf/4.1.2/../../../../nios2-elf/lib\libc.a(lib_a-putc.o)
 .debug_frame   0x000009a8       0x30 j:/altera/13.0sp1/nios2eds/bin/gnu/h-i686-mingw32/bin/../lib/gcc/nios2-elf/4.1.2/../../../../nios2-elf/lib\libc.a(lib_a-putchar.o)
 .debug_frame   0x000009d8       0x3c j:/altera/13.0sp1/nios2eds/bin/gnu/h-i686-mingw32/bin/../lib/gcc/nios2-elf/4.1.2/../../../../nios2-elf/lib\libc.a(lib_a-puts.o)
 .debug_frame   0x00000a14       0x38 j:/altera/13.0sp1/nios2eds/bin/gnu/h-i686-mingw32/bin/../lib/gcc/nios2-elf/4.1.2/../../../../nios2-elf/lib\libc.a(lib_a-rget.o)
 .debug_frame   0x00000a4c       0x20 j:/altera/13.0sp1/nios2eds/bin/gnu/h-i686-mingw32/bin/../lib/gcc/nios2-elf/4.1.2/../../../../nios2-elf/lib\libc.a(lib_a-strchr.o)
 .debug_frame   0x00000a6c       0x28 j:/altera/13.0sp1/nios2eds/bin/gnu/h-i686-mingw32/bin/../lib/gcc/nios2-elf/4.1.2/../../../../nios2-elf/lib\libc.a(lib_a-strerror.o)
 .debug_frame   0x00000a94       0x20 j:/altera/13.0sp1/nios2eds/bin/gnu/h-i686-mingw32/bin/../lib/gcc/nios2-elf/4.1.2/../../../../nios2-elf/lib\libc.a(lib_a-strlen.o)
 .debug_frame   0x00000ab4       0x20 j:/altera/13.0sp1/nios2eds/bin/gnu/h-i686-mingw32/bin/../lib/gcc/nios2-elf/4.1.2/../../../../nios2-elf/lib\libc.a(lib_a-u_strerr.o)
 .debug_frame   0x00000ad4       0x64 j:/altera/13.0sp1/nios2eds/bin/gnu/h-i686-mingw32/bin/../lib/gcc/nios2-elf/4.1.2/../../../../nios2-elf/lib\libc.a(lib_a-vfprintf.o)
 .debug_frame   0x00000b38       0x3c j:/altera/13.0sp1/nios2eds/bin/gnu/h-i686-mingw32/bin/../lib/gcc/nios2-elf/4.1.2/../../../../nios2-elf/lib\libc.a(lib_a-wbuf.o)
 .debug_frame   0x00000b74       0x2c j:/altera/13.0sp1/nios2eds/bin/gnu/h-i686-mingw32/bin/../lib/gcc/nios2-elf/4.1.2/../../../../nios2-elf/lib\libc.a(lib_a-wsetup.o)
 .debug_frame   0x00000ba0       0x4c j:/altera/13.0sp1/nios2eds/bin/gnu/h-i686-mingw32/bin/../lib/gcc/nios2-elf/4.1.2/../../../../nios2-elf/lib\libc.a(lib_a-__call_atexit.o)
 .debug_frame   0x00000bec       0x64 j:/altera/13.0sp1/nios2eds/bin/gnu/h-i686-mingw32/bin/../lib/gcc/nios2-elf/4.1.2/../../../../nios2-elf/lib\libc.a(lib_a-dtoa.o)
 .debug_frame   0x00000c50       0x40 j:/altera/13.0sp1/nios2eds/bin/gnu/h-i686-mingw32/bin/../lib/gcc/nios2-elf/4.1.2/../../../../nios2-elf/lib\libc.a(lib_a-fflush.o)
 .debug_frame   0x00000c90      0x118 j:/altera/13.0sp1/nios2eds/bin/gnu/h-i686-mingw32/bin/../lib/gcc/nios2-elf/4.1.2/../../../../nios2-elf/lib\libc.a(lib_a-findfp.o)
 .debug_frame   0x00000da8       0x4c j:/altera/13.0sp1/nios2eds/bin/gnu/h-i686-mingw32/bin/../lib/gcc/nios2-elf/4.1.2/../../../../nios2-elf/lib\libc.a(lib_a-fputc.o)
 .debug_frame   0x00000df4       0x3c j:/altera/13.0sp1/nios2eds/bin/gnu/h-i686-mingw32/bin/../lib/gcc/nios2-elf/4.1.2/../../../../nios2-elf/lib\libc.a(lib_a-fputs.o)
 .debug_frame   0x00000e30       0x4c j:/altera/13.0sp1/nios2eds/bin/gnu/h-i686-mingw32/bin/../lib/gcc/nios2-elf/4.1.2/../../../../nios2-elf/lib\libc.a(lib_a-freer.o)
 .debug_frame   0x00000e7c       0x38 j:/altera/13.0sp1/nios2eds/bin/gnu/h-i686-mingw32/bin/../lib/gcc/nios2-elf/4.1.2/../../../../nios2-elf/lib\libc.a(lib_a-fvwrite.o)
 .debug_frame   0x00000eb4       0x60 j:/altera/13.0sp1/nios2eds/bin/gnu/h-i686-mingw32/bin/../lib/gcc/nios2-elf/4.1.2/../../../../nios2-elf/lib\libc.a(lib_a-fwalk.o)
 .debug_frame   0x00000f14       0x70 j:/altera/13.0sp1/nios2eds/bin/gnu/h-i686-mingw32/bin/../lib/gcc/nios2-elf/4.1.2/../../../../nios2-elf/lib\libc.a(lib_a-locale.o)
 .debug_frame   0x00000f84       0x2c j:/altera/13.0sp1/nios2eds/bin/gnu/h-i686-mingw32/bin/../lib/gcc/nios2-elf/4.1.2/../../../../nios2-elf/lib\libc.a(lib_a-makebuf.o)
 .debug_frame   0x00000fb0       0x38 j:/altera/13.0sp1/nios2eds/bin/gnu/h-i686-mingw32/bin/../lib/gcc/nios2-elf/4.1.2/../../../../nios2-elf/lib\libc.a(lib_a-mallocr.o)
 .debug_frame   0x00000fe8       0x20 j:/altera/13.0sp1/nios2eds/bin/gnu/h-i686-mingw32/bin/../lib/gcc/nios2-elf/4.1.2/../../../../nios2-elf/lib\libc.a(lib_a-memchr.o)
 .debug_frame   0x00001008      0x218 j:/altera/13.0sp1/nios2eds/bin/gnu/h-i686-mingw32/bin/../lib/gcc/nios2-elf/4.1.2/../../../../nios2-elf/lib\libc.a(lib_a-mprec.o)
 .debug_frame   0x00001220       0x38 j:/altera/13.0sp1/nios2eds/bin/gnu/h-i686-mingw32/bin/../lib/gcc/nios2-elf/4.1.2/../../../../nios2-elf/lib\libc.a(lib_a-reallocr.o)
 .debug_frame   0x00001258       0x3c j:/altera/13.0sp1/nios2eds/bin/gnu/h-i686-mingw32/bin/../lib/gcc/nios2-elf/4.1.2/../../../../nios2-elf/lib\libc.a(lib_a-refill.o)
 .debug_frame   0x00001294       0x20 j:/altera/13.0sp1/nios2eds/bin/gnu/h-i686-mingw32/bin/../lib/gcc/nios2-elf/4.1.2/../../../../nios2-elf/lib\libc.a(lib_a-s_isinfd.o)
 .debug_frame   0x000012b4       0x20 j:/altera/13.0sp1/nios2eds/bin/gnu/h-i686-mingw32/bin/../lib/gcc/nios2-elf/4.1.2/../../../../nios2-elf/lib\libc.a(lib_a-s_isnand.o)
 .debug_frame   0x000012d4       0x2c j:/altera/13.0sp1/nios2eds/bin/gnu/h-i686-mingw32/bin/../lib/gcc/nios2-elf/4.1.2/../../../../nios2-elf/lib\libc.a(lib_a-sbrkr.o)
 .debug_frame   0x00001300       0x78 j:/altera/13.0sp1/nios2eds/bin/gnu/h-i686-mingw32/bin/../lib/gcc/nios2-elf/4.1.2/../../../../nios2-elf/lib\libc.a(lib_a-stdio.o)
 .debug_frame   0x00001378       0x20 j:/altera/13.0sp1/nios2eds/bin/gnu/h-i686-mingw32/bin/../lib/gcc/nios2-elf/4.1.2/../../../../nios2-elf/lib\libc.a(lib_a-strcmp.o)
 .debug_frame   0x00001398       0x2c j:/altera/13.0sp1/nios2eds/bin/gnu/h-i686-mingw32/bin/../lib/gcc/nios2-elf/4.1.2/../../../../nios2-elf/lib\libc.a(lib_a-writer.o)
 .debug_frame   0x000013c4       0x28 j:/altera/13.0sp1/nios2eds/bin/gnu/h-i686-mingw32/bin/../lib/gcc/nios2-elf/4.1.2/../../../../nios2-elf/lib\libc.a(lib_a-callocr.o)
 .debug_frame   0x000013ec       0x2c j:/altera/13.0sp1/nios2eds/bin/gnu/h-i686-mingw32/bin/../lib/gcc/nios2-elf/4.1.2/../../../../nios2-elf/lib\libc.a(lib_a-closer.o)
 .debug_frame   0x00001418       0x3c j:/altera/13.0sp1/nios2eds/bin/gnu/h-i686-mingw32/bin/../lib/gcc/nios2-elf/4.1.2/../../../../nios2-elf/lib\libc.a(lib_a-fclose.o)
 .debug_frame   0x00001454       0x2c j:/altera/13.0sp1/nios2eds/bin/gnu/h-i686-mingw32/bin/../lib/gcc/nios2-elf/4.1.2/../../../../nios2-elf/lib\libc.a(lib_a-fstatr.o)
 .debug_frame   0x00001480       0x2c j:/altera/13.0sp1/nios2eds/bin/gnu/h-i686-mingw32/bin/../lib/gcc/nios2-elf/4.1.2/../../../../nios2-elf/lib\libc.a(lib_a-isattyr.o)
 .debug_frame   0x000014ac       0x2c j:/altera/13.0sp1/nios2eds/bin/gnu/h-i686-mingw32/bin/../lib/gcc/nios2-elf/4.1.2/../../../../nios2-elf/lib\libc.a(lib_a-lseekr.o)
 .debug_frame   0x000014d8       0x2c j:/altera/13.0sp1/nios2eds/bin/gnu/h-i686-mingw32/bin/../lib/gcc/nios2-elf/4.1.2/../../../../nios2-elf/lib\libc.a(lib_a-readr.o)
 .debug_frame   0x00001504       0x38 j:/altera/13.0sp1/nios2eds/bin/gnu/h-i686-mingw32/bin/../lib/gcc/nios2-elf/4.1.2\libgcc.a(_udivdi3.o)
 .debug_frame   0x0000153c       0x38 j:/altera/13.0sp1/nios2eds/bin/gnu/h-i686-mingw32/bin/../lib/gcc/nios2-elf/4.1.2\libgcc.a(_umoddi3.o)
 .debug_frame   0x00001574       0x30 j:/altera/13.0sp1/nios2eds/bin/gnu/h-i686-mingw32/bin/../lib/gcc/nios2-elf/4.1.2\libgcc.a(_div_df.o)
 .debug_frame   0x000015a4       0x2c j:/altera/13.0sp1/nios2eds/bin/gnu/h-i686-mingw32/bin/../lib/gcc/nios2-elf/4.1.2\libgcc.a(_eq_df.o)
 .debug_frame   0x000015d0       0x2c j:/altera/13.0sp1/nios2eds/bin/gnu/h-i686-mingw32/bin/../lib/gcc/nios2-elf/4.1.2\libgcc.a(_ne_df.o)
 .debug_frame   0x000015fc       0x2c j:/altera/13.0sp1/nios2eds/bin/gnu/h-i686-mingw32/bin/../lib/gcc/nios2-elf/4.1.2\libgcc.a(_gt_df.o)
 .debug_frame   0x00001628       0x2c j:/altera/13.0sp1/nios2eds/bin/gnu/h-i686-mingw32/bin/../lib/gcc/nios2-elf/4.1.2\libgcc.a(_lt_df.o)
 .debug_frame   0x00001654       0x30 j:/altera/13.0sp1/nios2eds/bin/gnu/h-i686-mingw32/bin/../lib/gcc/nios2-elf/4.1.2\libgcc.a(_si_to_df.o)
 .debug_frame   0x00001684       0x70 j:/altera/13.0sp1/nios2eds/bin/gnu/h-i686-mingw32/bin/../lib/gcc/nios2-elf/4.1.2\libgcc.a(lib2-divmod.o)
 .debug_frame   0x000016f4       0x48 ../simple_socket_bsp/\libucosii_bsp.a(alt_exit.o)
 .debug_frame   0x0000173c       0x48 ../simple_socket_bsp/\libucosii_bsp.a(alt_flash_dev.o)
 .debug_frame   0x00001784       0x48 ../simple_socket_bsp/\libucosii_bsp.a(alt_fstat.o)
 .debug_frame   0x000017cc       0x2c ../simple_socket_bsp/\libucosii_bsp.a(alt_irq_register.o)
 .debug_frame   0x000017f8       0x48 ../simple_socket_bsp/\libucosii_bsp.a(alt_isatty.o)
 .debug_frame   0x00001840       0x48 ../simple_socket_bsp/\libucosii_bsp.a(alt_lseek.o)
 .debug_frame   0x00001888       0x2c ../simple_socket_bsp/\libucosii_bsp.a(alt_main.o)
 .debug_frame   0x000018b4       0x2c ../simple_socket_bsp/\libucosii_bsp.a(alt_sbrk.o)
 .debug_frame   0x000018e0       0x30 ../simple_socket_bsp/\libucosii_bsp.a(alt_usleep.o)
 .debug_frame   0x00001910       0x4c ../simple_socket_bsp/\libucosii_bsp.a(alt_env_lock.o)
 .debug_frame   0x0000195c       0x4c ../simple_socket_bsp/\libucosii_bsp.a(alt_malloc_lock.o)
 .debug_frame   0x000019a8      0x3e4 ../simple_socket_bsp/\libucosii_bsp.a(os_core.o)
 .debug_frame   0x00001d8c       0x2c ../simple_socket_bsp/\libucosii_bsp.a(os_dbg.o)
 .debug_frame   0x00001db8      0x180 ../simple_socket_bsp/\libucosii_bsp.a(os_flag.o)
 .debug_frame   0x00001f38       0xd4 ../simple_socket_bsp/\libucosii_bsp.a(os_mem.o)
 .debug_frame   0x0000200c      0x144 ../simple_socket_bsp/\libucosii_bsp.a(os_q.o)
 .debug_frame   0x00002150       0xf0 ../simple_socket_bsp/\libucosii_bsp.a(os_sem.o)
 .debug_frame   0x00002240      0x160 ../simple_socket_bsp/\libucosii_bsp.a(os_task.o)
 .debug_frame   0x000023a0       0xa0 ../simple_socket_bsp/\libucosii_bsp.a(os_time.o)
 .debug_frame   0x00002440       0x64 ../simple_socket_bsp/\libucosii_bsp.a(alt_sys_init.o)
 .debug_frame   0x000024a4       0xd4 ../simple_socket_bsp/\libucosii_bsp.a(altera_avalon_cfi_flash.o)
 .debug_frame   0x00002578      0x210 ../simple_socket_bsp/\libucosii_bsp.a(altera_avalon_cfi_flash_table.o)
 .debug_frame   0x00002788      0x128 ../simple_socket_bsp/\libucosii_bsp.a(altera_avalon_epcs_flash_controller.o)
 .debug_frame   0x000028b0       0x80 ../simple_socket_bsp/\libucosii_bsp.a(altera_avalon_jtag_uart_fd.o)
 .debug_frame   0x00002930       0x80 ../simple_socket_bsp/\libucosii_bsp.a(altera_avalon_jtag_uart_init.o)
 .debug_frame   0x000029b0       0x2c ../simple_socket_bsp/\libucosii_bsp.a(altera_avalon_jtag_uart_ioctl.o)
 .debug_frame   0x000029dc       0x2c ../simple_socket_bsp/\libucosii_bsp.a(altera_avalon_jtag_uart_read.o)
 .debug_frame   0x00002a08       0x2c ../simple_socket_bsp/\libucosii_bsp.a(altera_avalon_jtag_uart_write.o)
 .debug_frame   0x00002a34      0x114 ../simple_socket_bsp/\libucosii_bsp.a(altera_avalon_lcd_16207.o)
 .debug_frame   0x00002b48       0x2c ../simple_socket_bsp/\libucosii_bsp.a(altera_avalon_lcd_16207_fd.o)
 .debug_frame   0x00002b74       0x48 ../simple_socket_bsp/\libucosii_bsp.a(altera_avalon_timer_sc.o)
 .debug_frame   0x00002bbc       0x64 ../simple_socket_bsp/\libucosii_bsp.a(altera_avalon_uart_fd.o)
 .debug_frame   0x00002c20       0x9c ../simple_socket_bsp/\libucosii_bsp.a(altera_avalon_uart_init.o)
 .debug_frame   0x00002cbc       0x48 ../simple_socket_bsp/\libucosii_bsp.a(altera_avalon_uart_read.o)
 .debug_frame   0x00002d04       0x48 ../simple_socket_bsp/\libucosii_bsp.a(altera_avalon_uart_write.o)
 .debug_frame   0x00002d4c      0x160 ../simple_socket_bsp/\libucosii_bsp.a(epcs_commands.o)
 .debug_frame   0x00002eac       0x2c ../simple_socket_bsp/\libucosii_bsp.a(alt_iniche_close.o)
 .debug_frame   0x00002ed8       0x2c ../simple_socket_bsp/\libucosii_bsp.a(alt_iniche_dev.o)
 .debug_frame   0x00002f04       0x2c ../simple_socket_bsp/\libucosii_bsp.a(alt_iniche_read.o)
 .debug_frame   0x00002f30       0x2c ../simple_socket_bsp/\libucosii_bsp.a(alt_iniche_write.o)
 .debug_frame   0x00002f5c       0xb8 ../simple_socket_bsp/\libucosii_bsp.a(ipnet.o)
 .debug_frame   0x00003014       0x80 ../simple_socket_bsp/\libucosii_bsp.a(ipstart.o)
 .debug_frame   0x00003094       0xf8 ../simple_socket_bsp/\libucosii_bsp.a(igmp_cmn.o)
 .debug_frame   0x0000318c      0x12c ../simple_socket_bsp/\libucosii_bsp.a(bsdsock.o)
 .debug_frame   0x000032b8       0x48 ../simple_socket_bsp/\libucosii_bsp.a(cksum.o)
 .debug_frame   0x00003300      0x164 ../simple_socket_bsp/\libucosii_bsp.a(in_utils.o)
 .debug_frame   0x00003464       0x64 ../simple_socket_bsp/\libucosii_bsp.a(netmain.o)
 .debug_frame   0x000034c8      0x10c ../simple_socket_bsp/\libucosii_bsp.a(parseip.o)
 .debug_frame   0x000035d4       0xd4 ../simple_socket_bsp/\libucosii_bsp.a(tk_crnos.o)
 .debug_frame   0x000036a8      0x250 ../simple_socket_bsp/\libucosii_bsp.a(dhcpclnt.o)
 .debug_frame   0x000038f8       0x2c ../simple_socket_bsp/\libucosii_bsp.a(dhcputil.o)
 .debug_frame   0x00003924       0xb8 ../simple_socket_bsp/\libucosii_bsp.a(pktalloc.o)
 .debug_frame   0x000039dc       0x64 ../simple_socket_bsp/\libucosii_bsp.a(q.o)
 .debug_frame   0x00003a40       0x48 ../simple_socket_bsp/\libucosii_bsp.a(udp_open.o)
 .debug_frame   0x00003a88       0xf0 ../simple_socket_bsp/\libucosii_bsp.a(brdutils.o)
 .debug_frame   0x00003b78       0x9c ../simple_socket_bsp/\libucosii_bsp.a(osportco.o)
 .debug_frame   0x00003c14      0x110 ../simple_socket_bsp/\libucosii_bsp.a(targnios.o)
 .debug_frame   0x00003d24      0x208 ../simple_socket_bsp/\libucosii_bsp.a(nptcp.o)
 .debug_frame   0x00003f2c       0x68 ../simple_socket_bsp/\libucosii_bsp.a(rawsock.o)
 .debug_frame   0x00003f94      0x224 ../simple_socket_bsp/\libucosii_bsp.a(sockcall.o)
 .debug_frame   0x000041b8      0x1d4 ../simple_socket_bsp/\libucosii_bsp.a(socket.o)
 .debug_frame   0x0000438c      0x294 ../simple_socket_bsp/\libucosii_bsp.a(socket2.o)
 .debug_frame   0x00004620      0x110 ../simple_socket_bsp/\libucosii_bsp.a(soselect.o)
 .debug_frame   0x00004730       0xd8 ../simple_socket_bsp/\libucosii_bsp.a(tcp_in.o)
 .debug_frame   0x00004808       0x68 ../simple_socket_bsp/\libucosii_bsp.a(tcp_out.o)
 .debug_frame   0x00004870      0x10c ../simple_socket_bsp/\libucosii_bsp.a(tcp_subr.o)
 .debug_frame   0x0000497c       0x64 ../simple_socket_bsp/\libucosii_bsp.a(tcp_timr.o)
 .debug_frame   0x000049e0       0x80 ../simple_socket_bsp/\libucosii_bsp.a(tcp_usr.o)
 .debug_frame   0x00004a60       0x2c ../simple_socket_bsp/\libucosii_bsp.a(tcpport.o)
 .debug_frame   0x00004a8c       0xbc ../simple_socket_bsp/\libucosii_bsp.a(udpsock.o)
 .debug_frame   0x00004b48       0x2c ../simple_socket_bsp/\libucosii_bsp.a(alt_alarm_start.o)
 .debug_frame   0x00004b74       0x2c ../simple_socket_bsp/\libucosii_bsp.a(alt_busy_sleep.o)
 .debug_frame   0x00004ba0       0x48 ../simple_socket_bsp/\libucosii_bsp.a(alt_close.o)
 .debug_frame   0x00004be8       0x2c ../simple_socket_bsp/\libucosii_bsp.a(alt_dcache_flush.o)
 .debug_frame   0x00004c14       0x2c ../simple_socket_bsp/\libucosii_bsp.a(alt_dev.o)
 .debug_frame   0x00004c40       0x48 ../simple_socket_bsp/\libucosii_bsp.a(alt_dev_llist_insert.o)
 .debug_frame   0x00004c88       0x2c ../simple_socket_bsp/\libucosii_bsp.a(alt_do_ctors.o)
 .debug_frame   0x00004cb4       0x2c ../simple_socket_bsp/\libucosii_bsp.a(alt_do_dtors.o)
 .debug_frame   0x00004ce0       0x2c ../simple_socket_bsp/\libucosii_bsp.a(alt_find_dev.o)
 .debug_frame   0x00004d0c       0x80 ../simple_socket_bsp/\libucosii_bsp.a(alt_iic.o)
 .debug_frame   0x00004d8c       0x2c ../simple_socket_bsp/\libucosii_bsp.a(alt_iic_isr_register.o)
 .debug_frame   0x00004db8       0x48 ../simple_socket_bsp/\libucosii_bsp.a(alt_io_redirect.o)
 .debug_frame   0x00004e00       0x2c ../simple_socket_bsp/\libucosii_bsp.a(alt_irq_handler.o)
 .debug_frame   0x00004e2c       0x64 ../simple_socket_bsp/\libucosii_bsp.a(alt_open.o)
 .debug_frame   0x00004e90       0x48 ../simple_socket_bsp/\libucosii_bsp.a(alt_read.o)
 .debug_frame   0x00004ed8       0x2c ../simple_socket_bsp/\libucosii_bsp.a(alt_release_fd.o)
 .debug_frame   0x00004f04       0x2c ../simple_socket_bsp/\libucosii_bsp.a(alt_remap_cached.o)
 .debug_frame   0x00004f30       0x2c ../simple_socket_bsp/\libucosii_bsp.a(alt_remap_uncached.o)
 .debug_frame   0x00004f5c       0x48 ../simple_socket_bsp/\libucosii_bsp.a(alt_tick.o)
 .debug_frame   0x00004fa4       0x48 ../simple_socket_bsp/\libucosii_bsp.a(alt_write.o)
 .debug_frame   0x00004fec       0x2c ../simple_socket_bsp/\libucosii_bsp.a(altera_nios2_qsys_irq.o)
 .debug_frame   0x00005018      0x128 ../simple_socket_bsp/\libucosii_bsp.a(os_cpu_c.o)
 .debug_frame   0x00005140       0x80 ../simple_socket_bsp/\libucosii_bsp.a(altera_avalon_cfi_flash_amd.o)
 .debug_frame   0x000051c0       0x80 ../simple_socket_bsp/\libucosii_bsp.a(altera_avalon_cfi_flash_intel.o)
 .debug_frame   0x00005240       0x2c ../simple_socket_bsp/\libucosii_bsp.a(altera_avalon_spi.o)
 .debug_frame   0x0000526c       0xe0 ../simple_socket_bsp/\libucosii_bsp.a(allports.o)
 .debug_frame   0x0000534c       0x88 ../simple_socket_bsp/\libucosii_bsp.a(timeouts.o)
 .debug_frame   0x000053d4       0x48 ../simple_socket_bsp/\libucosii_bsp.a(tk_misc.o)
 .debug_frame   0x0000541c       0x2c ../simple_socket_bsp/\libucosii_bsp.a(alt_iniche_fcntl.o)
 .debug_frame   0x00005448      0x160 ../simple_socket_bsp/\libucosii_bsp.a(et_arp.o)
 .debug_frame   0x000055a8       0x80 ../simple_socket_bsp/\libucosii_bsp.a(iface.o)
 .debug_frame   0x00005628      0x160 ../simple_socket_bsp/\libucosii_bsp.a(ip.o)
 .debug_frame   0x00005788      0x1d4 ../simple_socket_bsp/\libucosii_bsp.a(ip_reasm.o)
 .debug_frame   0x0000595c       0x68 ../simple_socket_bsp/\libucosii_bsp.a(ipdemux.o)
 .debug_frame   0x000059c4       0x64 ../simple_socket_bsp/\libucosii_bsp.a(ipmc.o)
 .debug_frame   0x00005a28       0x64 ../simple_socket_bsp/\libucosii_bsp.a(ipport.o)
 .debug_frame   0x00005a8c       0xb8 ../simple_socket_bsp/\libucosii_bsp.a(ipraw.o)
 .debug_frame   0x00005b44       0x64 ../simple_socket_bsp/\libucosii_bsp.a(iproute.o)
 .debug_frame   0x00005ba8       0xd4 ../simple_socket_bsp/\libucosii_bsp.a(udp.o)
 .debug_frame   0x00005c7c       0x2c ../simple_socket_bsp/\libucosii_bsp.a(igmp.o)
 .debug_frame   0x00005ca8       0x9c ../simple_socket_bsp/\libucosii_bsp.a(igmp2.o)
 .debug_frame   0x00005d44       0x84 ../simple_socket_bsp/\libucosii_bsp.a(ipopt.o)
 .debug_frame   0x00005dc8       0x4c ../simple_socket_bsp/\libucosii_bsp.a(u_mctest.o)
 .debug_frame   0x00005e14       0x48 ../simple_socket_bsp/\libucosii_bsp.a(dhcsetup.o)
 .debug_frame   0x00005e5c      0x10c ../simple_socket_bsp/\libucosii_bsp.a(memdev.o)
 .debug_frame   0x00005f68       0x2c ../simple_socket_bsp/\libucosii_bsp.a(tcpcksum.o)
 .debug_frame   0x00005f94       0xf0 ../simple_socket_bsp/\libucosii_bsp.a(in_pcb.o)
 .debug_frame   0x00006084      0x320 ../simple_socket_bsp/\libucosii_bsp.a(vfsfiles.o)
 .debug_frame   0x000063a4       0x2c ../simple_socket_bsp/\libucosii_bsp.a(vfsport.o)
 .debug_frame   0x000063d0       0x48 ../simple_socket_bsp/\libucosii_bsp.a(alt_fcntl.o)
 .debug_frame   0x00006418       0x2c ../simple_socket_bsp/\libucosii_bsp.a(alt_find_file.o)
 .debug_frame   0x00006444       0x2c ../simple_socket_bsp/\libucosii_bsp.a(alt_get_fd.o)
 .debug_frame   0x00006470       0x84 ../simple_socket_bsp/\libucosii_bsp.a(icmp.o)
 .debug_frame   0x000064f4       0x20 j:/altera/13.0sp1/nios2eds/bin/gnu/h-i686-mingw32/bin/../lib/gcc/nios2-elf/4.1.2/../../../../nios2-elf/lib\libc.a(lib_a-atexit.o)
 .debug_frame   0x00006514       0x30 j:/altera/13.0sp1/nios2eds/bin/gnu/h-i686-mingw32/bin/../lib/gcc/nios2-elf/4.1.2/../../../../nios2-elf/lib\libc.a(lib_a-atoi.o)
 .debug_frame   0x00006544       0x20 j:/altera/13.0sp1/nios2eds/bin/gnu/h-i686-mingw32/bin/../lib/gcc/nios2-elf/4.1.2/../../../../nios2-elf/lib\libc.a(lib_a-calloc.o)
 .debug_frame   0x00006564       0x30 j:/altera/13.0sp1/nios2eds/bin/gnu/h-i686-mingw32/bin/../lib/gcc/nios2-elf/4.1.2/../../../../nios2-elf/lib\libc.a(lib_a-malloc.o)
 .debug_frame   0x00006594       0x20 j:/altera/13.0sp1/nios2eds/bin/gnu/h-i686-mingw32/bin/../lib/gcc/nios2-elf/4.1.2/../../../../nios2-elf/lib\libc.a(lib_a-memcmp.o)
 .debug_frame   0x000065b4       0x40 j:/altera/13.0sp1/nios2eds/bin/gnu/h-i686-mingw32/bin/../lib/gcc/nios2-elf/4.1.2/../../../../nios2-elf/lib\libc.a(lib_a-sprintf.o)
 .debug_frame   0x000065f4       0x20 j:/altera/13.0sp1/nios2eds/bin/gnu/h-i686-mingw32/bin/../lib/gcc/nios2-elf/4.1.2/../../../../nios2-elf/lib\libc.a(lib_a-strcpy.o)
 .debug_frame   0x00006614       0x20 j:/altera/13.0sp1/nios2eds/bin/gnu/h-i686-mingw32/bin/../lib/gcc/nios2-elf/4.1.2/../../../../nios2-elf/lib\libc.a(lib_a-strncmp.o)
 .debug_frame   0x00006634       0x20 j:/altera/13.0sp1/nios2eds/bin/gnu/h-i686-mingw32/bin/../lib/gcc/nios2-elf/4.1.2/../../../../nios2-elf/lib\libc.a(lib_a-strncpy.o)
 .debug_frame   0x00006654       0x4c j:/altera/13.0sp1/nios2eds/bin/gnu/h-i686-mingw32/bin/../lib/gcc/nios2-elf/4.1.2/../../../../nios2-elf/lib\libc.a(lib_a-strtol.o)
 .debug_frame   0x000066a0       0x30 j:/altera/13.0sp1/nios2eds/bin/gnu/h-i686-mingw32/bin/../lib/gcc/nios2-elf/4.1.2/../../../../nios2-elf/lib\libc.a(lib_a-vprintf.o)
 .debug_frame   0x000066d0       0x38 j:/altera/13.0sp1/nios2eds/bin/gnu/h-i686-mingw32/bin/../lib/gcc/nios2-elf/4.1.2/../../../../nios2-elf/lib\libc.a(lib_a-vsprintf.o)
 .debug_frame   0x00006708       0x34 j:/altera/13.0sp1/nios2eds/bin/gnu/h-i686-mingw32/bin/../lib/gcc/nios2-elf/4.1.2/../../../../nios2-elf/lib\libc.a(lib_a-__atexit.o)

.debug_str      0x00000000     0x3622
 *(.debug_str)
 .debug_str     0x00000000       0x12 obj/default/LCD.o
 .debug_str     0x00000012       0x3f obj/default/SSS_DE2_115.o
 .debug_str     0x00000051       0x4e obj/default/alt_error_handler.o
 .debug_str     0x0000009f       0x33 obj/default/dm9000a.o
 .debug_str     0x000000d2       0x1d obj/default/iniche_init.o
 .debug_str     0x000000ef       0x2b obj/default/led.o
 .debug_str     0x0000011a       0x52 obj/default/network_utilities.o
 .debug_str     0x0000016c       0x2c obj/default/simple_socket_server.o
 .debug_str     0x00000198      0x125 j:/altera/13.0sp1/nios2eds/bin/gnu/h-i686-mingw32/bin/../lib/gcc/nios2-elf/4.1.2\libgcc.a(_fixunsdfsi.o)
                                0x16b (size before relaxing)
 .debug_str     0x000002bd      0x138 j:/altera/13.0sp1/nios2eds/bin/gnu/h-i686-mingw32/bin/../lib/gcc/nios2-elf/4.1.2\libgcc.a(_addsub_df.o)
                                0x26f (size before relaxing)
 .debug_str     0x000003f5       0x45 j:/altera/13.0sp1/nios2eds/bin/gnu/h-i686-mingw32/bin/../lib/gcc/nios2-elf/4.1.2\libgcc.a(_mul_df.o)
                                0x241 (size before relaxing)
 .debug_str     0x0000043a        0x8 j:/altera/13.0sp1/nios2eds/bin/gnu/h-i686-mingw32/bin/../lib/gcc/nios2-elf/4.1.2\libgcc.a(_ge_df.o)
                                0x1fe (size before relaxing)
 .debug_str     0x00000442        0xa j:/altera/13.0sp1/nios2eds/bin/gnu/h-i686-mingw32/bin/../lib/gcc/nios2-elf/4.1.2\libgcc.a(_df_to_si.o)
                                0x207 (size before relaxing)
 .debug_str     0x00000000      0x1a3 j:/altera/13.0sp1/nios2eds/bin/gnu/h-i686-mingw32/bin/../lib/gcc/nios2-elf/4.1.2\libgcc.a(_thenan_df.o)
 .debug_str     0x0000044c       0x1b j:/altera/13.0sp1/nios2eds/bin/gnu/h-i686-mingw32/bin/../lib/gcc/nios2-elf/4.1.2\libgcc.a(_usi_to_df.o)
                                0x1da (size before relaxing)
 .debug_str     0x00000467       0x42 j:/altera/13.0sp1/nios2eds/bin/gnu/h-i686-mingw32/bin/../lib/gcc/nios2-elf/4.1.2\libgcc.a(_muldi3.o)
                                0x1ac (size before relaxing)
 .debug_str     0x000004a9       0x20 j:/altera/13.0sp1/nios2eds/bin/gnu/h-i686-mingw32/bin/../lib/gcc/nios2-elf/4.1.2\libgcc.a(_clzsi2.o)
                                0x17e (size before relaxing)
 .debug_str     0x000004c9       0x10 j:/altera/13.0sp1/nios2eds/bin/gnu/h-i686-mingw32/bin/../lib/gcc/nios2-elf/4.1.2\libgcc.a(_pack_df.o)
                                0x206 (size before relaxing)
 .debug_str     0x000004d9        0xb j:/altera/13.0sp1/nios2eds/bin/gnu/h-i686-mingw32/bin/../lib/gcc/nios2-elf/4.1.2\libgcc.a(_unpack_df.o)
                                0x1e8 (size before relaxing)
 .debug_str     0x000004e4       0x10 j:/altera/13.0sp1/nios2eds/bin/gnu/h-i686-mingw32/bin/../lib/gcc/nios2-elf/4.1.2\libgcc.a(_fpcmp_parts_df.o)
                                0x1c6 (size before relaxing)
 .debug_str     0x00000000      0x161 j:/altera/13.0sp1/nios2eds/bin/gnu/h-i686-mingw32/bin/../lib/gcc/nios2-elf/4.1.2\libgcc.a(_clz.o)
 .debug_str     0x000004f4       0xe2 j:/altera/13.0sp1/nios2eds/bin/gnu/h-i686-mingw32/bin/../lib/gcc/nios2-elf/4.1.2/../../../../nios2-elf/lib\libc.a(lib_a-ctype_.o)
                                0x105 (size before relaxing)
 .debug_str     0x000005d6      0x43e j:/altera/13.0sp1/nios2eds/bin/gnu/h-i686-mingw32/bin/../lib/gcc/nios2-elf/4.1.2/../../../../nios2-elf/lib\libc.a(lib_a-exit.o)
                                0x50c (size before relaxing)
 .debug_str     0x00000a14       0xe8 j:/altera/13.0sp1/nios2eds/bin/gnu/h-i686-mingw32/bin/../lib/gcc/nios2-elf/4.1.2/../../../../nios2-elf/lib\libc.a(lib_a-fprintf.o)
                                0x51f (size before relaxing)
 .debug_str     0x00000afc       0x87 j:/altera/13.0sp1/nios2eds/bin/gnu/h-i686-mingw32/bin/../lib/gcc/nios2-elf/4.1.2/../../../../nios2-elf/lib\libc.a(lib_a-fwrite.o)
                                0x55f (size before relaxing)
 .debug_str     0x00000b83       0x45 j:/altera/13.0sp1/nios2eds/bin/gnu/h-i686-mingw32/bin/../lib/gcc/nios2-elf/4.1.2/../../../../nios2-elf/lib\libc.a(lib_a-getc.o)
                                0x512 (size before relaxing)
 .debug_str     0x00000bc8       0xd1 j:/altera/13.0sp1/nios2eds/bin/gnu/h-i686-mingw32/bin/../lib/gcc/nios2-elf/4.1.2/../../../../nios2-elf/lib\libc.a(lib_a-impure.o)
                                0x51a (size before relaxing)
 .debug_str     0x00000c99       0xf5 j:/altera/13.0sp1/nios2eds/bin/gnu/h-i686-mingw32/bin/../lib/gcc/nios2-elf/4.1.2/../../../../nios2-elf/lib\libc.a(lib_a-memcpy.o)
                                0x128 (size before relaxing)
 .debug_str     0x00000d8e       0x5d j:/altera/13.0sp1/nios2eds/bin/gnu/h-i686-mingw32/bin/../lib/gcc/nios2-elf/4.1.2/../../../../nios2-elf/lib\libc.a(lib_a-memmove.o)
                                0x19d (size before relaxing)
 .debug_str     0x00000deb       0x56 j:/altera/13.0sp1/nios2eds/bin/gnu/h-i686-mingw32/bin/../lib/gcc/nios2-elf/4.1.2/../../../../nios2-elf/lib\libc.a(lib_a-memset.o)
                                0x17e (size before relaxing)
 .debug_str     0x00000e41       0x4b j:/altera/13.0sp1/nios2eds/bin/gnu/h-i686-mingw32/bin/../lib/gcc/nios2-elf/4.1.2/../../../../nios2-elf/lib\libc.a(lib_a-perror.o)
                                0x512 (size before relaxing)
 .debug_str     0x00000e8c       0x44 j:/altera/13.0sp1/nios2eds/bin/gnu/h-i686-mingw32/bin/../lib/gcc/nios2-elf/4.1.2/../../../../nios2-elf/lib\libc.a(lib_a-printf.o)
                                0x523 (size before relaxing)
 .debug_str     0x00000ed0       0x40 j:/altera/13.0sp1/nios2eds/bin/gnu/h-i686-mingw32/bin/../lib/gcc/nios2-elf/4.1.2/../../../../nios2-elf/lib\libc.a(lib_a-putc.o)
                                0x512 (size before relaxing)
 .debug_str     0x00000f10       0x4e j:/altera/13.0sp1/nios2eds/bin/gnu/h-i686-mingw32/bin/../lib/gcc/nios2-elf/4.1.2/../../../../nios2-elf/lib\libc.a(lib_a-putchar.o)
                                0x50f (size before relaxing)
 .debug_str     0x00000f5e       0x40 j:/altera/13.0sp1/nios2eds/bin/gnu/h-i686-mingw32/bin/../lib/gcc/nios2-elf/4.1.2/../../../../nios2-elf/lib\libc.a(lib_a-puts.o)
                                0x549 (size before relaxing)
 .debug_str     0x00000f9e       0x4a j:/altera/13.0sp1/nios2eds/bin/gnu/h-i686-mingw32/bin/../lib/gcc/nios2-elf/4.1.2/../../../../nios2-elf/lib\libc.a(lib_a-rget.o)
                                0x510 (size before relaxing)
 .debug_str     0x00000fe8       0x47 j:/altera/13.0sp1/nios2eds/bin/gnu/h-i686-mingw32/bin/../lib/gcc/nios2-elf/4.1.2/../../../../nios2-elf/lib\libc.a(lib_a-strchr.o)
                                0x175 (size before relaxing)
 .debug_str     0x0000102f       0x44 j:/altera/13.0sp1/nios2eds/bin/gnu/h-i686-mingw32/bin/../lib/gcc/nios2-elf/4.1.2/../../../../nios2-elf/lib\libc.a(lib_a-strerror.o)
                                0x174 (size before relaxing)
 .debug_str     0x00001073       0x42 j:/altera/13.0sp1/nios2eds/bin/gnu/h-i686-mingw32/bin/../lib/gcc/nios2-elf/4.1.2/../../../../nios2-elf/lib\libc.a(lib_a-strlen.o)
                                0x17d (size before relaxing)
 .debug_str     0x000010b5       0x4c j:/altera/13.0sp1/nios2eds/bin/gnu/h-i686-mingw32/bin/../lib/gcc/nios2-elf/4.1.2/../../../../nios2-elf/lib\libc.a(lib_a-u_strerr.o)
                                 0xf0 (size before relaxing)
 .debug_str     0x00001101      0x178 j:/altera/13.0sp1/nios2eds/bin/gnu/h-i686-mingw32/bin/../lib/gcc/nios2-elf/4.1.2/../../../../nios2-elf/lib\libc.a(lib_a-vfprintf.o)
                                0x6f8 (size before relaxing)
 .debug_str     0x00001279       0x4a j:/altera/13.0sp1/nios2eds/bin/gnu/h-i686-mingw32/bin/../lib/gcc/nios2-elf/4.1.2/../../../../nios2-elf/lib\libc.a(lib_a-wbuf.o)
                                0x510 (size before relaxing)
 .debug_str     0x000012c3       0x46 j:/altera/13.0sp1/nios2eds/bin/gnu/h-i686-mingw32/bin/../lib/gcc/nios2-elf/4.1.2/../../../../nios2-elf/lib\libc.a(lib_a-wsetup.o)
                                0x50c (size before relaxing)
 .debug_str     0x00001309       0x7b j:/altera/13.0sp1/nios2eds/bin/gnu/h-i686-mingw32/bin/../lib/gcc/nios2-elf/4.1.2/../../../../nios2-elf/lib\libc.a(lib_a-__call_atexit.o)
                                0x54e (size before relaxing)
 .debug_str     0x00001384      0x102 j:/altera/13.0sp1/nios2eds/bin/gnu/h-i686-mingw32/bin/../lib/gcc/nios2-elf/4.1.2/../../../../nios2-elf/lib\libc.a(lib_a-dtoa.o)
                                0x601 (size before relaxing)
 .debug_str     0x00001486       0x52 j:/altera/13.0sp1/nios2eds/bin/gnu/h-i686-mingw32/bin/../lib/gcc/nios2-elf/4.1.2/../../../../nios2-elf/lib\libc.a(lib_a-fflush.o)
                                0x532 (size before relaxing)
 .debug_str     0x000014d8      0x102 j:/altera/13.0sp1/nios2eds/bin/gnu/h-i686-mingw32/bin/../lib/gcc/nios2-elf/4.1.2/../../../../nios2-elf/lib\libc.a(lib_a-findfp.o)
                                0x5f4 (size before relaxing)
 .debug_str     0x000015da       0x48 j:/altera/13.0sp1/nios2eds/bin/gnu/h-i686-mingw32/bin/../lib/gcc/nios2-elf/4.1.2/../../../../nios2-elf/lib\libc.a(lib_a-fputc.o)
                                0x51a (size before relaxing)
 .debug_str     0x00001622       0x48 j:/altera/13.0sp1/nios2eds/bin/gnu/h-i686-mingw32/bin/../lib/gcc/nios2-elf/4.1.2/../../../../nios2-elf/lib\libc.a(lib_a-fputs.o)
                                0x558 (size before relaxing)
 .debug_str     0x0000166a      0x15b j:/altera/13.0sp1/nios2eds/bin/gnu/h-i686-mingw32/bin/../lib/gcc/nios2-elf/4.1.2/../../../../nios2-elf/lib\libc.a(lib_a-freer.o)
                                0x643 (size before relaxing)
 .debug_str     0x000017c5       0x66 j:/altera/13.0sp1/nios2eds/bin/gnu/h-i686-mingw32/bin/../lib/gcc/nios2-elf/4.1.2/../../../../nios2-elf/lib\libc.a(lib_a-fvwrite.o)
                                0x563 (size before relaxing)
 .debug_str     0x0000182b       0x5e j:/altera/13.0sp1/nios2eds/bin/gnu/h-i686-mingw32/bin/../lib/gcc/nios2-elf/4.1.2/../../../../nios2-elf/lib\libc.a(lib_a-fwalk.o)
                                0x535 (size before relaxing)
 .debug_str     0x00001889      0x225 j:/altera/13.0sp1/nios2eds/bin/gnu/h-i686-mingw32/bin/../lib/gcc/nios2-elf/4.1.2/../../../../nios2-elf/lib\libc.a(lib_a-locale.o)
                                0x6a9 (size before relaxing)
 .debug_str     0x00001aae      0x123 j:/altera/13.0sp1/nios2eds/bin/gnu/h-i686-mingw32/bin/../lib/gcc/nios2-elf/4.1.2/../../../../nios2-elf/lib\libc.a(lib_a-makebuf.o)
                                0x606 (size before relaxing)
 .debug_str     0x00001bd1       0xe9 j:/altera/13.0sp1/nios2eds/bin/gnu/h-i686-mingw32/bin/../lib/gcc/nios2-elf/4.1.2/../../../../nios2-elf/lib\libc.a(lib_a-mallocr.o)
                                0x6f1 (size before relaxing)
 .debug_str     0x00001cba       0x47 j:/altera/13.0sp1/nios2eds/bin/gnu/h-i686-mingw32/bin/../lib/gcc/nios2-elf/4.1.2/../../../../nios2-elf/lib\libc.a(lib_a-memchr.o)
                                0x18b (size before relaxing)
 .debug_str     0x00001d01       0xf8 j:/altera/13.0sp1/nios2eds/bin/gnu/h-i686-mingw32/bin/../lib/gcc/nios2-elf/4.1.2/../../../../nios2-elf/lib\libc.a(lib_a-mprec.o)
                                0x60e (size before relaxing)
 .debug_str     0x00001df9       0x59 j:/altera/13.0sp1/nios2eds/bin/gnu/h-i686-mingw32/bin/../lib/gcc/nios2-elf/4.1.2/../../../../nios2-elf/lib\libc.a(lib_a-reallocr.o)
                                0x5c3 (size before relaxing)
 .debug_str     0x00001e52       0x4d j:/altera/13.0sp1/nios2eds/bin/gnu/h-i686-mingw32/bin/../lib/gcc/nios2-elf/4.1.2/../../../../nios2-elf/lib\libc.a(lib_a-refill.o)
                                0x51a (size before relaxing)
 .debug_str     0x00001e9f       0xdc j:/altera/13.0sp1/nios2eds/bin/gnu/h-i686-mingw32/bin/../lib/gcc/nios2-elf/4.1.2/../../../../nios2-elf/lib\libc.a(lib_a-s_isinfd.o)
                                0x18a (size before relaxing)
 .debug_str     0x00001f7b       0x46 j:/altera/13.0sp1/nios2eds/bin/gnu/h-i686-mingw32/bin/../lib/gcc/nios2-elf/4.1.2/../../../../nios2-elf/lib\libc.a(lib_a-s_isnand.o)
                                0x18a (size before relaxing)
 .debug_str     0x00001fc1       0x50 j:/altera/13.0sp1/nios2eds/bin/gnu/h-i686-mingw32/bin/../lib/gcc/nios2-elf/4.1.2/../../../../nios2-elf/lib\libc.a(lib_a-sbrkr.o)
                                0x50b (size before relaxing)
 .debug_str     0x00002011       0x62 j:/altera/13.0sp1/nios2eds/bin/gnu/h-i686-mingw32/bin/../lib/gcc/nios2-elf/4.1.2/../../../../nios2-elf/lib\libc.a(lib_a-stdio.o)
                                0x531 (size before relaxing)
 .debug_str     0x00002073       0x42 j:/altera/13.0sp1/nios2eds/bin/gnu/h-i686-mingw32/bin/../lib/gcc/nios2-elf/4.1.2/../../../../nios2-elf/lib\libc.a(lib_a-strcmp.o)
                                0x163 (size before relaxing)
 .debug_str     0x000020b5       0x4c j:/altera/13.0sp1/nios2eds/bin/gnu/h-i686-mingw32/bin/../lib/gcc/nios2-elf/4.1.2/../../../../nios2-elf/lib\libc.a(lib_a-writer.o)
                                0x50e (size before relaxing)
 .debug_str     0x00002101       0x19 j:/altera/13.0sp1/nios2eds/bin/gnu/h-i686-mingw32/bin/../lib/gcc/nios2-elf/4.1.2/../../../../nios2-elf/lib\libc.a(lib_a-callocr.o)
                                0x542 (size before relaxing)
 .debug_str     0x0000211a       0x43 j:/altera/13.0sp1/nios2eds/bin/gnu/h-i686-mingw32/bin/../lib/gcc/nios2-elf/4.1.2/../../../../nios2-elf/lib\libc.a(lib_a-closer.o)
                                0x4fe (size before relaxing)
 .debug_str     0x0000215d       0x4b j:/altera/13.0sp1/nios2eds/bin/gnu/h-i686-mingw32/bin/../lib/gcc/nios2-elf/4.1.2/../../../../nios2-elf/lib\libc.a(lib_a-fclose.o)
                                0x516 (size before relaxing)
 .debug_str     0x000021a8       0x49 j:/altera/13.0sp1/nios2eds/bin/gnu/h-i686-mingw32/bin/../lib/gcc/nios2-elf/4.1.2/../../../../nios2-elf/lib\libc.a(lib_a-fstatr.o)
                                0x5f1 (size before relaxing)
 .debug_str     0x000021f1       0x3d j:/altera/13.0sp1/nios2eds/bin/gnu/h-i686-mingw32/bin/../lib/gcc/nios2-elf/4.1.2/../../../../nios2-elf/lib\libc.a(lib_a-int_errno.o)
                                0x163 (size before relaxing)
 .debug_str     0x0000222e       0x45 j:/altera/13.0sp1/nios2eds/bin/gnu/h-i686-mingw32/bin/../lib/gcc/nios2-elf/4.1.2/../../../../nios2-elf/lib\libc.a(lib_a-isattyr.o)
                                0x500 (size before relaxing)
 .debug_str     0x00002273       0x43 j:/altera/13.0sp1/nios2eds/bin/gnu/h-i686-mingw32/bin/../lib/gcc/nios2-elf/4.1.2/../../../../nios2-elf/lib\libc.a(lib_a-lseekr.o)
                                0x50c (size before relaxing)
 .debug_str     0x000022b6       0x41 j:/altera/13.0sp1/nios2eds/bin/gnu/h-i686-mingw32/bin/../lib/gcc/nios2-elf/4.1.2/../../../../nios2-elf/lib\libc.a(lib_a-readr.o)
                                0x50c (size before relaxing)
 .debug_str     0x000022f7       0x35 j:/altera/13.0sp1/nios2eds/bin/gnu/h-i686-mingw32/bin/../lib/gcc/nios2-elf/4.1.2\libgcc.a(_udivdi3.o)
                                0x1f7 (size before relaxing)
 .debug_str     0x0000232c        0xa j:/altera/13.0sp1/nios2eds/bin/gnu/h-i686-mingw32/bin/../lib/gcc/nios2-elf/4.1.2\libgcc.a(_umoddi3.o)
                                0x1f7 (size before relaxing)
 .debug_str     0x00002336       0x35 j:/altera/13.0sp1/nios2eds/bin/gnu/h-i686-mingw32/bin/../lib/gcc/nios2-elf/4.1.2\libgcc.a(_div_df.o)
                                0x231 (size before relaxing)
 .debug_str     0x0000236b        0x8 j:/altera/13.0sp1/nios2eds/bin/gnu/h-i686-mingw32/bin/../lib/gcc/nios2-elf/4.1.2\libgcc.a(_eq_df.o)
                                0x1fe (size before relaxing)
 .debug_str     0x00002373        0x8 j:/altera/13.0sp1/nios2eds/bin/gnu/h-i686-mingw32/bin/../lib/gcc/nios2-elf/4.1.2\libgcc.a(_ne_df.o)
                                0x1fe (size before relaxing)
 .debug_str     0x0000237b        0x8 j:/altera/13.0sp1/nios2eds/bin/gnu/h-i686-mingw32/bin/../lib/gcc/nios2-elf/4.1.2\libgcc.a(_gt_df.o)
                                0x1fe (size before relaxing)
 .debug_str     0x00002383        0x8 j:/altera/13.0sp1/nios2eds/bin/gnu/h-i686-mingw32/bin/../lib/gcc/nios2-elf/4.1.2\libgcc.a(_lt_df.o)
                                0x1fe (size before relaxing)
 .debug_str     0x0000238b       0x11 j:/altera/13.0sp1/nios2eds/bin/gnu/h-i686-mingw32/bin/../lib/gcc/nios2-elf/4.1.2\libgcc.a(_si_to_df.o)
                                0x1de (size before relaxing)
 .debug_str     0x0000239c       0x76 j:/altera/13.0sp1/nios2eds/bin/gnu/h-i686-mingw32/bin/../lib/gcc/nios2-elf/4.1.2\libgcc.a(lib2-divmod.o)
                                0x1b4 (size before relaxing)
 .debug_str     0x00002412       0x1c ../simple_socket_bsp/\libucosii_bsp.a(alt_exit.o)
 .debug_str     0x0000242e       0x2d ../simple_socket_bsp/\libucosii_bsp.a(alt_flash_dev.o)
 .debug_str     0x0000245b       0x12 ../simple_socket_bsp/\libucosii_bsp.a(alt_fstat.o)
 .debug_str     0x0000246d       0x21 ../simple_socket_bsp/\libucosii_bsp.a(alt_irq_register.o)
 .debug_str     0x0000248e       0x12 ../simple_socket_bsp/\libucosii_bsp.a(alt_isatty.o)
 .debug_str     0x000024a0       0x12 ../simple_socket_bsp/\libucosii_bsp.a(alt_lseek.o)
 .debug_str     0x000024b2       0x12 ../simple_socket_bsp/\libucosii_bsp.a(alt_main.o)
 .debug_str     0x000024c4       0x1a ../simple_socket_bsp/\libucosii_bsp.a(alt_sbrk.o)
 .debug_str     0x000024de       0x12 ../simple_socket_bsp/\libucosii_bsp.a(alt_usleep.o)
 .debug_str     0x000024f0       0x36 ../simple_socket_bsp/\libucosii_bsp.a(alt_env_lock.o)
 .debug_str     0x00002526       0x36 ../simple_socket_bsp/\libucosii_bsp.a(alt_malloc_lock.o)
 .debug_str     0x0000255c       0x46 ../simple_socket_bsp/\libucosii_bsp.a(os_core.o)
 .debug_str     0x000025a2       0x2b ../simple_socket_bsp/\libucosii_bsp.a(os_dbg.o)
 .debug_str     0x000025cd       0x4e ../simple_socket_bsp/\libucosii_bsp.a(os_flag.o)
 .debug_str     0x0000261b       0x2c ../simple_socket_bsp/\libucosii_bsp.a(os_mem.o)
 .debug_str     0x00002647       0x36 ../simple_socket_bsp/\libucosii_bsp.a(os_q.o)
 .debug_str     0x0000267d       0x36 ../simple_socket_bsp/\libucosii_bsp.a(os_sem.o)
 .debug_str     0x000026b3       0x23 ../simple_socket_bsp/\libucosii_bsp.a(os_task.o)
 .debug_str     0x000026d6       0x1f ../simple_socket_bsp/\libucosii_bsp.a(os_time.o)
 .debug_str     0x000026f5       0x67 ../simple_socket_bsp/\libucosii_bsp.a(alt_sys_init.o)
 .debug_str     0x0000275c       0x82 ../simple_socket_bsp/\libucosii_bsp.a(altera_avalon_cfi_flash.o)
 .debug_str     0x000027de       0x6d ../simple_socket_bsp/\libucosii_bsp.a(altera_avalon_cfi_flash_table.o)
 .debug_str     0x0000284b       0x90 ../simple_socket_bsp/\libucosii_bsp.a(altera_avalon_epcs_flash_controller.o)
 .debug_str     0x000028db       0x12 ../simple_socket_bsp/\libucosii_bsp.a(altera_avalon_jtag_uart_fd.o)
 .debug_str     0x000028ed       0x1a ../simple_socket_bsp/\libucosii_bsp.a(altera_avalon_jtag_uart_init.o)
 .debug_str     0x00002907       0x12 ../simple_socket_bsp/\libucosii_bsp.a(altera_avalon_jtag_uart_ioctl.o)
 .debug_str     0x00002919       0x22 ../simple_socket_bsp/\libucosii_bsp.a(altera_avalon_jtag_uart_read.o)
 .debug_str     0x0000293b       0x22 ../simple_socket_bsp/\libucosii_bsp.a(altera_avalon_jtag_uart_write.o)
 .debug_str     0x0000295d       0x25 ../simple_socket_bsp/\libucosii_bsp.a(altera_avalon_lcd_16207.o)
 .debug_str     0x00002982       0x12 ../simple_socket_bsp/\libucosii_bsp.a(altera_avalon_lcd_16207_fd.o)
 .debug_str     0x00002994       0x12 ../simple_socket_bsp/\libucosii_bsp.a(altera_avalon_timer_sc.o)
 .debug_str     0x000029a6       0x12 ../simple_socket_bsp/\libucosii_bsp.a(altera_avalon_uart_fd.o)
 .debug_str     0x000029b8       0x1f ../simple_socket_bsp/\libucosii_bsp.a(altera_avalon_uart_init.o)
 .debug_str     0x000029d7       0x1a ../simple_socket_bsp/\libucosii_bsp.a(altera_avalon_uart_read.o)
 .debug_str     0x000029f1       0x1a ../simple_socket_bsp/\libucosii_bsp.a(altera_avalon_uart_write.o)
 .debug_str     0x00002a0b       0x2e ../simple_socket_bsp/\libucosii_bsp.a(epcs_commands.o)
 .debug_str     0x00002a39       0x12 ../simple_socket_bsp/\libucosii_bsp.a(alt_iniche_close.o)
 .debug_str     0x00002a4b       0x12 ../simple_socket_bsp/\libucosii_bsp.a(alt_iniche_dev.o)
 .debug_str     0x00002a5d       0x12 ../simple_socket_bsp/\libucosii_bsp.a(alt_iniche_read.o)
 .debug_str     0x00002a6f       0x12 ../simple_socket_bsp/\libucosii_bsp.a(alt_iniche_write.o)
 .debug_str     0x00002a81       0x12 ../simple_socket_bsp/\libucosii_bsp.a(ipnet.o)
 .debug_str     0x00002a93       0x12 ../simple_socket_bsp/\libucosii_bsp.a(ipstart.o)
 .debug_str     0x00002aa5       0x12 ../simple_socket_bsp/\libucosii_bsp.a(igmp_cmn.o)
 .debug_str     0x00002ab7       0x20 ../simple_socket_bsp/\libucosii_bsp.a(bsdsock.o)
 .debug_str     0x00002ad7       0x12 ../simple_socket_bsp/\libucosii_bsp.a(cksum.o)
 .debug_str     0x00002ae9       0x12 ../simple_socket_bsp/\libucosii_bsp.a(in_utils.o)
 .debug_str     0x00002afb       0x12 ../simple_socket_bsp/\libucosii_bsp.a(netmain.o)
 .debug_str     0x00002b0d       0x12 ../simple_socket_bsp/\libucosii_bsp.a(parseip.o)
 .debug_str     0x00002b1f       0x12 ../simple_socket_bsp/\libucosii_bsp.a(tk_crnos.o)
 .debug_str     0x00002b31       0x2e ../simple_socket_bsp/\libucosii_bsp.a(dhcpclnt.o)
 .debug_str     0x00002b5f       0x12 ../simple_socket_bsp/\libucosii_bsp.a(dhcputil.o)
 .debug_str     0x00002b71       0x12 ../simple_socket_bsp/\libucosii_bsp.a(pktalloc.o)
 .debug_str     0x00002b83       0x12 ../simple_socket_bsp/\libucosii_bsp.a(q.o)
 .debug_str     0x00002b95       0x12 ../simple_socket_bsp/\libucosii_bsp.a(udp_open.o)
 .debug_str     0x00002ba7       0x20 ../simple_socket_bsp/\libucosii_bsp.a(brdutils.o)
 .debug_str     0x00002bc7       0x22 ../simple_socket_bsp/\libucosii_bsp.a(osportco.o)
 .debug_str     0x00002be9       0x12 ../simple_socket_bsp/\libucosii_bsp.a(targnios.o)
 .debug_str     0x00002bfb       0x1e ../simple_socket_bsp/\libucosii_bsp.a(nptcp.o)
 .debug_str     0x00002c19       0x12 ../simple_socket_bsp/\libucosii_bsp.a(rawsock.o)
 .debug_str     0x00002c2b       0x34 ../simple_socket_bsp/\libucosii_bsp.a(sockcall.o)
 .debug_str     0x00002c5f       0x18 ../simple_socket_bsp/\libucosii_bsp.a(socket.o)
 .debug_str     0x00002c77       0x12 ../simple_socket_bsp/\libucosii_bsp.a(socket2.o)
 .debug_str     0x00002c89       0x12 ../simple_socket_bsp/\libucosii_bsp.a(soselect.o)
 .debug_str     0x00002c9b       0x12 ../simple_socket_bsp/\libucosii_bsp.a(tcp_in.o)
 .debug_str     0x00002cad       0x12 ../simple_socket_bsp/\libucosii_bsp.a(tcp_out.o)
 .debug_str     0x00002cbf       0x12 ../simple_socket_bsp/\libucosii_bsp.a(tcp_subr.o)
 .debug_str     0x00002cd1       0x12 ../simple_socket_bsp/\libucosii_bsp.a(tcp_timr.o)
 .debug_str     0x00002ce3       0x12 ../simple_socket_bsp/\libucosii_bsp.a(tcp_usr.o)
 .debug_str     0x00002cf5       0x12 ../simple_socket_bsp/\libucosii_bsp.a(tcpport.o)
 .debug_str     0x00002d07       0x1a ../simple_socket_bsp/\libucosii_bsp.a(udpsock.o)
 .debug_str     0x00002d21       0x23 ../simple_socket_bsp/\libucosii_bsp.a(alt_alarm_start.o)
 .debug_str     0x00002d44       0x12 ../simple_socket_bsp/\libucosii_bsp.a(alt_busy_sleep.o)
 .debug_str     0x00002d56       0x12 ../simple_socket_bsp/\libucosii_bsp.a(alt_close.o)
 .debug_str     0x00002d68       0x12 ../simple_socket_bsp/\libucosii_bsp.a(alt_dcache_flush.o)
 .debug_str     0x00002d7a       0x12 ../simple_socket_bsp/\libucosii_bsp.a(alt_dev.o)
 .debug_str     0x00002d8c       0x12 ../simple_socket_bsp/\libucosii_bsp.a(alt_dev_llist_insert.o)
 .debug_str     0x00002d9e       0x12 ../simple_socket_bsp/\libucosii_bsp.a(alt_errno.o)
 .debug_str     0x00002db0       0x12 ../simple_socket_bsp/\libucosii_bsp.a(alt_find_dev.o)
 .debug_str     0x00002dc2       0x18 ../simple_socket_bsp/\libucosii_bsp.a(alt_iic.o)
 .debug_str     0x00002dda       0x1a ../simple_socket_bsp/\libucosii_bsp.a(alt_iic_isr_register.o)
 .debug_str     0x00002df4       0x12 ../simple_socket_bsp/\libucosii_bsp.a(alt_io_redirect.o)
 .debug_str     0x00002e06       0x12 ../simple_socket_bsp/\libucosii_bsp.a(alt_irq_handler.o)
 .debug_str     0x00002e18       0x12 ../simple_socket_bsp/\libucosii_bsp.a(alt_open.o)
 .debug_str     0x00002e2a       0x12 ../simple_socket_bsp/\libucosii_bsp.a(alt_read.o)
 .debug_str     0x00002e3c       0x12 ../simple_socket_bsp/\libucosii_bsp.a(alt_release_fd.o)
 .debug_str     0x00002e4e       0x12 ../simple_socket_bsp/\libucosii_bsp.a(alt_remap_cached.o)
 .debug_str     0x00002e60       0x12 ../simple_socket_bsp/\libucosii_bsp.a(alt_remap_uncached.o)
 .debug_str     0x00002e72       0x1a ../simple_socket_bsp/\libucosii_bsp.a(alt_tick.o)
 .debug_str     0x00002e8c       0x12 ../simple_socket_bsp/\libucosii_bsp.a(alt_write.o)
 .debug_str     0x00002e9e       0x12 ../simple_socket_bsp/\libucosii_bsp.a(altera_nios2_qsys_irq.o)
 .debug_str     0x00002eb0       0x20 ../simple_socket_bsp/\libucosii_bsp.a(os_cpu_c.o)
 .debug_str     0x00002ed0       0x76 ../simple_socket_bsp/\libucosii_bsp.a(altera_avalon_cfi_flash_amd.o)
 .debug_str     0x00002f46       0x7d ../simple_socket_bsp/\libucosii_bsp.a(altera_avalon_cfi_flash_intel.o)
 .debug_str     0x00002fc3       0x12 ../simple_socket_bsp/\libucosii_bsp.a(allports.o)
 .debug_str     0x00002fd5       0x1b ../simple_socket_bsp/\libucosii_bsp.a(timeouts.o)
 .debug_str     0x00002ff0       0x12 ../simple_socket_bsp/\libucosii_bsp.a(tk_misc.o)
 .debug_str     0x00003002       0x12 ../simple_socket_bsp/\libucosii_bsp.a(alt_iniche_fcntl.o)
 .debug_str     0x00003014       0x3d ../simple_socket_bsp/\libucosii_bsp.a(et_arp.o)
 .debug_str     0x00003051       0x12 ../simple_socket_bsp/\libucosii_bsp.a(iface.o)
 .debug_str     0x00003063       0x2c ../simple_socket_bsp/\libucosii_bsp.a(ip.o)
 .debug_str     0x0000308f       0x4e ../simple_socket_bsp/\libucosii_bsp.a(ip_reasm.o)
 .debug_str     0x000030dd       0x12 ../simple_socket_bsp/\libucosii_bsp.a(ipdemux.o)
 .debug_str     0x000030ef       0x12 ../simple_socket_bsp/\libucosii_bsp.a(ipmc.o)
 .debug_str     0x00003101       0x12 ../simple_socket_bsp/\libucosii_bsp.a(ipport.o)
 .debug_str     0x00003113       0x12 ../simple_socket_bsp/\libucosii_bsp.a(ipraw.o)
 .debug_str     0x00003125       0x12 ../simple_socket_bsp/\libucosii_bsp.a(iproute.o)
 .debug_str     0x00003137       0x12 ../simple_socket_bsp/\libucosii_bsp.a(udp.o)
 .debug_str     0x00003149       0x12 ../simple_socket_bsp/\libucosii_bsp.a(igmp.o)
 .debug_str     0x0000315b       0x20 ../simple_socket_bsp/\libucosii_bsp.a(igmp2.o)
 .debug_str     0x0000317b       0x12 ../simple_socket_bsp/\libucosii_bsp.a(ipopt.o)
 .debug_str     0x0000318d       0x12 ../simple_socket_bsp/\libucosii_bsp.a(u_mctest.o)
 .debug_str     0x0000319f       0x12 ../simple_socket_bsp/\libucosii_bsp.a(dhcsetup.o)
 .debug_str     0x000031b1       0x1b ../simple_socket_bsp/\libucosii_bsp.a(memdev.o)
 .debug_str     0x000031cc       0x12 ../simple_socket_bsp/\libucosii_bsp.a(tcpcksum.o)
 .debug_str     0x000031de       0x12 ../simple_socket_bsp/\libucosii_bsp.a(in_pcb.o)
 .debug_str     0x000031f0       0x2b ../simple_socket_bsp/\libucosii_bsp.a(vfsfiles.o)
 .debug_str     0x0000321b       0x12 ../simple_socket_bsp/\libucosii_bsp.a(vfsport.o)
 .debug_str     0x0000322d       0x12 ../simple_socket_bsp/\libucosii_bsp.a(alt_fcntl.o)
 .debug_str     0x0000323f       0x12 ../simple_socket_bsp/\libucosii_bsp.a(alt_find_file.o)
 .debug_str     0x00003251       0x12 ../simple_socket_bsp/\libucosii_bsp.a(alt_get_fd.o)
 .debug_str     0x00003263       0x12 ../simple_socket_bsp/\libucosii_bsp.a(icmp.o)
 .debug_str     0x00003275       0x3b j:/altera/13.0sp1/nios2eds/bin/gnu/h-i686-mingw32/bin/../lib/gcc/nios2-elf/4.1.2/../../../../nios2-elf/lib\libc.a(lib_a-atexit.o)
                                0x1bf (size before relaxing)
 .debug_str     0x000032b0       0x46 j:/altera/13.0sp1/nios2eds/bin/gnu/h-i686-mingw32/bin/../lib/gcc/nios2-elf/4.1.2/../../../../nios2-elf/lib\libc.a(lib_a-atoi.o)
                                0x4fc (size before relaxing)
 .debug_str     0x000032f6       0x42 j:/altera/13.0sp1/nios2eds/bin/gnu/h-i686-mingw32/bin/../lib/gcc/nios2-elf/4.1.2/../../../../nios2-elf/lib\libc.a(lib_a-calloc.o)
                                0x510 (size before relaxing)
 .debug_str     0x00003338       0x47 j:/altera/13.0sp1/nios2eds/bin/gnu/h-i686-mingw32/bin/../lib/gcc/nios2-elf/4.1.2/../../../../nios2-elf/lib\libc.a(lib_a-malloc.o)
                                0x51c (size before relaxing)
 .debug_str     0x0000337f       0x42 j:/altera/13.0sp1/nios2eds/bin/gnu/h-i686-mingw32/bin/../lib/gcc/nios2-elf/4.1.2/../../../../nios2-elf/lib\libc.a(lib_a-memcmp.o)
                                0x16a (size before relaxing)
 .debug_str     0x000033c1       0x46 j:/altera/13.0sp1/nios2eds/bin/gnu/h-i686-mingw32/bin/../lib/gcc/nios2-elf/4.1.2/../../../../nios2-elf/lib\libc.a(lib_a-sprintf.o)
                                0x52b (size before relaxing)
 .debug_str     0x00003407       0x42 j:/altera/13.0sp1/nios2eds/bin/gnu/h-i686-mingw32/bin/../lib/gcc/nios2-elf/4.1.2/../../../../nios2-elf/lib\libc.a(lib_a-strcpy.o)
                                0x185 (size before relaxing)
 .debug_str     0x00003449       0x44 j:/altera/13.0sp1/nios2eds/bin/gnu/h-i686-mingw32/bin/../lib/gcc/nios2-elf/4.1.2/../../../../nios2-elf/lib\libc.a(lib_a-strncmp.o)
                                0x16c (size before relaxing)
 .debug_str     0x0000348d       0x44 j:/altera/13.0sp1/nios2eds/bin/gnu/h-i686-mingw32/bin/../lib/gcc/nios2-elf/4.1.2/../../../../nios2-elf/lib\libc.a(lib_a-strncpy.o)
                                0x194 (size before relaxing)
 .debug_str     0x000034d1       0x61 j:/altera/13.0sp1/nios2eds/bin/gnu/h-i686-mingw32/bin/../lib/gcc/nios2-elf/4.1.2/../../../../nios2-elf/lib\libc.a(lib_a-strtol.o)
                                0x53e (size before relaxing)
 .debug_str     0x00003532       0x4e j:/altera/13.0sp1/nios2eds/bin/gnu/h-i686-mingw32/bin/../lib/gcc/nios2-elf/4.1.2/../../../../nios2-elf/lib\libc.a(lib_a-vprintf.o)
                                0x526 (size before relaxing)
 .debug_str     0x00003580       0x51 j:/altera/13.0sp1/nios2eds/bin/gnu/h-i686-mingw32/bin/../lib/gcc/nios2-elf/4.1.2/../../../../nios2-elf/lib\libc.a(lib_a-vsprintf.o)
                                0x52e (size before relaxing)
 .debug_str     0x000035d1       0x51 j:/altera/13.0sp1/nios2eds/bin/gnu/h-i686-mingw32/bin/../lib/gcc/nios2-elf/4.1.2/../../../../nios2-elf/lib\libc.a(lib_a-__atexit.o)
                                0x524 (size before relaxing)

.debug_loc      0x00000000    0x13df9
 *(.debug_loc)
 .debug_loc     0x00000000      0x103 obj/default/LCD.o
 .debug_loc     0x00000103       0x56 obj/default/SSS_DE2_115.o
 .debug_loc     0x00000159       0x81 obj/default/alt_error_handler.o
 .debug_loc     0x000001da      0x25a obj/default/dm9000a.o
 .debug_loc     0x00000434       0x58 obj/default/iniche_init.o
 .debug_loc     0x0000048c       0x81 obj/default/led.o
 .debug_loc     0x0000050d      0x103 obj/default/network_utilities.o
 .debug_loc     0x00000610      0x15b obj/default/simple_socket_server.o
 .debug_loc     0x0000076b       0x87 j:/altera/13.0sp1/nios2eds/bin/gnu/h-i686-mingw32/bin/../lib/gcc/nios2-elf/4.1.2\libgcc.a(_fixunsdfsi.o)
 .debug_loc     0x000007f2      0x47a j:/altera/13.0sp1/nios2eds/bin/gnu/h-i686-mingw32/bin/../lib/gcc/nios2-elf/4.1.2\libgcc.a(_addsub_df.o)
 .debug_loc     0x00000c6c      0x3b4 j:/altera/13.0sp1/nios2eds/bin/gnu/h-i686-mingw32/bin/../lib/gcc/nios2-elf/4.1.2\libgcc.a(_mul_df.o)
 .debug_loc     0x00001020       0x70 j:/altera/13.0sp1/nios2eds/bin/gnu/h-i686-mingw32/bin/../lib/gcc/nios2-elf/4.1.2\libgcc.a(_ge_df.o)
 .debug_loc     0x00001090       0x8b j:/altera/13.0sp1/nios2eds/bin/gnu/h-i686-mingw32/bin/../lib/gcc/nios2-elf/4.1.2\libgcc.a(_df_to_si.o)
 .debug_loc     0x0000111b       0x5b j:/altera/13.0sp1/nios2eds/bin/gnu/h-i686-mingw32/bin/../lib/gcc/nios2-elf/4.1.2\libgcc.a(_usi_to_df.o)
 .debug_loc     0x00001176       0xc4 j:/altera/13.0sp1/nios2eds/bin/gnu/h-i686-mingw32/bin/../lib/gcc/nios2-elf/4.1.2\libgcc.a(_muldi3.o)
 .debug_loc     0x0000123a       0x1e j:/altera/13.0sp1/nios2eds/bin/gnu/h-i686-mingw32/bin/../lib/gcc/nios2-elf/4.1.2\libgcc.a(_clzsi2.o)
 .debug_loc     0x00001258      0x184 j:/altera/13.0sp1/nios2eds/bin/gnu/h-i686-mingw32/bin/../lib/gcc/nios2-elf/4.1.2\libgcc.a(_pack_df.o)
 .debug_loc     0x000013dc       0xe5 j:/altera/13.0sp1/nios2eds/bin/gnu/h-i686-mingw32/bin/../lib/gcc/nios2-elf/4.1.2\libgcc.a(_unpack_df.o)
 .debug_loc     0x000014c1       0x3d j:/altera/13.0sp1/nios2eds/bin/gnu/h-i686-mingw32/bin/../lib/gcc/nios2-elf/4.1.2/../../../../nios2-elf/lib\libc.a(lib_a-exit.o)
 .debug_loc     0x000014fe       0xf1 j:/altera/13.0sp1/nios2eds/bin/gnu/h-i686-mingw32/bin/../lib/gcc/nios2-elf/4.1.2/../../../../nios2-elf/lib\libc.a(lib_a-fprintf.o)
 .debug_loc     0x000015ef      0x18e j:/altera/13.0sp1/nios2eds/bin/gnu/h-i686-mingw32/bin/../lib/gcc/nios2-elf/4.1.2/../../../../nios2-elf/lib\libc.a(lib_a-fwrite.o)
 .debug_loc     0x0000177d      0x10b j:/altera/13.0sp1/nios2eds/bin/gnu/h-i686-mingw32/bin/../lib/gcc/nios2-elf/4.1.2/../../../../nios2-elf/lib\libc.a(lib_a-getc.o)
 .debug_loc     0x00001888       0xca j:/altera/13.0sp1/nios2eds/bin/gnu/h-i686-mingw32/bin/../lib/gcc/nios2-elf/4.1.2/../../../../nios2-elf/lib\libc.a(lib_a-memcpy.o)
 .debug_loc     0x00001952      0x117 j:/altera/13.0sp1/nios2eds/bin/gnu/h-i686-mingw32/bin/../lib/gcc/nios2-elf/4.1.2/../../../../nios2-elf/lib\libc.a(lib_a-memmove.o)
 .debug_loc     0x00001a69       0xa1 j:/altera/13.0sp1/nios2eds/bin/gnu/h-i686-mingw32/bin/../lib/gcc/nios2-elf/4.1.2/../../../../nios2-elf/lib\libc.a(lib_a-memset.o)
 .debug_loc     0x00001b0a       0xa2 j:/altera/13.0sp1/nios2eds/bin/gnu/h-i686-mingw32/bin/../lib/gcc/nios2-elf/4.1.2/../../../../nios2-elf/lib\libc.a(lib_a-perror.o)
 .debug_loc     0x00001bac       0xcb j:/altera/13.0sp1/nios2eds/bin/gnu/h-i686-mingw32/bin/../lib/gcc/nios2-elf/4.1.2/../../../../nios2-elf/lib\libc.a(lib_a-printf.o)
 .debug_loc     0x00001c77      0x20d j:/altera/13.0sp1/nios2eds/bin/gnu/h-i686-mingw32/bin/../lib/gcc/nios2-elf/4.1.2/../../../../nios2-elf/lib\libc.a(lib_a-putc.o)
 .debug_loc     0x00001e84       0x44 j:/altera/13.0sp1/nios2eds/bin/gnu/h-i686-mingw32/bin/../lib/gcc/nios2-elf/4.1.2/../../../../nios2-elf/lib\libc.a(lib_a-putchar.o)
 .debug_loc     0x00001ec8       0xa2 j:/altera/13.0sp1/nios2eds/bin/gnu/h-i686-mingw32/bin/../lib/gcc/nios2-elf/4.1.2/../../../../nios2-elf/lib\libc.a(lib_a-puts.o)
 .debug_loc     0x00001f6a       0x6e j:/altera/13.0sp1/nios2eds/bin/gnu/h-i686-mingw32/bin/../lib/gcc/nios2-elf/4.1.2/../../../../nios2-elf/lib\libc.a(lib_a-rget.o)
 .debug_loc     0x00001fd8       0xf3 j:/altera/13.0sp1/nios2eds/bin/gnu/h-i686-mingw32/bin/../lib/gcc/nios2-elf/4.1.2/../../../../nios2-elf/lib\libc.a(lib_a-strchr.o)
 .debug_loc     0x000020cb      0x418 j:/altera/13.0sp1/nios2eds/bin/gnu/h-i686-mingw32/bin/../lib/gcc/nios2-elf/4.1.2/../../../../nios2-elf/lib\libc.a(lib_a-strerror.o)
 .debug_loc     0x000024e3       0x3c j:/altera/13.0sp1/nios2eds/bin/gnu/h-i686-mingw32/bin/../lib/gcc/nios2-elf/4.1.2/../../../../nios2-elf/lib\libc.a(lib_a-strlen.o)
 .debug_loc     0x0000251f     0x1e0d j:/altera/13.0sp1/nios2eds/bin/gnu/h-i686-mingw32/bin/../lib/gcc/nios2-elf/4.1.2/../../../../nios2-elf/lib\libc.a(lib_a-vfprintf.o)
 .debug_loc     0x0000432c      0x157 j:/altera/13.0sp1/nios2eds/bin/gnu/h-i686-mingw32/bin/../lib/gcc/nios2-elf/4.1.2/../../../../nios2-elf/lib\libc.a(lib_a-wbuf.o)
 .debug_loc     0x00004483       0x7c j:/altera/13.0sp1/nios2eds/bin/gnu/h-i686-mingw32/bin/../lib/gcc/nios2-elf/4.1.2/../../../../nios2-elf/lib\libc.a(lib_a-wsetup.o)
 .debug_loc     0x000044ff      0x1cb j:/altera/13.0sp1/nios2eds/bin/gnu/h-i686-mingw32/bin/../lib/gcc/nios2-elf/4.1.2/../../../../nios2-elf/lib\libc.a(lib_a-__call_atexit.o)
 .debug_loc     0x000046ca     0x1dfa j:/altera/13.0sp1/nios2eds/bin/gnu/h-i686-mingw32/bin/../lib/gcc/nios2-elf/4.1.2/../../../../nios2-elf/lib\libc.a(lib_a-dtoa.o)
 .debug_loc     0x000064c4      0x1f6 j:/altera/13.0sp1/nios2eds/bin/gnu/h-i686-mingw32/bin/../lib/gcc/nios2-elf/4.1.2/../../../../nios2-elf/lib\libc.a(lib_a-fflush.o)
 .debug_loc     0x000066ba      0x19f j:/altera/13.0sp1/nios2eds/bin/gnu/h-i686-mingw32/bin/../lib/gcc/nios2-elf/4.1.2/../../../../nios2-elf/lib\libc.a(lib_a-findfp.o)
 .debug_loc     0x00006859      0x14d j:/altera/13.0sp1/nios2eds/bin/gnu/h-i686-mingw32/bin/../lib/gcc/nios2-elf/4.1.2/../../../../nios2-elf/lib\libc.a(lib_a-fputc.o)
 .debug_loc     0x000069a6       0xcb j:/altera/13.0sp1/nios2eds/bin/gnu/h-i686-mingw32/bin/../lib/gcc/nios2-elf/4.1.2/../../../../nios2-elf/lib\libc.a(lib_a-fputs.o)
 .debug_loc     0x00006a71      0x4a7 j:/altera/13.0sp1/nios2eds/bin/gnu/h-i686-mingw32/bin/../lib/gcc/nios2-elf/4.1.2/../../../../nios2-elf/lib\libc.a(lib_a-freer.o)
 .debug_loc     0x00006f18      0x4e4 j:/altera/13.0sp1/nios2eds/bin/gnu/h-i686-mingw32/bin/../lib/gcc/nios2-elf/4.1.2/../../../../nios2-elf/lib\libc.a(lib_a-fvwrite.o)
 .debug_loc     0x000073fc      0x1d2 j:/altera/13.0sp1/nios2eds/bin/gnu/h-i686-mingw32/bin/../lib/gcc/nios2-elf/4.1.2/../../../../nios2-elf/lib\libc.a(lib_a-fwalk.o)
 .debug_loc     0x000075ce       0xe1 j:/altera/13.0sp1/nios2eds/bin/gnu/h-i686-mingw32/bin/../lib/gcc/nios2-elf/4.1.2/../../../../nios2-elf/lib\libc.a(lib_a-locale.o)
 .debug_loc     0x000076af      0x11c j:/altera/13.0sp1/nios2eds/bin/gnu/h-i686-mingw32/bin/../lib/gcc/nios2-elf/4.1.2/../../../../nios2-elf/lib\libc.a(lib_a-makebuf.o)
 .debug_loc     0x000077cb      0xaeb j:/altera/13.0sp1/nios2eds/bin/gnu/h-i686-mingw32/bin/../lib/gcc/nios2-elf/4.1.2/../../../../nios2-elf/lib\libc.a(lib_a-mallocr.o)
 .debug_loc     0x000082b6      0x106 j:/altera/13.0sp1/nios2eds/bin/gnu/h-i686-mingw32/bin/../lib/gcc/nios2-elf/4.1.2/../../../../nios2-elf/lib\libc.a(lib_a-memchr.o)
 .debug_loc     0x000083bc     0x14d6 j:/altera/13.0sp1/nios2eds/bin/gnu/h-i686-mingw32/bin/../lib/gcc/nios2-elf/4.1.2/../../../../nios2-elf/lib\libc.a(lib_a-mprec.o)
 .debug_loc     0x00009892      0x8c0 j:/altera/13.0sp1/nios2eds/bin/gnu/h-i686-mingw32/bin/../lib/gcc/nios2-elf/4.1.2/../../../../nios2-elf/lib\libc.a(lib_a-reallocr.o)
 .debug_loc     0x0000a152       0xd1 j:/altera/13.0sp1/nios2eds/bin/gnu/h-i686-mingw32/bin/../lib/gcc/nios2-elf/4.1.2/../../../../nios2-elf/lib\libc.a(lib_a-refill.o)
 .debug_loc     0x0000a223       0x36 j:/altera/13.0sp1/nios2eds/bin/gnu/h-i686-mingw32/bin/../lib/gcc/nios2-elf/4.1.2/../../../../nios2-elf/lib\libc.a(lib_a-s_isinfd.o)
 .debug_loc     0x0000a259       0x18 j:/altera/13.0sp1/nios2eds/bin/gnu/h-i686-mingw32/bin/../lib/gcc/nios2-elf/4.1.2/../../../../nios2-elf/lib\libc.a(lib_a-s_isnand.o)
 .debug_loc     0x0000a271       0x5b j:/altera/13.0sp1/nios2eds/bin/gnu/h-i686-mingw32/bin/../lib/gcc/nios2-elf/4.1.2/../../../../nios2-elf/lib\libc.a(lib_a-sbrkr.o)
 .debug_loc     0x0000a2cc      0x21f j:/altera/13.0sp1/nios2eds/bin/gnu/h-i686-mingw32/bin/../lib/gcc/nios2-elf/4.1.2/../../../../nios2-elf/lib\libc.a(lib_a-stdio.o)
 .debug_loc     0x0000a4eb       0x65 j:/altera/13.0sp1/nios2eds/bin/gnu/h-i686-mingw32/bin/../lib/gcc/nios2-elf/4.1.2/../../../../nios2-elf/lib\libc.a(lib_a-strcmp.o)
 .debug_loc     0x0000a550       0x97 j:/altera/13.0sp1/nios2eds/bin/gnu/h-i686-mingw32/bin/../lib/gcc/nios2-elf/4.1.2/../../../../nios2-elf/lib\libc.a(lib_a-writer.o)
 .debug_loc     0x0000a5e7       0xe9 j:/altera/13.0sp1/nios2eds/bin/gnu/h-i686-mingw32/bin/../lib/gcc/nios2-elf/4.1.2/../../../../nios2-elf/lib\libc.a(lib_a-callocr.o)
 .debug_loc     0x0000a6d0       0x5b j:/altera/13.0sp1/nios2eds/bin/gnu/h-i686-mingw32/bin/../lib/gcc/nios2-elf/4.1.2/../../../../nios2-elf/lib\libc.a(lib_a-closer.o)
 .debug_loc     0x0000a72b       0xe4 j:/altera/13.0sp1/nios2eds/bin/gnu/h-i686-mingw32/bin/../lib/gcc/nios2-elf/4.1.2/../../../../nios2-elf/lib\libc.a(lib_a-fclose.o)
 .debug_loc     0x0000a80f       0x79 j:/altera/13.0sp1/nios2eds/bin/gnu/h-i686-mingw32/bin/../lib/gcc/nios2-elf/4.1.2/../../../../nios2-elf/lib\libc.a(lib_a-fstatr.o)
 .debug_loc     0x0000a888       0x5b j:/altera/13.0sp1/nios2eds/bin/gnu/h-i686-mingw32/bin/../lib/gcc/nios2-elf/4.1.2/../../../../nios2-elf/lib\libc.a(lib_a-isattyr.o)
 .debug_loc     0x0000a8e3       0x97 j:/altera/13.0sp1/nios2eds/bin/gnu/h-i686-mingw32/bin/../lib/gcc/nios2-elf/4.1.2/../../../../nios2-elf/lib\libc.a(lib_a-lseekr.o)
 .debug_loc     0x0000a97a       0x97 j:/altera/13.0sp1/nios2eds/bin/gnu/h-i686-mingw32/bin/../lib/gcc/nios2-elf/4.1.2/../../../../nios2-elf/lib\libc.a(lib_a-readr.o)
 .debug_loc     0x0000aa11      0xc12 j:/altera/13.0sp1/nios2eds/bin/gnu/h-i686-mingw32/bin/../lib/gcc/nios2-elf/4.1.2\libgcc.a(_udivdi3.o)
 .debug_loc     0x0000b623      0xc26 j:/altera/13.0sp1/nios2eds/bin/gnu/h-i686-mingw32/bin/../lib/gcc/nios2-elf/4.1.2\libgcc.a(_umoddi3.o)
 .debug_loc     0x0000c249      0x1df j:/altera/13.0sp1/nios2eds/bin/gnu/h-i686-mingw32/bin/../lib/gcc/nios2-elf/4.1.2\libgcc.a(_div_df.o)
 .debug_loc     0x0000c428       0x70 j:/altera/13.0sp1/nios2eds/bin/gnu/h-i686-mingw32/bin/../lib/gcc/nios2-elf/4.1.2\libgcc.a(_eq_df.o)
 .debug_loc     0x0000c498       0x70 j:/altera/13.0sp1/nios2eds/bin/gnu/h-i686-mingw32/bin/../lib/gcc/nios2-elf/4.1.2\libgcc.a(_ne_df.o)
 .debug_loc     0x0000c508       0x70 j:/altera/13.0sp1/nios2eds/bin/gnu/h-i686-mingw32/bin/../lib/gcc/nios2-elf/4.1.2\libgcc.a(_gt_df.o)
 .debug_loc     0x0000c578       0x70 j:/altera/13.0sp1/nios2eds/bin/gnu/h-i686-mingw32/bin/../lib/gcc/nios2-elf/4.1.2\libgcc.a(_lt_df.o)
 .debug_loc     0x0000c5e8       0x9a j:/altera/13.0sp1/nios2eds/bin/gnu/h-i686-mingw32/bin/../lib/gcc/nios2-elf/4.1.2\libgcc.a(_si_to_df.o)
 .debug_loc     0x0000c682      0x1d2 j:/altera/13.0sp1/nios2eds/bin/gnu/h-i686-mingw32/bin/../lib/gcc/nios2-elf/4.1.2\libgcc.a(lib2-divmod.o)
 .debug_loc     0x0000c854       0x56 ../simple_socket_bsp/\libucosii_bsp.a(alt_exit.o)
 .debug_loc     0x0000c8aa       0x56 ../simple_socket_bsp/\libucosii_bsp.a(alt_flash_dev.o)
 .debug_loc     0x0000c900       0x56 ../simple_socket_bsp/\libucosii_bsp.a(alt_fstat.o)
 .debug_loc     0x0000c956       0x2c ../simple_socket_bsp/\libucosii_bsp.a(alt_irq_register.o)
 .debug_loc     0x0000c982       0x57 ../simple_socket_bsp/\libucosii_bsp.a(alt_isatty.o)
 .debug_loc     0x0000c9d9       0x56 ../simple_socket_bsp/\libucosii_bsp.a(alt_lseek.o)
 .debug_loc     0x0000ca2f       0x2b ../simple_socket_bsp/\libucosii_bsp.a(alt_main.o)
 .debug_loc     0x0000ca5a       0x2b ../simple_socket_bsp/\libucosii_bsp.a(alt_sbrk.o)
 .debug_loc     0x0000ca85       0x2b ../simple_socket_bsp/\libucosii_bsp.a(alt_usleep.o)
 .debug_loc     0x0000cab0       0x57 ../simple_socket_bsp/\libucosii_bsp.a(alt_env_lock.o)
 .debug_loc     0x0000cb07       0x57 ../simple_socket_bsp/\libucosii_bsp.a(alt_malloc_lock.o)
 .debug_loc     0x0000cb5e      0x5e2 ../simple_socket_bsp/\libucosii_bsp.a(os_core.o)
 .debug_loc     0x0000d140       0x2b ../simple_socket_bsp/\libucosii_bsp.a(os_dbg.o)
 .debug_loc     0x0000d16b      0x232 ../simple_socket_bsp/\libucosii_bsp.a(os_flag.o)
 .debug_loc     0x0000d39d      0x12d ../simple_socket_bsp/\libucosii_bsp.a(os_mem.o)
 .debug_loc     0x0000d4ca      0x1da ../simple_socket_bsp/\libucosii_bsp.a(os_q.o)
 .debug_loc     0x0000d6a4      0x158 ../simple_socket_bsp/\libucosii_bsp.a(os_sem.o)
 .debug_loc     0x0000d7fc      0x207 ../simple_socket_bsp/\libucosii_bsp.a(os_task.o)
 .debug_loc     0x0000da03       0xd7 ../simple_socket_bsp/\libucosii_bsp.a(os_time.o)
 .debug_loc     0x0000dada       0x81 ../simple_socket_bsp/\libucosii_bsp.a(alt_sys_init.o)
 .debug_loc     0x0000db5b      0x12e ../simple_socket_bsp/\libucosii_bsp.a(altera_avalon_cfi_flash.o)
 .debug_loc     0x0000dc89      0x306 ../simple_socket_bsp/\libucosii_bsp.a(altera_avalon_cfi_flash_table.o)
 .debug_loc     0x0000df8f      0x1af ../simple_socket_bsp/\libucosii_bsp.a(altera_avalon_epcs_flash_controller.o)
 .debug_loc     0x0000e13e       0xac ../simple_socket_bsp/\libucosii_bsp.a(altera_avalon_jtag_uart_fd.o)
 .debug_loc     0x0000e1ea       0xac ../simple_socket_bsp/\libucosii_bsp.a(altera_avalon_jtag_uart_init.o)
 .debug_loc     0x0000e296       0x2b ../simple_socket_bsp/\libucosii_bsp.a(altera_avalon_jtag_uart_ioctl.o)
 .debug_loc     0x0000e2c1       0x2c ../simple_socket_bsp/\libucosii_bsp.a(altera_avalon_jtag_uart_read.o)
 .debug_loc     0x0000e2ed       0x2c ../simple_socket_bsp/\libucosii_bsp.a(altera_avalon_jtag_uart_write.o)
 .debug_loc     0x0000e319      0x184 ../simple_socket_bsp/\libucosii_bsp.a(altera_avalon_lcd_16207.o)
 .debug_loc     0x0000e49d       0x2b ../simple_socket_bsp/\libucosii_bsp.a(altera_avalon_lcd_16207_fd.o)
 .debug_loc     0x0000e4c8       0x56 ../simple_socket_bsp/\libucosii_bsp.a(altera_avalon_timer_sc.o)
 .debug_loc     0x0000e51e       0x81 ../simple_socket_bsp/\libucosii_bsp.a(altera_avalon_uart_fd.o)
 .debug_loc     0x0000e59f       0xd8 ../simple_socket_bsp/\libucosii_bsp.a(altera_avalon_uart_init.o)
 .debug_loc     0x0000e677       0x57 ../simple_socket_bsp/\libucosii_bsp.a(altera_avalon_uart_read.o)
 .debug_loc     0x0000e6ce       0x57 ../simple_socket_bsp/\libucosii_bsp.a(altera_avalon_uart_write.o)
 .debug_loc     0x0000e725      0x204 ../simple_socket_bsp/\libucosii_bsp.a(epcs_commands.o)
 .debug_loc     0x0000e929       0x2b ../simple_socket_bsp/\libucosii_bsp.a(alt_iniche_close.o)
 .debug_loc     0x0000e954       0x2b ../simple_socket_bsp/\libucosii_bsp.a(alt_iniche_dev.o)
 .debug_loc     0x0000e97f       0x2b ../simple_socket_bsp/\libucosii_bsp.a(alt_iniche_read.o)
 .debug_loc     0x0000e9aa       0x2b ../simple_socket_bsp/\libucosii_bsp.a(alt_iniche_write.o)
 .debug_loc     0x0000e9d5      0x102 ../simple_socket_bsp/\libucosii_bsp.a(ipnet.o)
 .debug_loc     0x0000ead7       0xac ../simple_socket_bsp/\libucosii_bsp.a(ipstart.o)
 .debug_loc     0x0000eb83      0x159 ../simple_socket_bsp/\libucosii_bsp.a(igmp_cmn.o)
 .debug_loc     0x0000ecdc      0x1af ../simple_socket_bsp/\libucosii_bsp.a(bsdsock.o)
 .debug_loc     0x0000ee8b       0x56 ../simple_socket_bsp/\libucosii_bsp.a(cksum.o)
 .debug_loc     0x0000eee1      0x204 ../simple_socket_bsp/\libucosii_bsp.a(in_utils.o)
 .debug_loc     0x0000f0e5       0x81 ../simple_socket_bsp/\libucosii_bsp.a(netmain.o)
 .debug_loc     0x0000f166      0x183 ../simple_socket_bsp/\libucosii_bsp.a(parseip.o)
 .debug_loc     0x0000f2e9      0x12f ../simple_socket_bsp/\libucosii_bsp.a(tk_crnos.o)
 .debug_loc     0x0000f418      0x35c ../simple_socket_bsp/\libucosii_bsp.a(dhcpclnt.o)
 .debug_loc     0x0000f774       0x2b ../simple_socket_bsp/\libucosii_bsp.a(dhcputil.o)
 .debug_loc     0x0000f79f      0x102 ../simple_socket_bsp/\libucosii_bsp.a(pktalloc.o)
 .debug_loc     0x0000f8a1       0x81 ../simple_socket_bsp/\libucosii_bsp.a(q.o)
 .debug_loc     0x0000f922       0x56 ../simple_socket_bsp/\libucosii_bsp.a(udp_open.o)
 .debug_loc     0x0000f978      0x158 ../simple_socket_bsp/\libucosii_bsp.a(brdutils.o)
 .debug_loc     0x0000fad0       0xd8 ../simple_socket_bsp/\libucosii_bsp.a(osportco.o)
 .debug_loc     0x0000fba8      0x183 ../simple_socket_bsp/\libucosii_bsp.a(targnios.o)
 .debug_loc     0x0000fd2b      0x306 ../simple_socket_bsp/\libucosii_bsp.a(nptcp.o)
 .debug_loc     0x00010031       0x82 ../simple_socket_bsp/\libucosii_bsp.a(rawsock.o)
 .debug_loc     0x000100b3      0x332 ../simple_socket_bsp/\libucosii_bsp.a(sockcall.o)
 .debug_loc     0x000103e5      0x2b1 ../simple_socket_bsp/\libucosii_bsp.a(socket.o)
 .debug_loc     0x00010696      0x3dd ../simple_socket_bsp/\libucosii_bsp.a(socket2.o)
 .debug_loc     0x00010a73      0x184 ../simple_socket_bsp/\libucosii_bsp.a(soselect.o)
 .debug_loc     0x00010bf7      0x12e ../simple_socket_bsp/\libucosii_bsp.a(tcp_in.o)
 .debug_loc     0x00010d25       0x82 ../simple_socket_bsp/\libucosii_bsp.a(tcp_out.o)
 .debug_loc     0x00010da7      0x183 ../simple_socket_bsp/\libucosii_bsp.a(tcp_subr.o)
 .debug_loc     0x00010f2a       0x81 ../simple_socket_bsp/\libucosii_bsp.a(tcp_timr.o)
 .debug_loc     0x00010fab       0xac ../simple_socket_bsp/\libucosii_bsp.a(tcp_usr.o)
 .debug_loc     0x00011057       0x2b ../simple_socket_bsp/\libucosii_bsp.a(tcpport.o)
 .debug_loc     0x00011082      0x102 ../simple_socket_bsp/\libucosii_bsp.a(udpsock.o)
 .debug_loc     0x00011184       0x2b ../simple_socket_bsp/\libucosii_bsp.a(alt_alarm_start.o)
 .debug_loc     0x000111af       0x2b ../simple_socket_bsp/\libucosii_bsp.a(alt_busy_sleep.o)
 .debug_loc     0x000111da       0x56 ../simple_socket_bsp/\libucosii_bsp.a(alt_close.o)
 .debug_loc     0x00011230       0x2b ../simple_socket_bsp/\libucosii_bsp.a(alt_dcache_flush.o)
 .debug_loc     0x0001125b       0x2b ../simple_socket_bsp/\libucosii_bsp.a(alt_dev.o)
 .debug_loc     0x00011286       0x56 ../simple_socket_bsp/\libucosii_bsp.a(alt_dev_llist_insert.o)
 .debug_loc     0x000112dc       0x2b ../simple_socket_bsp/\libucosii_bsp.a(alt_do_ctors.o)
 .debug_loc     0x00011307       0x2b ../simple_socket_bsp/\libucosii_bsp.a(alt_do_dtors.o)
 .debug_loc     0x00011332       0x2b ../simple_socket_bsp/\libucosii_bsp.a(alt_find_dev.o)
 .debug_loc     0x0001135d       0xac ../simple_socket_bsp/\libucosii_bsp.a(alt_iic.o)
 .debug_loc     0x00011409       0x2b ../simple_socket_bsp/\libucosii_bsp.a(alt_iic_isr_register.o)
 .debug_loc     0x00011434       0x56 ../simple_socket_bsp/\libucosii_bsp.a(alt_io_redirect.o)
 .debug_loc     0x0001148a       0x2b ../simple_socket_bsp/\libucosii_bsp.a(alt_irq_handler.o)
 .debug_loc     0x000114b5       0x81 ../simple_socket_bsp/\libucosii_bsp.a(alt_open.o)
 .debug_loc     0x00011536       0x56 ../simple_socket_bsp/\libucosii_bsp.a(alt_read.o)
 .debug_loc     0x0001158c       0x2b ../simple_socket_bsp/\libucosii_bsp.a(alt_release_fd.o)
 .debug_loc     0x000115b7       0x2b ../simple_socket_bsp/\libucosii_bsp.a(alt_remap_cached.o)
 .debug_loc     0x000115e2       0x2b ../simple_socket_bsp/\libucosii_bsp.a(alt_remap_uncached.o)
 .debug_loc     0x0001160d       0x56 ../simple_socket_bsp/\libucosii_bsp.a(alt_tick.o)
 .debug_loc     0x00011663       0x56 ../simple_socket_bsp/\libucosii_bsp.a(alt_write.o)
 .debug_loc     0x000116b9       0x2b ../simple_socket_bsp/\libucosii_bsp.a(altera_nios2_qsys_irq.o)
 .debug_loc     0x000116e4      0x1ae ../simple_socket_bsp/\libucosii_bsp.a(os_cpu_c.o)
 .debug_loc     0x00011892       0xac ../simple_socket_bsp/\libucosii_bsp.a(altera_avalon_cfi_flash_amd.o)
 .debug_loc     0x0001193e       0xac ../simple_socket_bsp/\libucosii_bsp.a(altera_avalon_cfi_flash_intel.o)
 .debug_loc     0x000119ea       0x2b ../simple_socket_bsp/\libucosii_bsp.a(altera_avalon_spi.o)
 .debug_loc     0x00011a15      0x12d ../simple_socket_bsp/\libucosii_bsp.a(allports.o)
 .debug_loc     0x00011b42       0xac ../simple_socket_bsp/\libucosii_bsp.a(timeouts.o)
 .debug_loc     0x00011bee       0x56 ../simple_socket_bsp/\libucosii_bsp.a(tk_misc.o)
 .debug_loc     0x00011c44       0x2b ../simple_socket_bsp/\libucosii_bsp.a(alt_iniche_fcntl.o)
 .debug_loc     0x00011c6f      0x204 ../simple_socket_bsp/\libucosii_bsp.a(et_arp.o)
 .debug_loc     0x00011e73       0xac ../simple_socket_bsp/\libucosii_bsp.a(iface.o)
 .debug_loc     0x00011f1f      0x207 ../simple_socket_bsp/\libucosii_bsp.a(ip.o)
 .debug_loc     0x00012126      0x2b2 ../simple_socket_bsp/\libucosii_bsp.a(ip_reasm.o)
 .debug_loc     0x000123d8       0x81 ../simple_socket_bsp/\libucosii_bsp.a(ipdemux.o)
 .debug_loc     0x00012459       0x81 ../simple_socket_bsp/\libucosii_bsp.a(ipmc.o)
 .debug_loc     0x000124da       0x81 ../simple_socket_bsp/\libucosii_bsp.a(ipport.o)
 .debug_loc     0x0001255b      0x102 ../simple_socket_bsp/\libucosii_bsp.a(ipraw.o)
 .debug_loc     0x0001265d       0x81 ../simple_socket_bsp/\libucosii_bsp.a(iproute.o)
 .debug_loc     0x000126de      0x12f ../simple_socket_bsp/\libucosii_bsp.a(udp.o)
 .debug_loc     0x0001280d       0x2b ../simple_socket_bsp/\libucosii_bsp.a(igmp.o)
 .debug_loc     0x00012838       0xd7 ../simple_socket_bsp/\libucosii_bsp.a(igmp2.o)
 .debug_loc     0x0001290f       0xac ../simple_socket_bsp/\libucosii_bsp.a(ipopt.o)
 .debug_loc     0x000129bb       0x57 ../simple_socket_bsp/\libucosii_bsp.a(u_mctest.o)
 .debug_loc     0x00012a12       0x56 ../simple_socket_bsp/\libucosii_bsp.a(dhcsetup.o)
 .debug_loc     0x00012a68      0x183 ../simple_socket_bsp/\libucosii_bsp.a(memdev.o)
 .debug_loc     0x00012beb       0x2b ../simple_socket_bsp/\libucosii_bsp.a(tcpcksum.o)
 .debug_loc     0x00012c16      0x158 ../simple_socket_bsp/\libucosii_bsp.a(in_pcb.o)
 .debug_loc     0x00012d6e      0x4b4 ../simple_socket_bsp/\libucosii_bsp.a(vfsfiles.o)
 .debug_loc     0x00013222       0x2b ../simple_socket_bsp/\libucosii_bsp.a(vfsport.o)
 .debug_loc     0x0001324d       0x56 ../simple_socket_bsp/\libucosii_bsp.a(alt_fcntl.o)
 .debug_loc     0x000132a3       0x2b ../simple_socket_bsp/\libucosii_bsp.a(alt_find_file.o)
 .debug_loc     0x000132ce       0x2b ../simple_socket_bsp/\libucosii_bsp.a(alt_get_fd.o)
 .debug_loc     0x000132f9       0xad ../simple_socket_bsp/\libucosii_bsp.a(icmp.o)
 .debug_loc     0x000133a6       0x1e j:/altera/13.0sp1/nios2eds/bin/gnu/h-i686-mingw32/bin/../lib/gcc/nios2-elf/4.1.2/../../../../nios2-elf/lib\libc.a(lib_a-atexit.o)
 .debug_loc     0x000133c4       0x39 j:/altera/13.0sp1/nios2eds/bin/gnu/h-i686-mingw32/bin/../lib/gcc/nios2-elf/4.1.2/../../../../nios2-elf/lib\libc.a(lib_a-atoi.o)
 .debug_loc     0x000133fd       0x3c j:/altera/13.0sp1/nios2eds/bin/gnu/h-i686-mingw32/bin/../lib/gcc/nios2-elf/4.1.2/../../../../nios2-elf/lib\libc.a(lib_a-calloc.o)
 .debug_loc     0x00013439       0x3c j:/altera/13.0sp1/nios2eds/bin/gnu/h-i686-mingw32/bin/../lib/gcc/nios2-elf/4.1.2/../../../../nios2-elf/lib\libc.a(lib_a-malloc.o)
 .debug_loc     0x00013475      0x114 j:/altera/13.0sp1/nios2eds/bin/gnu/h-i686-mingw32/bin/../lib/gcc/nios2-elf/4.1.2/../../../../nios2-elf/lib\libc.a(lib_a-memcmp.o)
 .debug_loc     0x00013589       0xc0 j:/altera/13.0sp1/nios2eds/bin/gnu/h-i686-mingw32/bin/../lib/gcc/nios2-elf/4.1.2/../../../../nios2-elf/lib\libc.a(lib_a-sprintf.o)
 .debug_loc     0x00013649       0x8b j:/altera/13.0sp1/nios2eds/bin/gnu/h-i686-mingw32/bin/../lib/gcc/nios2-elf/4.1.2/../../../../nios2-elf/lib\libc.a(lib_a-strcpy.o)
 .debug_loc     0x000136d4       0x78 j:/altera/13.0sp1/nios2eds/bin/gnu/h-i686-mingw32/bin/../lib/gcc/nios2-elf/4.1.2/../../../../nios2-elf/lib\libc.a(lib_a-strncmp.o)
 .debug_loc     0x0001374c       0xeb j:/altera/13.0sp1/nios2eds/bin/gnu/h-i686-mingw32/bin/../lib/gcc/nios2-elf/4.1.2/../../../../nios2-elf/lib\libc.a(lib_a-strncpy.o)
 .debug_loc     0x00013837      0x346 j:/altera/13.0sp1/nios2eds/bin/gnu/h-i686-mingw32/bin/../lib/gcc/nios2-elf/4.1.2/../../../../nios2-elf/lib\libc.a(lib_a-strtol.o)
 .debug_loc     0x00013b7d       0x8b j:/altera/13.0sp1/nios2eds/bin/gnu/h-i686-mingw32/bin/../lib/gcc/nios2-elf/4.1.2/../../../../nios2-elf/lib\libc.a(lib_a-vprintf.o)
 .debug_loc     0x00013c08       0xd1 j:/altera/13.0sp1/nios2eds/bin/gnu/h-i686-mingw32/bin/../lib/gcc/nios2-elf/4.1.2/../../../../nios2-elf/lib\libc.a(lib_a-vsprintf.o)
 .debug_loc     0x00013cd9      0x120 j:/altera/13.0sp1/nios2eds/bin/gnu/h-i686-mingw32/bin/../lib/gcc/nios2-elf/4.1.2/../../../../nios2-elf/lib\libc.a(lib_a-__atexit.o)

.debug_macinfo
 *(.debug_macinfo)

.debug_weaknames
 *(.debug_weaknames)

.debug_funcnames
 *(.debug_funcnames)

.debug_typenames
 *(.debug_typenames)

.debug_varnames
 *(.debug_varnames)

.debug_alt_sim_info
                0x00000000       0x50
 *(.debug_alt_sim_info)
 .debug_alt_sim_info
                0x00000000       0x20 ../simple_socket_bsp//obj/HAL/src/crt0.o
 .debug_alt_sim_info
                0x00000020       0x30 ../simple_socket_bsp/\libucosii_bsp.a(alt_busy_sleep.o)
                0x01000000                __alt_data_end = 0x1000000
                0x01000000                PROVIDE (__alt_stack_pointer, __alt_data_end)
                0x0085803c                PROVIDE (__alt_stack_limit, __alt_stack_base)
                0x0085803c                PROVIDE (__alt_heap_start, end)
                0x01000000                PROVIDE (__alt_heap_limit, 0x1000000)
OUTPUT(simple_socket.elf elf32-littlenios2)

.debug_ranges   0x00000000      0x9a0
 .debug_ranges  0x00000000       0x30 j:/altera/13.0sp1/nios2eds/bin/gnu/h-i686-mingw32/bin/../lib/gcc/nios2-elf/4.1.2\libgcc.a(_addsub_df.o)
 .debug_ranges  0x00000030       0x88 j:/altera/13.0sp1/nios2eds/bin/gnu/h-i686-mingw32/bin/../lib/gcc/nios2-elf/4.1.2\libgcc.a(_mul_df.o)
 .debug_ranges  0x000000b8       0x18 j:/altera/13.0sp1/nios2eds/bin/gnu/h-i686-mingw32/bin/../lib/gcc/nios2-elf/4.1.2\libgcc.a(_usi_to_df.o)
 .debug_ranges  0x000000d0       0x68 j:/altera/13.0sp1/nios2eds/bin/gnu/h-i686-mingw32/bin/../lib/gcc/nios2-elf/4.1.2\libgcc.a(_muldi3.o)
 .debug_ranges  0x00000138       0x28 j:/altera/13.0sp1/nios2eds/bin/gnu/h-i686-mingw32/bin/../lib/gcc/nios2-elf/4.1.2\libgcc.a(_clzsi2.o)
 .debug_ranges  0x00000160       0x28 j:/altera/13.0sp1/nios2eds/bin/gnu/h-i686-mingw32/bin/../lib/gcc/nios2-elf/4.1.2\libgcc.a(_pack_df.o)
 .debug_ranges  0x00000188      0x168 j:/altera/13.0sp1/nios2eds/bin/gnu/h-i686-mingw32/bin/../lib/gcc/nios2-elf/4.1.2/../../../../nios2-elf/lib\libc.a(lib_a-vfprintf.o)
 .debug_ranges  0x000002f0       0x18 j:/altera/13.0sp1/nios2eds/bin/gnu/h-i686-mingw32/bin/../lib/gcc/nios2-elf/4.1.2/../../../../nios2-elf/lib\libc.a(lib_a-__call_atexit.o)
 .debug_ranges  0x00000308       0x20 j:/altera/13.0sp1/nios2eds/bin/gnu/h-i686-mingw32/bin/../lib/gcc/nios2-elf/4.1.2/../../../../nios2-elf/lib\libc.a(lib_a-fflush.o)
 .debug_ranges  0x00000328       0x28 j:/altera/13.0sp1/nios2eds/bin/gnu/h-i686-mingw32/bin/../lib/gcc/nios2-elf/4.1.2/../../../../nios2-elf/lib\libc.a(lib_a-fvwrite.o)
 .debug_ranges  0x00000350       0xa0 j:/altera/13.0sp1/nios2eds/bin/gnu/h-i686-mingw32/bin/../lib/gcc/nios2-elf/4.1.2/../../../../nios2-elf/lib\libc.a(lib_a-fwalk.o)
 .debug_ranges  0x000003f0       0x70 j:/altera/13.0sp1/nios2eds/bin/gnu/h-i686-mingw32/bin/../lib/gcc/nios2-elf/4.1.2/../../../../nios2-elf/lib\libc.a(lib_a-mallocr.o)
 .debug_ranges  0x00000460      0x110 j:/altera/13.0sp1/nios2eds/bin/gnu/h-i686-mingw32/bin/../lib/gcc/nios2-elf/4.1.2/../../../../nios2-elf/lib\libc.a(lib_a-reallocr.o)
 .debug_ranges  0x00000570       0x38 j:/altera/13.0sp1/nios2eds/bin/gnu/h-i686-mingw32/bin/../lib/gcc/nios2-elf/4.1.2/../../../../nios2-elf/lib\libc.a(lib_a-callocr.o)
 .debug_ranges  0x000005a8      0x188 j:/altera/13.0sp1/nios2eds/bin/gnu/h-i686-mingw32/bin/../lib/gcc/nios2-elf/4.1.2\libgcc.a(_udivdi3.o)
 .debug_ranges  0x00000730      0x198 j:/altera/13.0sp1/nios2eds/bin/gnu/h-i686-mingw32/bin/../lib/gcc/nios2-elf/4.1.2\libgcc.a(_umoddi3.o)
 .debug_ranges  0x000008c8       0x50 j:/altera/13.0sp1/nios2eds/bin/gnu/h-i686-mingw32/bin/../lib/gcc/nios2-elf/4.1.2\libgcc.a(_div_df.o)
 .debug_ranges  0x00000918       0x18 ../simple_socket_bsp/\libucosii_bsp.a(altera_avalon_jtag_uart_init.o)
 .debug_ranges  0x00000930       0x18 ../simple_socket_bsp/\libucosii_bsp.a(altera_avalon_uart_init.o)
 .debug_ranges  0x00000948       0x28 ../simple_socket_bsp/\libucosii_bsp.a(alt_irq_entry.o)
 .debug_ranges  0x00000970       0x30 ../simple_socket_bsp/\libucosii_bsp.a(alt_exception_entry.o)
