
simple_socket.elf:     file format elf32-littlenios2
simple_socket.elf
architecture: nios2, flags 0x00000112:
EXEC_P, HAS_SYMS, D_PAGED
start address 0x008001bc

Program Header:
    LOAD off    0x00001020 vaddr 0x00800020 paddr 0x00800020 align 2**12
         filesz 0x0004d5f8 memsz 0x0005801c flags rwx
    LOAD off    0x0004f000 vaddr 0x01400000 paddr 0x01400000 align 2**12
         filesz 0x00000000 memsz 0x00000000 flags r-x

Sections:
Idx Name          Size      VMA       LMA       File off  Algn
  0 .entry        00000000  01400000  01400000  0004f000  2**5
                  CONTENTS, ALLOC, LOAD, READONLY, CODE
  1 .exceptions   0000019c  00800020  00800020  00001020  2**2
                  CONTENTS, ALLOC, LOAD, READONLY, CODE
  2 .text         00047090  008001bc  008001bc  000011bc  2**2
                  CONTENTS, ALLOC, LOAD, READONLY, CODE
  3 .rodata       00004290  0084724c  0084724c  0004824c  2**2
                  CONTENTS, ALLOC, LOAD, READONLY, DATA
  4 .rwdata       0000213c  0084b4dc  0084b4dc  0004c4dc  2**2
                  CONTENTS, ALLOC, LOAD, DATA, SMALL_DATA
  5 .bss          0000aa24  0084d618  0084d618  0004e618  2**2
                  ALLOC, SMALL_DATA
  6 .comment      00000026  00000000  00000000  0004f000  2**0
                  CONTENTS, READONLY
  7 .debug_aranges 00001b70  00000000  00000000  0004f028  2**3
                  CONTENTS, READONLY, DEBUGGING
  8 .debug_pubnames 000055ca  00000000  00000000  00050b98  2**0
                  CONTENTS, READONLY, DEBUGGING
  9 .debug_info   0007e489  00000000  00000000  00056162  2**0
                  CONTENTS, READONLY, DEBUGGING
 10 .debug_abbrev 000125ac  00000000  00000000  000d45eb  2**0
                  CONTENTS, READONLY, DEBUGGING
 11 .debug_line   000421bc  00000000  00000000  000e6b97  2**0
                  CONTENTS, READONLY, DEBUGGING
 12 .debug_frame  0000673c  00000000  00000000  00128d54  2**2
                  CONTENTS, READONLY, DEBUGGING
 13 .debug_str    00003622  00000000  00000000  0012f490  2**0
                  CONTENTS, READONLY, DEBUGGING
 14 .debug_loc    00013df9  00000000  00000000  00132ab2  2**0
                  CONTENTS, READONLY, DEBUGGING
 15 .debug_alt_sim_info 00000050  00000000  00000000  001468ac  2**2
                  CONTENTS, READONLY, DEBUGGING
 16 .debug_ranges 000009a0  00000000  00000000  00146900  2**3
                  CONTENTS, READONLY, DEBUGGING
 17 .thread_model 00000006  00000000  00000000  001519fe  2**0
                  CONTENTS, READONLY
 18 .cpu          00000005  00000000  00000000  00151a04  2**0
                  CONTENTS, READONLY
 19 .qsys         00000001  00000000  00000000  00151a09  2**0
                  CONTENTS, READONLY
 20 .simulation_enabled 00000001  00000000  00000000  00151a0a  2**0
                  CONTENTS, READONLY
 21 .sysid_hash   00000004  00000000  00000000  00151a0b  2**0
                  CONTENTS, READONLY
 22 .sysid_base   00000004  00000000  00000000  00151a0f  2**0
                  CONTENTS, READONLY
 23 .sysid_time   00000004  00000000  00000000  00151a13  2**0
                  CONTENTS, READONLY
 24 .stderr_dev   0000000b  00000000  00000000  00151a17  2**0
                  CONTENTS, READONLY
 25 .stdin_dev    0000000b  00000000  00000000  00151a22  2**0
                  CONTENTS, READONLY
 26 .stdout_dev   0000000b  00000000  00000000  00151a2d  2**0
                  CONTENTS, READONLY
 27 .sopc_system_name 00000008  00000000  00000000  00151a38  2**0
                  CONTENTS, READONLY
 28 .quartus_project_dir 00000041  00000000  00000000  00151a40  2**0
                  CONTENTS, READONLY
 29 .jdi          00004c3e  00000000  00000000  00151a81  2**0
                  CONTENTS, READONLY
 30 .sopcinfo     000a9a68  00000000  00000000  001566bf  2**0
                  CONTENTS, READONLY
SYMBOL TABLE:
01400000 l    d  .entry	00000000 .entry
00800020 l    d  .exceptions	00000000 .exceptions
008001bc l    d  .text	00000000 .text
0084724c l    d  .rodata	00000000 .rodata
0084b4dc l    d  .rwdata	00000000 .rwdata
0084d618 l    d  .bss	00000000 .bss
00000000 l    d  .comment	00000000 .comment
00000000 l    d  .debug_aranges	00000000 .debug_aranges
00000000 l    d  .debug_pubnames	00000000 .debug_pubnames
00000000 l    d  .debug_info	00000000 .debug_info
00000000 l    d  .debug_abbrev	00000000 .debug_abbrev
00000000 l    d  .debug_line	00000000 .debug_line
00000000 l    d  .debug_frame	00000000 .debug_frame
00000000 l    d  .debug_str	00000000 .debug_str
00000000 l    d  .debug_loc	00000000 .debug_loc
00000000 l    d  .debug_alt_sim_info	00000000 .debug_alt_sim_info
00000000 l    d  .debug_ranges	00000000 .debug_ranges
00800200 l       .text	00000000 alt_after_alt_main
00000000 l    df *ABS*	00000000 alt_irq_handler.c
00000000 l    df *ABS*	00000000 LCD.c
00000000 l    df *ABS*	00000000 SSS_DE2_115.c
00000000 l    df *ABS*	00000000 alt_error_handler.c
00000000 l    df *ABS*	00000000 dm9000a.c
00801a24 l     F .text	00000054 dm9000a_rxReady
00801a78 l     F .text	000003c4 dm9000a_isr
00000000 l    df *ABS*	00000000 iniche_init.c
00000000 l    df *ABS*	00000000 led.c
00000000 l    df *ABS*	00000000 network_utilities.c
00000000 l    df *ABS*	00000000 simple_socket_server.c
0084d62c l     O .bss	00000004 SSSCommand.4717
0084d834 l     O .bss	000005f0 conn.4838
00000000 l    df *ABS*	00000000 tse_my_system.c
00000000 l    df *ABS*	00000000 libgcc2.c
00000000 l    df *ABS*	00000000 dp-bit.c
00803e78 l     F .text	00000410 _fpadd_parts
00000000 l    df *ABS*	00000000 dp-bit.c
00000000 l    df *ABS*	00000000 dp-bit.c
00000000 l    df *ABS*	00000000 dp-bit.c
00000000 l    df *ABS*	00000000 dp-bit.c
00000000 l    df *ABS*	00000000 dp-bit.c
00000000 l    df *ABS*	00000000 libgcc2.c
00000000 l    df *ABS*	00000000 libgcc2.c
00000000 l    df *ABS*	00000000 dp-bit.c
00000000 l    df *ABS*	00000000 dp-bit.c
00000000 l    df *ABS*	00000000 dp-bit.c
00000000 l    df *ABS*	00000000 libgcc2.c
00000000 l    df *ABS*	00000000 ctype_.c
008487f9 l     O .rodata	00000180 _ctype_b
00000000 l    df *ABS*	00000000 exit.c
00000000 l    df *ABS*	00000000 fprintf.c
00000000 l    df *ABS*	00000000 fwrite.c
00000000 l    df *ABS*	00000000 getc.c
00000000 l    df *ABS*	00000000 impure.c
0084b4f4 l     O .rwdata	00000400 impure_data
00000000 l    df *ABS*	00000000 memcpy.c
00000000 l    df *ABS*	00000000 memmove.c
00000000 l    df *ABS*	00000000 memset.c
00000000 l    df *ABS*	00000000 perror.c
00000000 l    df *ABS*	00000000 printf.c
00000000 l    df *ABS*	00000000 putc.c
00000000 l    df *ABS*	00000000 putchar.c
00000000 l    df *ABS*	00000000 puts.c
00000000 l    df *ABS*	00000000 rget.c
00000000 l    df *ABS*	00000000 strchr.c
00000000 l    df *ABS*	00000000 strerror.c
00000000 l    df *ABS*	00000000 strlen.c
00000000 l    df *ABS*	00000000 u_strerr.c
00000000 l    df *ABS*	00000000 vfprintf.c
00806100 l     F .text	00000058 __sprint_r
0084919a l     O .rodata	00000010 blanks.3452
0084918a l     O .rodata	00000010 zeroes.3453
00000000 l    df *ABS*	00000000 wbuf.c
00000000 l    df *ABS*	00000000 wsetup.c
00000000 l    df *ABS*	00000000 __call_atexit.c
008082b0 l     F .text	00000004 register_fini
00000000 l    df *ABS*	00000000 dtoa.c
00808464 l     F .text	00000218 quorem
00000000 l    df *ABS*	00000000 fflush.c
00000000 l    df *ABS*	00000000 findfp.c
00809e60 l     F .text	00000058 std
00809f6c l     F .text	00000008 __fp_lock
00809f74 l     F .text	00000008 __fp_unlock
00000000 l    df *ABS*	00000000 fputc.c
00000000 l    df *ABS*	00000000 fputs.c
00000000 l    df *ABS*	00000000 mallocr.c
00000000 l    df *ABS*	00000000 fvwrite.c
00000000 l    df *ABS*	00000000 fwalk.c
00000000 l    df *ABS*	00000000 locale.c
0084d4e0 l     O .rwdata	00000004 charset
008491cc l     O .rodata	00000030 lconv
00000000 l    df *ABS*	00000000 makebuf.c
00000000 l    df *ABS*	00000000 mallocr.c
00000000 l    df *ABS*	00000000 memchr.c
00000000 l    df *ABS*	00000000 mprec.c
00849314 l     O .rodata	0000000c p05.2458
00000000 l    df *ABS*	00000000 mallocr.c
00000000 l    df *ABS*	00000000 refill.c
0080cef0 l     F .text	0000001c lflush
00000000 l    df *ABS*	00000000 s_isinfd.c
00000000 l    df *ABS*	00000000 s_isnand.c
00000000 l    df *ABS*	00000000 sbrkr.c
00000000 l    df *ABS*	00000000 stdio.c
00000000 l    df *ABS*	00000000 strcmp.c
00000000 l    df *ABS*	00000000 writer.c
00000000 l    df *ABS*	00000000 mallocr.c
00000000 l    df *ABS*	00000000 closer.c
00000000 l    df *ABS*	00000000 fclose.c
00000000 l    df *ABS*	00000000 fstatr.c
00000000 l    df *ABS*	00000000 int_errno.c
00000000 l    df *ABS*	00000000 isattyr.c
00000000 l    df *ABS*	00000000 lseekr.c
00000000 l    df *ABS*	00000000 readr.c
00000000 l    df *ABS*	00000000 libgcc2.c
00000000 l    df *ABS*	00000000 libgcc2.c
00000000 l    df *ABS*	00000000 dp-bit.c
00000000 l    df *ABS*	00000000 dp-bit.c
00000000 l    df *ABS*	00000000 dp-bit.c
00000000 l    df *ABS*	00000000 dp-bit.c
00000000 l    df *ABS*	00000000 dp-bit.c
00000000 l    df *ABS*	00000000 dp-bit.c
00000000 l    df *ABS*	00000000 lib2-divmod.c
0080e784 l     F .text	0000007c udivmodsi4
00000000 l    df *ABS*	00000000 alt_exit.c
0080e8d0 l     F .text	00000040 alt_sim_halt
00000000 l    df *ABS*	00000000 alt_flash_dev.c
00000000 l    df *ABS*	00000000 alt_fstat.c
0080eae0 l     F .text	00000060 alt_get_errno
00000000 l    df *ABS*	00000000 alt_irq_register.c
00000000 l    df *ABS*	00000000 alt_irq_vars.c
00000000 l    df *ABS*	00000000 alt_isatty.c
0080edc0 l     F .text	00000060 alt_get_errno
00000000 l    df *ABS*	00000000 alt_lseek.c
0080ef10 l     F .text	00000060 alt_get_errno
00000000 l    df *ABS*	00000000 alt_main.c
00000000 l    df *ABS*	00000000 alt_sbrk.c
0084d4f8 l     O .rwdata	00000004 heap_end
00000000 l    df *ABS*	00000000 alt_usleep.c
00000000 l    df *ABS*	00000000 alt_env_lock.c
0084d4fc l     O .rwdata	00000004 lockid
0084d668 l     O .bss	00000004 locks
00000000 l    df *ABS*	00000000 alt_malloc_lock.c
0084d500 l     O .rwdata	00000004 lockid
0084d670 l     O .bss	00000004 locks
00000000 l    df *ABS*	00000000 os_core.c
00810be4 l     F .text	00000044 OS_InitMisc
00810c28 l     F .text	0000006c OS_InitRdyList
00810d8c l     F .text	000000e0 OS_InitTCBList
00810b08 l     F .text	000000dc OS_InitEventList
00810c94 l     F .text	0000007c OS_InitTaskIdle
00810d10 l     F .text	0000007c OS_InitTaskStat
00811000 l     F .text	00000070 OS_SchedNew
00000000 l    df *ABS*	00000000 os_dbg.c
00000000 l    df *ABS*	00000000 os_flag.c
00812f20 l     F .text	00000110 OS_FlagTaskRdy
00812c78 l     F .text	000001c4 OS_FlagBlock
00000000 l    df *ABS*	00000000 os_mem.c
00000000 l    df *ABS*	00000000 os_q.c
00000000 l    df *ABS*	00000000 os_sem.c
00000000 l    df *ABS*	00000000 os_task.c
00000000 l    df *ABS*	00000000 os_time.c
00000000 l    df *ABS*	00000000 alt_sys_init.c
0084bd08 l     O .rwdata	000000d8 cfi_flash_0
0084bde0 l     O .rwdata	000000c8 epcs_controller
0084bea8 l     O .rwdata	0000106c jtag_uart_0
0084cf14 l     O .rwdata	00000124 lcd_16207_0
0084d038 l     O .rwdata	000000d0 uart_0
00817970 l     F .text	00000038 alt_dev_reg
00000000 l    df *ABS*	00000000 altera_avalon_cfi_flash.c
00817a44 l     F .text	00000038 alt_flash_device_register
00000000 l    df *ABS*	00000000 altera_avalon_cfi_flash_table.c
00818834 l     F .text	0000007c alt_read_16bit_query_entry
00000000 l    df *ABS*	00000000 altera_avalon_epcs_flash_controller.c
008197a4 l     F .text	00000288 alt_epcs_flash_query
0081976c l     F .text	00000038 alt_flash_device_register
00819a2c l     F .text	00000108 alt_epcs_flash_memcmp
00819eb4 l     F .text	00000094 alt_epcs_test_address
00000000 l    df *ABS*	00000000 altera_avalon_jtag_uart_fd.c
00000000 l    df *ABS*	00000000 altera_avalon_jtag_uart_init.c
0081a37c l     F .text	000002c4 altera_avalon_jtag_uart_irq
0081a640 l     F .text	00000114 altera_avalon_jtag_uart_timeout
00000000 l    df *ABS*	00000000 altera_avalon_jtag_uart_ioctl.c
00000000 l    df *ABS*	00000000 altera_avalon_jtag_uart_read.c
00000000 l    df *ABS*	00000000 altera_avalon_jtag_uart_write.c
00000000 l    df *ABS*	00000000 altera_avalon_lcd_16207.c
0084d578 l     O .rwdata	00000004 colstart
0081ae58 l     F .text	000000b8 lcd_write_command
0081af10 l     F .text	000000d4 lcd_write_data
0081afe4 l     F .text	000000c4 lcd_clear_screen
0081b0a8 l     F .text	000001ec lcd_repaint_screen
0081b294 l     F .text	000000c8 lcd_scroll_up
0081b35c l     F .text	000002d0 lcd_handle_escape
0081bb64 l     F .text	000000cc alt_lcd_16207_timeout
00000000 l    df *ABS*	00000000 altera_avalon_lcd_16207_fd.c
00000000 l    df *ABS*	00000000 altera_avalon_timer_sc.c
0081bdec l     F .text	00000070 alt_avalon_timer_sc_irq
00000000 l    df *ABS*	00000000 altera_avalon_uart_fd.c
00000000 l    df *ABS*	00000000 altera_avalon_uart_init.c
0081c168 l     F .text	0000009c altera_avalon_uart_irq
0081c204 l     F .text	0000013c altera_avalon_uart_rxirq
0081c340 l     F .text	000001c0 altera_avalon_uart_txirq
00000000 l    df *ABS*	00000000 altera_avalon_uart_read.c
0081c810 l     F .text	00000060 alt_get_errno
00000000 l    df *ABS*	00000000 altera_avalon_uart_write.c
0081cab8 l     F .text	00000060 alt_get_errno
00000000 l    df *ABS*	00000000 epcs_commands.c
0081cc70 l     F .text	00000038 epcs_await_wip_released
0081cca8 l     F .text	00000038 epcs_test_wip
00000000 l    df *ABS*	00000000 alt_iniche_close.c
00000000 l    df *ABS*	00000000 alt_iniche_dev.c
00000000 l    df *ABS*	00000000 alt_iniche_read.c
00000000 l    df *ABS*	00000000 alt_iniche_write.c
00000000 l    df *ABS*	00000000 ipnet.c
00000000 l    df *ABS*	00000000 ipstart.c
0084d6d8 l     O .bss	00000004 nclosers
0084de4c l     O .bss	0000003c closers
00000000 l    df *ABS*	00000000 igmp_cmn.c
00000000 l    df *ABS*	00000000 bsdsock.c
00000000 l    df *ABS*	00000000 cksum.c
0084d588 l     O .rwdata	00000004 cksum_select
00000000 l    df *ABS*	00000000 in_utils.c
0084de88 l     O .bss	00000018 tistring
00000000 l    df *ABS*	00000000 netmain.c
00000000 l    df *ABS*	00000000 parseip.c
0084dea0 l     O .bss	0000001e nearBuf.4178
00000000 l    df *ABS*	00000000 tk_crnos.c
00000000 l    df *ABS*	00000000 dhcpclnt.c
008241cc l     F .text	000000cc dh_getlong
00000000 l    df *ABS*	00000000 dhcputil.c
00000000 l    df *ABS*	00000000 pktalloc.c
00000000 l    df *ABS*	00000000 q.c
00000000 l    df *ABS*	00000000 udp_open.c
0082624c l       .text	00000000 done
008260dc l       .text	00000000 asm1
00826208 l       .text	00000000 loop0
00826104 l       .text	00000000 loop
00826224 l       .text	00000000 fold
00000000 l    df *ABS*	00000000 brdutils.c
0084d738 l     O .bss	00000004 kbd_init.3742
0084d744 l     O .bss	00000004 cpu_statusreg
00000000 l    df *ABS*	00000000 osportco.c
00000000 l    df *ABS*	00000000 targnios.c
00000000 l    df *ABS*	00000000 nptcp.c
0084d778 l     O .bss	00000004 in_tcptick
00000000 l    df *ABS*	00000000 rawsock.c
00000000 l    df *ABS*	00000000 sockcall.c
0082a9d0 l     F .text	00000098 sockargs
00829c0c l     F .text	000001fc t_getname
00000000 l    df *ABS*	00000000 socket.c
00000000 l    df *ABS*	00000000 socket2.c
00000000 l    df *ABS*	00000000 soselect.c
00000000 l    df *ABS*	00000000 tcp_in.c
00000000 l    df *ABS*	00000000 tcp_out.c
00832db4 l     F .text	000000e8 bld_options
00000000 l    df *ABS*	00000000 tcp_subr.c
00000000 l    df *ABS*	00000000 tcp_timr.c
00000000 l    df *ABS*	00000000 tcp_usr.c
00000000 l    df *ABS*	00000000 tcpport.c
00000000 l    df *ABS*	00000000 udpsock.c
00000000 l    df *ABS*	00000000 alt_alarm_start.c
00000000 l    df *ABS*	00000000 alt_busy_sleep.c
00000000 l    df *ABS*	00000000 alt_close.c
00835b10 l     F .text	00000060 alt_get_errno
00000000 l    df *ABS*	00000000 alt_dcache_flush.c
00000000 l    df *ABS*	00000000 alt_dev.c
00835be8 l     F .text	0000002c alt_dev_null_write
00000000 l    df *ABS*	00000000 alt_dev_llist_insert.c
00835cc8 l     F .text	00000060 alt_get_errno
00000000 l    df *ABS*	00000000 alt_do_ctors.c
00000000 l    df *ABS*	00000000 alt_do_dtors.c
00000000 l    df *ABS*	00000000 alt_errno.c
00000000 l    df *ABS*	00000000 alt_find_dev.c
00000000 l    df *ABS*	00000000 alt_iic.c
00000000 l    df *ABS*	00000000 alt_iic_isr_register.c
00000000 l    df *ABS*	00000000 alt_io_redirect.c
00836150 l     F .text	000000c4 alt_open_fd
00000000 l    df *ABS*	00000000 alt_open.c
0083628c l     F .text	000000dc alt_file_locked
008364f0 l     F .text	00000060 alt_get_errno
00000000 l    df *ABS*	00000000 alt_read.c
00836670 l     F .text	00000060 alt_get_errno
00000000 l    df *ABS*	00000000 alt_release_fd.c
00000000 l    df *ABS*	00000000 alt_remap_cached.c
00000000 l    df *ABS*	00000000 alt_remap_uncached.c
00000000 l    df *ABS*	00000000 alt_tick.c
00000000 l    df *ABS*	00000000 alt_write.c
00836a70 l     F .text	00000060 alt_get_errno
00000000 l    df *ABS*	00000000 altera_nios2_qsys_irq.c
00000040 l       *ABS*	00000000 OSCtxSw_SWITCH_PC
00000000 l    df *ABS*	00000000 os_cpu_c.c
00000014 l       *ABS*	00000000 OSTCBNext_OFFSET
00000032 l       *ABS*	00000000 OSTCBPrio_OFFSET
00000000 l       *ABS*	00000000 OSTCBStkPtr_OFFSET
00000000 l    df *ABS*	00000000 altera_avalon_cfi_flash_amd.c
00837388 l     F .text	000000bc alt_write_word_amd
00837264 l     F .text	00000124 alt_wait_for_command_to_complete_amd
00000000 l    df *ABS*	00000000 altera_avalon_cfi_flash_intel.c
0083763c l     F .text	0000018c alt_unlock_block_intel
008377c8 l     F .text	000000dc alt_write_word_intel
00000000 l    df *ABS*	00000000 altera_avalon_spi.c
00000000 l    df *ABS*	00000000 allports.c
0084d7ac l     O .bss	00000004 inside_pktdemux
00000000 l    df *ABS*	00000000 timeouts.c
00838088 l     F .text	00000198 check_interval_timers
0084d7b8 l     O .bss	00000004 numtimers
00000000 l    df *ABS*	00000000 tk_misc.c
00000000 l    df *ABS*	00000000 alt_iniche_fcntl.c
00000000 l    df *ABS*	00000000 et_arp.c
0084d7bc l     O .bss	00000004 arp_timer
0084d7d4 l     O .bss	00000004 cachetime
00000000 l    df *ABS*	00000000 iface.c
00000000 l    df *ABS*	00000000 ip.c
0084d604 l     O .rwdata	00000004 uid
00000000 l    df *ABS*	00000000 ip_reasm.c
00000000 l    df *ABS*	00000000 ipdemux.c
00000000 l    df *ABS*	00000000 ipmc.c
00000000 l    df *ABS*	00000000 ipport.c
00000000 l    df *ABS*	00000000 ipraw.c
00000000 l    df *ABS*	00000000 iproute.c
00000000 l    df *ABS*	00000000 udp.c
0084d804 l     O .bss	00000002 usocket
00000000 l    df *ABS*	00000000 igmp.c
00000000 l    df *ABS*	00000000 igmp2.c
00000000 l    df *ABS*	00000000 ipopt.c
00000000 l    df *ABS*	00000000 u_mctest.c
0084d60c l     O .rwdata	00000004 iCounter.4500
00000000 l    df *ABS*	00000000 dhcsetup.c
00000000 l    df *ABS*	00000000 memdev.c
00000000 l    df *ABS*	00000000 tcpcksum.c
00000000 l    df *ABS*	00000000 in_pcb.c
00000000 l    df *ABS*	00000000 vfsfiles.c
00000000 l    df *ABS*	00000000 vfsport.c
00000000 l    df *ABS*	00000000 alt_fcntl.c
00845494 l     F .text	00000060 alt_get_errno
00000000 l    df *ABS*	00000000 alt_find_file.c
00000000 l    df *ABS*	00000000 alt_get_fd.c
00000000 l    df *ABS*	00000000 icmp.c
0084d4b8 l     O .rwdata	00000018 dsts
00000000 l    df *ABS*	00000000 atexit.c
00000000 l    df *ABS*	00000000 atoi.c
00000000 l    df *ABS*	00000000 calloc.c
00000000 l    df *ABS*	00000000 malloc.c
00000000 l    df *ABS*	00000000 memcmp.c
00000000 l    df *ABS*	00000000 sprintf.c
00000000 l    df *ABS*	00000000 strcpy.c
00000000 l    df *ABS*	00000000 strncmp.c
00000000 l    df *ABS*	00000000 strncpy.c
00000000 l    df *ABS*	00000000 strtol.c
00000000 l    df *ABS*	00000000 vprintf.c
00000000 l    df *ABS*	00000000 vsprintf.c
00000000 l    df *ABS*	00000000 __atexit.c
008057f8 g     F .text	0000001c putchar
008579a8 g     O .bss	00000014 soq
00800364 g     F .text	0000003c LCD_Line1
0080bb50 g     F .text	00000094 _mprec_log10
0084d54e g     O .rwdata	00000002 OSTaskNameSize
00819db4 g     F .text	00000090 alt_epcs_flash_get_info
0080bc3c g     F .text	00000088 __any_on
0080d528 g     F .text	00000070 _isatty_r
008492ec g     O .rodata	00000028 __mprec_tinytens
0083a0dc g     F .text	00000780 ip_write_internal
0080ef70 g     F .text	000000c8 alt_main
00846bcc g     F .text	0000008c strcpy
0080581c g     F .text	000000a0 _puts_r
008259a0 g     F .text	000000ac pk_free
008182f4 g     F .text	00000048 alt_read_query_entry_32bit
00857b54 g     O .bss	00000100 alt_irq
0084d358 g     O .rwdata	00000009 rtp_priority
0080d598 g     F .text	00000078 _lseek_r
0084668c g     F .text	00000334 icmp_timex
00827370 g     F .text	00000044 m_freem
00844df8 g     F .text	00000048 vgetc
008263c8 g     F .text	0000001c clock_c
0084d790 g     O .bss	00000004 tcp_optionbuf
00839ba4 g     F .text	00000084 if_getbynum
00813814 g     F .text	000000d0 OS_MemInit
0084d730 g     O .bss	00000004 dsc_rlyerrs
0084d720 g     O .bss	00000004 dsc_releases
00817a7c g     F .text	000002c0 alt_flash_cfi_write
00821d74 g     F .text	00000074 TK_OSTaskQuery
008260bc g       .text	00000000 asm_cksum
0081782c g     F .text	00000064 OSTimeSet
00844cd8 g     F .text	00000120 vgetc_locked
00826c4c g     F .text	00000020 post_task_setup
0083db10 g     F .text	00000384 ipr_stats
00834720 g     F .text	00000134 tcp_attach
0084d59c g     O .rwdata	00000004 reqlist_len
0082881c g     F .text	000000c0 tcp_tick
008207b0 g     F .text	00000074 print_ipad
00821c70 g     F .text	00000104 tcp_wakeup
0080e46c g     F .text	00000088 __eqdf2
0084d618 g     O .bss	00000004 last_flash_sector_offset
0084d6dc g     O .bss	00000004 igmp_timers_are_running
0080297c g     F .text	000000cc led_bit_toggle
00831608 g     F .text	0000012c tcp_pulloutofband
0080f760 g     F .text	000006b4 OSEventPendMulti
0085803c g       *ABS*	00000000 __alt_heap_start
00836ed0 g     F .text	00000020 OSTaskCreateHook
0082518c g     F .text	00000074 dhc_ifacedone
0083dee8 g     F .text	00000400 ip_rcv
00844a28 g     F .text	0000017c vfseek
0082d468 g     F .text	00000120 soqremque
0083fd38 g     F .text	00000858 udpdemux
00805594 g     F .text	00000044 printf
0084d7d8 g     O .bss	00000004 rt_mib
0084d526 g     O .rwdata	00000002 OSMboxEn
0082509c g     F .text	00000060 dhc_state_init
008470f0 g     F .text	00000024 vsprintf
0080fe68 g     F .text	0000007c OSIntEnter
0080cff4 g     F .text	00000068 __sseek
00809ec8 g     F .text	000000a4 __sinit
0083ee8c g     F .text	00000118 in_delmulti
00808028 g     F .text	00000130 __swbuf_r
0084d7f0 g     O .bss	00000004 so_evtmap_create
0084d536 g     O .rwdata	00000002 OSQEn
00842fa8 g     F .text	00000094 in_pcballoc
0084d5b8 g     O .rwdata	00000002 socket_defaults
0080acec g     F .text	00000084 _setlocale_r
008388c0 g     F .text	00000498 send_arp
00809fc8 g     F .text	00000068 __sfmoreglue
00843a94 g     F .text	00000368 vfopen_locked
0084d630 g     O .bss	00000004 SSSLEDCommandQ
0080f41c g     F .text	000000d0 __malloc_unlock
00836f2c g     F .text	0000001c OSTaskStatHook
00837ec8 g     F .text	00000058 prep_modules
0081fc70 g     F .text	000001b8 bsd_i_sockoptlen
0084d678 g     O .bss	00000001 OSLockNesting
00801408 g     F .text	0000004c dm9000a_ior
0084d594 g     O .rwdata	00000004 xids
00805a10 g     F .text	00000674 strerror
008017d0 g     F .text	0000021c prep_dm9000a
00843ff4 g     F .text	00000040 vfclose
00857a48 g     O .bss	0000002c tcb
0084d574 g     O .rwdata	00000002 OSDataSize
00836730 g     F .text	00000038 alt_remap_cached
0084d679 g     O .bss	00000001 OSRunning
008398d8 g     F .text	000002cc grat_arp
00802cf8 g     F .text	0000006c get_ip_addr
00821618 g     F .text	000000ac inet_pton
00839d08 g     F .text	0000009c reg_type
0085754c g     O .bss	000000f0 dhc_states
0081e9e0 g     F .text	00000234 igmp_fasttimo
008441b8 g     F .text	0000005c vunlink_flag_open_files
00824e44 g     F .text	00000088 dhc_halt
0084d714 g     O .bss	00000004 dsc_acks
00857a74 g     O .bss	000000e0 tcpstat
0083d384 g     F .text	0000035c ip_reasm_copy_queued_fragments_into_reassy_buffer
00827900 g     F .text	000000a8 dtom
00832cb8 g     F .text	000000fc tcp_setpersist
00829fe4 g     F .text	000001a4 t_getsockopt
0080539c g     F .text	000000e0 memmove
0084d724 g     O .bss	00000004 dsc_naks
00827da4 g     F .text	000005f8 ip_output
00836f70 g     F .text	0000001c OSInitHookBegin
008469c0 g     F .text	00000054 icmp_du
0084d58c g     O .rwdata	00000004 num_net_tasks
0084d814 g     O .bss	00000004 vfiles
0084d56c g     O .rwdata	00000002 OSTmrSize
008428cc g     F .text	00000104 dhc_main_ipset
00809fb8 g     F .text	00000010 _cleanup
0083c47c g     F .text	000002e0 ip_reasm_process_first_fragment
008019ec g     F .text	00000038 dm9000a_init
0080bcc4 g     F .text	000000bc _Balloc
00803248 g     F .text	00000194 get_board_mac_addr
008003dc g     F .text	00000144 LCD_Test
0084d67c g     O .bss	00000004 OSIdleCtr
0084d634 g     O .bss	00000004 SSSLEDLightshowSem
00841764 g     F .text	000005f0 ip_setmoptions
0080e57c g     F .text	00000088 __gtdf2
00842c90 g     F .text	0000002c md_fseek
00836b9c g       .text	00000000 OSStartTsk
00000000  w      *UND*	00000000 __errno
00811334 g     F .text	000002e0 OS_TCBInit
0081cb78 g     F .text	000000f8 epcs_sector_erase
0083c75c g     F .text	000000a0 ip_reassm
00824ecc g     F .text	000001d0 dhc_reclaim
00818480 g     F .text	00000048 alt_write_flash_command_32bit_device_16bit_mode
00857e34 g     O .bss	00000010 udp_mib
01400000 g     F .entry	00000000 __reset
0082a81c g     F .text	000000e4 t_shutdown
0080397c g     F .text	000001ec sss_handle_receive
0082a278 g     F .text	00000150 t_recvfrom
0084d572 g     O .rwdata	00000002 OSTmrWheelTblSize
00841f48 g     F .text	000006b8 u_mctest_run
0083f014 g     F .text	00000094 prep_ifaces
008003a0 g     F .text	0000003c LCD_Clear
0084d6f8 g     O .bss	00000001 to_netmain
0082560c g     F .text	000000dc pk_alloc
0084d512 g     O .rwdata	00000002 OSEventSize
008010c8 g     F .text	000002ec alt_SSSErrorHandler
0084d680 g     O .bss	00000001 OSPrioHighRdy
0080d4b4 g     F .text	00000074 _fstat_r
008211d8 g     F .text	0000004c tk_nettick
00836ef0 g     F .text	00000020 OSTaskDelHook
00817f98 g     F .text	000002d8 alt_flash_program_block
0084d654 g     O .bss	00000004 errno
0080591c g     F .text	00000014 __srget
0082e794 g     F .text	000000cc in_pcbnotify
00836b7c g       .text	00000000 OSStartHighRdy
0085763c g     O .bss	00000014 lilfreeq
0080080c g     F .text	00000624 alt_uCOSIIErrorHandler
0083f0d0 g     F .text	00000028 evtmap_setup
00815f28 g     F .text	00000200 OSTaskCreateExt
0084d6fc g     O .bss	00000004 tcp_sleep_timeout
0082de94 g     F .text	000001d0 sbdrop
0084d7ec g     O .bss	00000004 net_system_exit
00857e44 g     O .bss	00000068 icmp_mib
0083380c g     F .text	00000078 tcp_getseq
0083f4e0 g     F .text	000000cc ip_raw_alloc
00812794 g     F .text	00000068 OSFlagPendGetFlagsRdy
0084d552 g     O .rwdata	00000002 OSTaskStatStkSize
00823214 g     F .text	00000b3c dhc_request
0082bb20 g     F .text	000007e4 soreceive
008117a0 g     F .text	00000334 OSFlagAccept
00813f4c g     F .text	000000c8 OSQFlush
008138e4 g     F .text	00000154 OSQAccept
0084d660 g     O .bss	00000004 alt_argv
008554d0 g       *ABS*	00000000 _gp
0083de94 g     F .text	00000054 ip_reasm_send_icmp_timex
0080f0f4 g     F .text	00000118 usleep
00844034 g     F .text	00000048 vfflush
00857950 g     O .bss	00000040 resid_semaphore
00820668 g     F .text	00000148 hexdump
0083c334 g     F .text	000000a8 ip_reasm_incr_mem_useage
00826ca4 g     F .text	00000034 calloc2
0081f128 g     F .text	0000007c igmp_leavegroup
01a81800 g       *ABS*	00000000 __alt_mem_epcs_controller
00815d54 g     F .text	000001d4 OSTaskCreate
0084d624 g     O .bss	00000004 netisrs
008157e0 g     F .text	00000574 OSTaskChangePrio
0084d674 g     O .bss	00000004 alt_heapsem
00833658 g     F .text	000000e8 tcp_close
00811614 g     F .text	0000018c OSDebugInit
00816128 g     F .text	0000040c OSTaskDel
00845254 g     F .text	0000006c vferror
00840a48 g     F .text	000000c0 udp_alloc
0084d1c0 g     O .rwdata	00000180 alt_fd_list
00853f7c g     O .bss	00000370 OSFlagTbl
0084d77c g     O .bss	00000008 mbstat
0080526c g     F .text	00000090 _getc_r
008051d4 g     F .text	00000098 getc
00805814 g     F .text	00000008 _putchar_r
008108e4 g     F .text	000000b8 OS_EventTaskRemove
0081ce7c g     F .text	00000064 epcs_write_status_register
00841354 g     F .text	00000158 igmpv2_chk_set_timer
00821a34 g     F .text	0000002c TK_OSTimeDly
00835df0 g     F .text	00000094 alt_find_dev
008052fc g     F .text	000000a0 memcpy
0084d72c g     O .bss	00000004 dsc_rebind
008384c4 g     F .text	00000080 task_stats
00829308 g     F .text	0000004c DOMAIN_CHECK
0082839c g     F .text	00000040 in_broadcast
0084d53c g     O .rwdata	00000002 OSRdyTblSize
0084d810 g     O .bss	00000004 vfsystems
00840978 g     F .text	000000d0 udp_socket
0084d6cc g     O .bss	00000004 MaxMtu
0082e428 g     F .text	00000158 sock_selscan
00809fac g     F .text	0000000c _cleanup_r
0080e68c g     F .text	000000f8 __floatsidf
0083c0e0 g     F .text	000000d0 ip_reasm_match_frag_with_ire
0082d5d8 g     F .text	00000050 socantrcvmore
00803808 g     F .text	00000174 sss_exec_command
00805580 g     F .text	00000014 perror
00836214 g     F .text	00000078 alt_io_redirect
0080e604 g     F .text	00000088 __ltdf2
0084d758 g     O .bss	00000004 netq_intmask
00802084 g     F .text	0000005c dm9ka_stats
008215a8 g     F .text	00000070 hextoa
0084724c g       *ABS*	00000000 __DTOR_END__
0082a5f4 g     F .text	00000228 t_send
00835a14 g     F .text	000000fc alt_close
0084d784 g     O .bss	00000002 select_wait
008058bc g     F .text	00000014 puts
00820cfc g     F .text	00000044 std_out
00844e40 g     F .text	00000138 vfslookup_locked
0082b308 g     F .text	0000009c soaccept
0080f4ec g     F .text	00000130 OSEventNameGet
0084d520 g     O .rwdata	00000002 OSFlagMax
008579bc g     O .bss	0000003c tcpmib
0082aa68 g     F .text	0000009c t_errno
0083f0f8 g     F .text	000000f0 ip_raw_open
00819f48 g     F .text	0000011c alt_epcs_flash_write_block
008240b4 g     F .text	00000118 dhc_decline
0080baa0 g     F .text	000000b0 __ratio
0080fee4 g     F .text	00000100 OSIntExit
0084d608 g     O .rwdata	00000004 ipRoutes
00844160 g     F .text	00000058 vfeof
00833b24 g     F .text	0000005c tcp_canceltimers
008229dc g     F .text	0000021c dhc_buildheader
0084d55a g     O .rwdata	00000002 OSTCBSize
0084d681 g     O .bss	00000001 OSPrioCur
0081a8bc g     F .text	000002c0 altera_avalon_jtag_uart_read
00846a70 g     F .text	00000014 malloc
0084d80c g     O .bss	00000004 inpcb_cachemiss
008055d8 g     F .text	00000034 _printf_r
008217b0 g     F .text	000000c4 inet46_addr
0084d808 g     O .bss	00000004 inpcb_cachehits
0080e8c0 g     F .text	00000008 __udivsi3
0084d180 g     O .rwdata	0000000b tcp_outflags
0080ed00 g     F .text	000000c0 isatty
0084d540 g     O .rwdata	00000002 OSStkWidth
008491fc g     O .rodata	000000c8 __mprec_tens
008438f0 g     F .text	0000007c vf_alloc_and_link_vop
0084d534 g     O .rwdata	00000002 OSPtrSize
0084d7dc g     O .bss	00000004 ipr_curr_mem
0081e62c g     F .text	0000006c exit_hook
0084d6e0 g     O .bss	00000004 igmp_cticks
0084d76c g     O .bss	00000004 mheap_sem_ptr
008319d8 g     F .text	00000048 ip4_tcpmss
0080acc8 g     F .text	00000008 __locale_charset
0084d514 g     O .rwdata	00000002 OSEventTblSize
00857db8 g     O .bss	00000014 netlist
0082c304 g     F .text	000000a8 soshutdown
00803dd4 g     F .text	000000a4 __fixunsdfsi
00836af0 g       .text	00000000 OSCtxSw
00837e58 g     F .text	0000004c packet_check
00823d50 g     F .text	00000280 dhc_setip
008579f8 g     O .bss	00000014 mbufq
0082b2b8 g     F .text	00000050 soabort
0084d648 g     O .bss	00000004 __malloc_top_pad
0084d684 g     O .bss	00000004 OSTCBList
00825c90 g     F .text	00000110 qdel
00837c60 g     F .text	00000164 station_state
0083f648 g     F .text	00000184 rt_lookup
0084d79c g     O .bss	00000004 alt_fd_list_lock
00801e7c g     F .text	000000f8 dm9ka_init
0084d4dc g     O .rwdata	00000004 __mb_cur_max
0081f1a4 g     F .text	0000035c igmp_validate
0080acd0 g     F .text	0000000c _localeconv_r
0081e348 g     F .text	000002e4 ip_startup
00829644 g     F .text	00000298 t_accept
0082d058 g     F .text	0000008c soisdisconnecting
0080c3bc g     F .text	0000003c __i2b
0080a6ac g     F .text	0000049c __sfvwrite_r
0081dd00 g     F .text	000003d4 pktdemux
008542ec g     O .bss	00000c30 OSMemTbl
0084d688 g     O .bss	00000001 OSTickStepState
00826280 g     F .text	000000ac kbhit
00829e08 g     F .text	000001dc t_setsockopt
0080cf7c g     F .text	00000070 _sbrk_r
00837444 g     F .text	00000084 alt_program_intel
0084d340 g     O .rwdata	00000018 icmpdu_types
00844214 g     F .text	00000220 vunlink
0084d538 g     O .rwdata	00000002 OSQMax
008204a8 g     F .text	000000b0 ccksum
0084396c g     F .text	000000d8 vf_alloc_buffer
0084d800 g     O .bss	00000004 cachedRoute
0084d5a0 g     O .rwdata	00000004 lilbufs
00854f1c g     O .bss	00000800 OSTaskStatStk
00842cbc g     F .text	00000024 md_ftell
00820558 g     F .text	00000068 cksum
008133fc g     F .text	0000010c OSMemNameGet
0082ae1c g     F .text	00000130 sofree
0084d6d4 g     O .bss	00000004 ifNumber
0084d518 g     O .rwdata	00000002 OSFlagEn
0080d610 g     F .text	00000078 _read_r
0084d55e g     O .rwdata	00000002 OSTimeTickHookEn
00835b70 g     F .text	00000078 alt_dcache_flush
00813030 g     F .text	000000ac OS_FlagUnlink
008144b0 g     F .text	00000180 OSQPost
0084b8f4 g     O .rwdata	0000000c __lc_ctype
0084d5e0 g     O .rwdata	00000004 alt_max_fd
00818270 g     F .text	00000040 alt_read_query_entry_8bit
00810ec0 g     F .text	0000006c OS_MemCopy
0084d5a8 g     O .rwdata	00000004 bigbufs
00834854 g     F .text	000000d4 tcp_disconnect
00810f2c g     F .text	000000d4 OS_Sched
00804e60 g     F .text	00000138 __unpack_d
0080d390 g     F .text	00000110 _fclose_r
008132f8 g     F .text	00000104 OSMemGet
0081685c g     F .text	000001c4 OSTaskNameSet
008374c8 g     F .text	00000174 alt_erase_block_intel
00809e2c g     F .text	00000034 fflush
0084d64c g     O .bss	00000004 __malloc_max_sbrked_mem
0084d68c g     O .bss	00000004 OSCtxSwCtr
008574c4 g     O .bss	00000064 igmpstats
00836f48 g     F .text	00000028 OSTimeTickHook
00823110 g     F .text	00000104 dhc_rx_offer
0081fe28 g     F .text	00000120 bsd_getsockopt
0080eb40 g     F .text	000001c0 alt_irq_register
0084d522 g     O .rwdata	00000002 OSFlagNameSize
00857e1c g     O .bss	00000018 ire_stats
00802abc g     F .text	000001e4 LEDManagementTask
00834ac4 g     F .text	000001b8 udp_soinput
00825be0 g     F .text	000000b0 putq
0081099c g     F .text	00000104 OS_EventTaskRemoveMulti
0084d6f4 g     O .bss	00000004 iniche_net_ready
00804308 g     F .text	00000074 __adddf3
00810790 g     F .text	00000154 OS_EventTaskWaitMulti
0084520c g     F .text	00000048 isvfile
0082c4ac g     F .text	000004c0 sosetopt
0082105c g     F .text	000000f4 netmain
00831a20 g     F .text	0000011c tcp_mss
00819e44 g     F .text	00000070 alt_epcs_flash_erase_block
0080b980 g     F .text	00000120 __b2d
00821224 g     F .text	0000031c parse_ipad
008438d0 g     F .text	00000020 get_vfopen_error
0084d53a g     O .rwdata	00000002 OSQSize
0080dc64 g     F .text	000005b0 __umoddi3
0080ee20 g     F .text	000000f0 lseek
00837f20 g     F .text	00000168 inet_timer
0081508c g     F .text	0000027c OSSemPend
008035b8 g     F .text	00000190 sss_send_menu
0084d4d8 g     O .rwdata	00000004 _global_impure_ptr
00820994 g     F .text	00000164 print_eth
0081d194 g     F .text	00000058 epcs_exit_4_bytes_mode
00843dfc g     F .text	00000050 vfopen
00836550 g     F .text	00000120 alt_read
0080c738 g     F .text	000005f4 _realloc_r
00800e30 g     F .text	00000298 alt_NetworkErrorHandler
0084d524 g     O .rwdata	00000002 OSLowestPrio
0085803c g       *ABS*	00000000 __bss_end
00836058 g     F .text	000000f8 alt_iic_isr_register
0082723c g     F .text	00000134 m_free
00836fc4 g     F .text	00000020 OSTCBInitHook
008256e8 g     F .text	000002b8 pk_validate
0084d56a g     O .rwdata	00000002 OSTmrCfgTicksPerSec
00836840 g     F .text	00000110 alt_tick
0084364c g     F .text	0000025c in_pcblookup
008252b0 g     F .text	000000cc find_opt
0080d688 g     F .text	000005dc __udivdi3
00827094 g     F .text	000001a8 m_getnbuf
00825a6c g     F .text	000000ac dump_buf_estats
0084d7d0 g     O .bss	00000004 arpRepsOut
0084d50c g     O .rwdata	00000002 OSEventEn
008492c4 g     O .rodata	00000028 __mprec_bigtens
0080c618 g     F .text	00000120 __s2b
0084d566 g     O .rwdata	00000002 OSTmrCfgNameSize
008048a0 g     F .text	00000194 __floatunsidf
00837adc g     F .text	000000fc netmain_init
0080b8a0 g     F .text	00000060 __mcmp
0081bfe4 g     F .text	00000184 altera_avalon_uart_init
0084d710 g     O .bss	00000004 dsc_requests
0083300c g     F .text	00000488 tcp_respond
00834f00 g     F .text	0000033c udp4_sockbind
0084d4d0 g     O .rwdata	00000004 __ctype_ptr
0084d75c g     O .bss	00000004 old_mode
0081eebc g     F .text	0000026c igmp_joingroup
008284c4 g     F .text	00000358 so_icmpdu
00809f94 g     F .text	00000018 __fp_lock_all
0084d820 g     O .bss	00000004 vfs_dir_stale
00836010 g     F .text	00000048 alt_ic_irq_enabled
0083d6e0 g     F .text	00000120 ip_reasm_process_timer_tick
008452c0 g     F .text	0000005c vclearerr
008203bc g     F .text	000000ec bsd_setsockopt
008278a8 g     F .text	00000058 mbuf_len
00812e3c g     F .text	000000e4 OS_FlagInit
008367a8 g     F .text	00000098 alt_alarm_stop
00844fc0 g     F .text	000001e8 strippath
0084d598 g     O .rwdata	00000004 reqlist
00821ad0 g     F .text	000001a0 tcp_sleep
00847048 g     F .text	00000024 strtol
008221ac g     F .text	00000830 dhc_upcall
00834928 g     F .text	000000e0 tcp_usrclosed
0084d748 g     O .bss	00000004 cticks_factor
0084d548 g     O .rwdata	00000002 OSTaskIdleStkSize
00843090 g     F .text	00000254 in_pcbbind
0084d658 g     O .bss	00000004 alt_irq_active
00814c18 g     F .text	000000c0 OSSemAccept
0084dec0 g     O .bss	00000044 g_dm9ka
00813628 g     F .text	000000f0 OSMemPut
008130dc g     F .text	0000021c OSMemCreate
0084d690 g     O .bss	00000004 OSIdleCtrMax
008000ec g     F .exceptions	000000d0 alt_irq_handler
0084d198 g     O .rwdata	00000028 alt_dev_null
0084d5ba g     O .rwdata	00000001 tcprexmtthresh
0084d55c g     O .rwdata	00000002 OSTicksPerSec
00839da4 g     F .text	00000098 if_killsocks
0083a85c g     F .text	00000248 ip_write
0083e2e8 g     F .text	0000060c ip_rcv_phase2
00829bc8 g     F .text	00000044 t_getsockname
008298dc g     F .text	000002a8 t_connect
0084d5b4 g     O .rwdata	00000004 TCPTV_MSL
00857650 g     O .bss	00000010 memestats
0082632c g     F .text	00000060 getch
00818788 g     F .text	000000ac alt_set_flash_algorithm_func
0084d438 g     O .rwdata	00000080 vfs_root_path
00829b84 g     F .text	00000044 t_getpeername
0083c3dc g     F .text	000000a0 ip_reasm_decr_mem_useage
0082d764 g     F .text	00000080 soreserve
00836af0 g       .text	00000000 OSIntCtxSw
00826cd8 g     F .text	000000f4 npalloc
0080b76c g     F .text	00000070 __hi0bits
0084d7fc g     O .bss	00000004 ipraw_eps
0082537c g     F .text	00000290 pk_init
00842a90 g     F .text	00000180 md_fread
00846a40 g     F .text	0000001c calloc
008047c8 g     F .text	000000d8 __fixdfsi
00857c54 g     O .bss	00000064 intimers
0082d844 g     F .text	00000048 sbrelease
0082e8c8 g     F .text	000000f0 ifd_clr
0082e174 g     F .text	00000094 sbdroprecord
00820af8 g     F .text	00000080 uslash
00836950 g     F .text	00000120 alt_write
0081833c g     F .text	0000003c alt_write_flash_command_8bit_device_8bit_mode
0084d7cc g     O .bss	00000004 arpRepsIn
0082201c g     F .text	00000090 dhc_get_srv_ipaddr
00838220 g     F .text	000001d8 in_timerset
0084d694 g     O .bss	00000004 OSTCBFreeList
00815308 g     F .text	0000017c OSSemPendAbort
00831b3c g     F .text	0000117c tcp_output
0084d7a8 g     O .bss	00000004 activehost
0084d5d8 g     O .rwdata	00000008 alt_dev_list
00820e30 g     F .text	0000022c parse_args
0084d760 g     O .bss	00000004 global_TCPwakeup_setIndx
0080a184 g     F .text	00000058 _fputc_r
0081d3fc g     F .text	00000070 write
00826dcc g     F .text	000000b8 npfree
00805710 g     F .text	000000e8 _putc_r
00839068 g     F .text	00000294 arpReply
008205ec g     F .text	0000007c nextarg
0084d560 g     O .rwdata	00000002 OSVersionNbr
0083cd8c g     F .text	00000594 ip_reasm_process_subsequent_fragments
0084d704 g     O .bss	00000004 dsc_errors
0084d590 g     O .rwdata	00000004 pton_error
0084df04 g     O .bss	00002000 SSSInitialTaskStk
008571a0 g     O .bss	00000014 rcvdq
0082e860 g     F .text	00000068 tcp_notify
0080ea0c g     F .text	000000d4 fstat
00805098 g     F .text	0000002c fprintf
0082b3a4 g     F .text	000000d4 soconnect
0083f5ec g     F .text	0000005c ip_raw_maxalloc
00822bf8 g     F .text	00000518 dhc_discover
0081963c g     F .text	000000dc alt_check_primary_table
008033dc g     F .text	000000a8 SSSCreateOSDataStructs
008435d0 g     F .text	0000007c in_setpeeraddr
0084d508 g     O .rwdata	00000004 OSEndiannessTest
0082638c g     F .text	0000003c clock_init
0084407c g     F .text	000000e4 vfgets
00838648 g     F .text	0000017c et_send
0080c4f8 g     F .text	00000120 __pow5mult
0084d63c g     O .bss	00000004 __nlocale_changed
0080e8c8 g     F .text	00000008 __umodsi3
00817dcc g     F .text	00000068 alt_flash_cfi_read
00818510 g     F .text	00000034 alt_write_native_8bit
0083c29c g     F .text	00000098 ip_reasm_check_mem_useage
00821540 g     F .text	00000068 inet_addr
0082c3ac g     F .text	00000100 sorflush
00847080 g     F .text	00000020 vprintf
00857764 g     O .bss	000000fc global_tcb_ext
0083af2c g     F .text	00000488 ip_fragment_lc
008571b4 g     O .bss	00000300 netstatic
0081d050 g     F .text	0000006c epcs_read_electronic_signature
008293e4 g     F .text	0000017c t_bind
0084d51a g     O .rwdata	00000002 OSFlagGrpSize
00825fd8 g     F .text	000000e4 udp_close
008269bc g     F .text	0000021c alt_iniche_init
0085803c g       *ABS*	00000000 end
008265f4 g     F .text	00000088 UNLOCK_NET_RESOURCE
0082a188 g     F .text	000000f0 t_recv
00818378 g     F .text	0000007c alt_write_flash_command_16bit_device_8bit_mode
0081b62c g     F .text	00000538 altera_avalon_lcd_16207_write
00844434 g     F .text	000001ac vfread
0081dc18 g     F .text	000000e8 netclose
00803b68 g     F .text	0000026c SSSSimpleSocketServerTask
00846a28 g     F .text	0000000c _atoi_r
0081c870 g     F .text	00000248 altera_avalon_uart_write
008188b0 g     F .text	000005e0 alt_read_cfi_table
0084d5c4 g     O .rwdata	00000004 tcp_keepintvl
0081a244 g     F .text	00000138 altera_avalon_jtag_uart_init
008111a4 g     F .text	000000c8 OS_TaskStat
0084d708 g     O .bss	00000004 dsc_discovers
00800520 g     F .text	000001a8 get_DE2_115_mac_addr
0084d138 g     O .rwdata	00000018 tcp_protosw
00847248 g       *ABS*	00000000 __CTOR_LIST__
0084d81c g     O .bss	00000004 vfopen_error
01000000 g       *ABS*	00000000 __alt_stack_pointer
0084d794 g     O .bss	00000004 tcp_maxidle
0084d734 g     O .bss	00000004 firstudp
0081be5c g     F .text	00000090 alt_avalon_timer_sc_init
0081bf44 g     F .text	00000058 altera_avalon_uart_write_fd
00804acc g     F .text	00000080 __clzsi2
0081bf9c g     F .text	00000048 altera_avalon_uart_close_fd
0081ab7c g     F .text	000002dc altera_avalon_jtag_uart_write
008179a8 g     F .text	0000009c alt_flash_cfi_init
00809eb8 g     F .text	00000004 __sfp_lock_acquire
0080b660 g     F .text	000000e4 memchr
00810e6c g     F .text	00000054 OS_MemClr
00806158 g     F .text	00001eac ___vfprintf_internal_r
00836bc0 g     F .text	00000310 OSTaskStkInit
00846b6c g     F .text	00000060 _sprintf_r
01400000 g       *ABS*	00000000 __alt_mem_cfi_flash_0
0080a398 g     F .text	00000314 _free_r
008414ac g     F .text	00000170 igmpv2_chk4_rtr_alert_opt
0082a900 g     F .text	000000d0 t_socketclose
0084ff04 g     O .bss	00002000 LED7SegLightshowTaskStk
008104ec g     F .text	00000194 OS_EventTaskRdy
0084d620 g     O .bss	00000004 autoReset
008058d0 g     F .text	0000004c __srget_r
008082b4 g     F .text	000001b0 __call_exitprocs
0084d698 g     O .bss	00000001 OSCPUUsage
008574b4 g     O .bss	00000010 nets
00826534 g     F .text	000000c0 LOCK_NET_RESOURCE
00823fd0 g     F .text	000000e4 dhc_resetip
0084d640 g     O .bss	00000004 __mlocale_changed
00829354 g     F .text	00000090 t_socket
0084d4e8 g     O .rwdata	00000004 __malloc_sbrk_base
008001bc g     F .text	00000048 _start
008385f4 g     F .text	00000054 etainit
0084d7a0 g     O .bss	00000004 _alt_tick_rate
00837ea4 g     F .text	00000024 mcastlist
00814014 g     F .text	00000320 OSQPend
00857660 g     O .bss	000000f0 pktlog
00840fbc g     F .text	0000014c igmpv2_process_report
0082ea2c g     F .text	00000080 ifd_isset
0083fbf4 g     F .text	00000144 del_route
008060f8 g     F .text	00000008 _user_strerror
00817220 g     F .text	0000014c OSTimeDly
00802ca0 g     F .text	00000058 get_mac_addr
0082ad2c g     F .text	000000f0 solisten
0080c088 g     F .text	0000014c __lshift
008378a4 g     F .text	00000238 alt_avalon_spi_command
0084d7a4 g     O .bss	00000004 _alt_nticks
0081d384 g     F .text	00000078 read
008178c4 g     F .text	000000ac alt_sys_init
00833740 g     F .text	0000004c tcp_quench
00820b78 g     F .text	00000184 ns_printf
0082667c g     F .text	00000214 TK_NEWTASK
00839c28 g     F .text	000000e0 isbcast
00847114 g     F .text	00000134 __register_exitproc
0084d699 g     O .bss	00000001 OSTaskCtr
0083c1b0 g     F .text	000000ec ip_reasm_determine_type_of_frag
00846c58 g     F .text	000000f0 strncmp
008182b0 g     F .text	00000044 alt_read_query_entry_16bit
0081736c g     F .text	0000024c OSTimeDlyHMSM
00836768 g     F .text	00000040 alt_remap_uncached
0083f1e8 g     F .text	000000c0 ip_raw_close
0080c1d4 g     F .text	000001e8 __multiply
0084d388 g     O .rwdata	000000b0 mdlist
0081a754 g     F .text	00000074 altera_avalon_jtag_uart_close
0081e8e8 g     F .text	000000f8 igmp_input
0083ae54 g     F .text	000000d8 ip_raw_write
008445e0 g     F .text	000003e8 vfwrite_locked
00846d48 g     F .text	000000bc strncpy
0084d70c g     O .bss	00000004 dsc_offers
0084de24 g     O .bss	00000028 __malloc_current_mallinfo
0084d50e g     O .rwdata	00000002 OSEventMax
00821874 g     F .text	00000074 inet_setport
008185a8 g     F .text	000001e0 alt_set_flash_width_func
0080bd80 g     F .text	0000017c __d2b
00815484 g     F .text	00000128 OSSemPost
00831478 g     F .text	00000190 tcp_dooptions
0084d638 g     O .bss	00000004 SSSLEDEventFlag
0081cb18 g     F .text	00000060 epcs_read_status_register
0082cf5c g     F .text	000000fc soisconnected
00810070 g     F .text	000000e4 OSSchedUnlock
0083f0a8 g     F .text	00000028 netexit
00802d64 g     F .text	000001dc get_serial_number
0084d6f0 g     O .bss	00000004 nettick_wakes
0084d788 g     O .bss	00000001 tcpprintfs
008383f8 g     F .text	000000a8 in_timerkill
00840e5c g     F .text	00000160 igmpv2_input
0084d71c g     O .bss	00000004 dsc_declines
0081a0fc g     F .text	00000058 altera_avalon_jtag_uart_read_fd
008205c0 g     F .text	0000002c do_trap
00845614 g     F .text	000000f4 alt_get_fd
0081ff48 g     F .text	00000104 bsd_ioctl
0084d69c g     O .bss	00000004 OSMemFreeList
008101c4 g     F .text	000000ac OSStatInit
00827bb8 g     F .text	000001ec tcp_rcv
00820950 g     F .text	00000044 panic
0084d824 g     O .bss	00000004 vfs_open_files
0081e1a4 g     F .text	000001a4 ip2mac
008358c8 g     F .text	0000014c alt_busy_sleep
00812ba4 g     F .text	000000d4 OSFlagQuery
00804f98 g     F .text	000000c8 __fpcmp_parts_d
0082e580 g     F .text	00000214 sock_select
00842600 g     F .text	000002cc dhc_setup
00832e9c g     F .text	00000058 tcp_init
0084d764 g     O .bss	00000004 cticks
008014f0 g     F .text	000001c4 dm9000a_reset
0084d6f9 g     O .bss	00000001 to_nettick
0084d544 g     O .rwdata	00000002 OSTaskCreateExtEn
0080d320 g     F .text	00000070 _close_r
0081d46c g     F .text	0000064c Netinit
00826c6c g     F .text	00000038 prep_armintcp
0083ed24 g     F .text	00000168 in_addmulti
00832ef4 g     F .text	00000118 tcp_template
008279a8 g     F .text	00000070 remque
0083704c g     F .text	00000218 alt_erase_block_amd
0084706c g     F .text	00000014 _vprintf_r
00801f74 g     F .text	00000110 dm9ka_close
0082eb1c g     F .text	00000408 tcp_reass
00842ddc g     F .text	000001cc tcp_cksum
0083523c g     F .text	000003dc udp4_socksend
0081d0bc g     F .text	00000080 epcs_read_device_id
00843e4c g     F .text	000001a8 vfclose_locked
0082e9b8 g     F .text	00000074 ifd_set
00846a84 g     F .text	00000074 memcmp
008104d0 g     F .text	0000001c OS_Dummy
0081a1ac g     F .text	00000048 altera_avalon_jtag_uart_close_fd
00825200 g     F .text	000000b0 dhc_set_state
0084d6d0 g     O .bss	00000004 NDEBUG
0085803c g       *ABS*	00000000 __alt_stack_base
0084d61c g     O .bss	00000004 last_flash_sector
0081a1f4 g     F .text	00000050 altera_avalon_jtag_uart_ioctl_fd
0082d7e4 g     F .text	00000060 sbreserve
0083f2a8 g     F .text	00000238 ip_raw_input
008050f8 g     F .text	0000009c _fwrite_r
0084d5a4 g     O .rwdata	00000004 lilbufsiz
0082eaac g     F .text	00000070 ifd_get
0082d6c8 g     F .text	0000009c sbwakeup
00808174 g     F .text	0000013c __swsetup_r
00818e90 g     F .text	000007ac alt_read_cfi_width
0085571c g     O .bss	000001e0 OSQTbl
00831734 g     F .text	000002a4 tcp_xmit_timer
0080e214 g     F .text	00000258 __divdf3
0080a030 g     F .text	000000f0 __sfp
0080310c g     F .text	0000013c generate_mac_addr
00839f38 g     F .text	000001a4 ip_bldhead
0080bbe4 g     F .text	00000058 __copybits
0082d88c g     F .text	000000a8 sbappend
0084b900 g     O .rwdata	00000408 __malloc_av_
00809ec4 g     F .text	00000004 __sinit_lock_release
0084d6a0 g     O .bss	00000004 OSTCBHighRdy
0080437c g     F .text	000003c4 __muldf3
0083aaa4 g     F .text	000003b0 ip_write2
0080d0d8 g     F .text	00000060 __sread
0084d600 g     O .rwdata	00000004 arp_ageout
0084d6a4 g     O .bss	00000004 OSQFreeList
00839e3c g     F .text	000000fc ip_init
008454f4 g     F .text	00000120 alt_find_file
0083f5ac g     F .text	00000040 ip_raw_free
00838f54 g     F .text	00000114 make_arp_entry
00835c14 g     F .text	000000b4 alt_dev_llist_insert
0080f314 g     F .text	00000108 __malloc_lock
008050c4 g     F .text	00000034 _fprintf_r
0080f038 g     F .text	000000bc sbrk
00834a54 g     F .text	00000070 udp_lookup
0080f61c g     F .text	00000144 OSEventNameSet
00809c30 g     F .text	000001fc _fflush_r
0080d26c g     F .text	000000b4 _calloc_r
0084d6a8 g     O .bss	00000001 OSRdyGrp
00842a48 g     F .text	00000028 md_fopen
0084d150 g     O .rwdata	00000018 udp_protosw
0084d4ec g     O .rwdata	00000008 alt_flash_dev_list
0081843c g     F .text	00000044 alt_write_flash_command_16bit_device_16bit_mode
00843554 g     F .text	0000007c in_setsockaddr
0084d618 g       *ABS*	00000000 __bss_start
00802a48 g     F .text	00000074 LED7SegLightshowTask
00800204 g     F .text	0000009c LCD_Init
0082d934 g     F .text	000000e0 sbappendrecord
00857dcc g     O .bss	00000050 ip_mib
0080547c g     F .text	00000098 memset
0082b478 g     F .text	000000a0 sodisconnect
00802880 g     F .text	000000fc main
0084d664 g     O .bss	00000004 alt_envp
0084d650 g     O .bss	00000004 __malloc_max_total_mem
00803548 g     F .text	00000070 sss_reset_connection
008276d8 g     F .text	000001d0 m_adj
0081a154 g     F .text	00000058 altera_avalon_jtag_uart_write_fd
00808158 g     F .text	0000001c __swbuf
00842ce0 g     F .text	000000d8 md_fgetc
00849334 g     O .rodata	00000100 OSUnMapTbl
0083ba84 g     F .text	000002b8 ip_dump
00821e14 g     F .text	00000208 tk_stats
0084d57c g     O .rwdata	00000008 alt_iniche_dev_list
00851f04 g     O .bss	00000078 SSSLEDCommandQTbl
0081bc30 g     F .text	00000164 altera_avalon_lcd_16207_init
0084d53e g     O .rwdata	00000002 OSSemEn
0084d74c g     O .bss	00000004 OS_TPS
00800328 g     F .text	0000003c LCD_Line2
00828b20 g     F .text	000007e8 rawip_usrreq
008127fc g     F .text	000003a8 OSFlagPost
0080cfec g     F .text	00000008 __sclose
00821750 g     F .text	00000060 print46_addr
01000000 g       *ABS*	00000000 __alt_heap_limit
0080d4a0 g     F .text	00000014 fclose
00810680 g     F .text	00000110 OS_EventTaskWait
00846e04 g     F .text	00000244 _strtol_r
00820824 g     F .text	0000012c print_uptime
0081126c g     F .text	000000c8 OS_TaskStatStkChk
00857eac g     O .bss	00000190 _atexit0
00816534 g     F .text	00000170 OSTaskDelReq
0080867c g     F .text	000015b4 _dtoa_r
0080af20 g     F .text	00000740 _malloc_r
00842db8 g     F .text	00000024 md_unlink
0084303c g     F .text	00000054 in_pcbdetach
0084d5e4 g     O .rwdata	00000004 alt_errno
0084d610 g     O .rwdata	00000004 mdlist_size
00810154 g     F .text	00000070 OSStart
008184c8 g     F .text	00000048 alt_write_flash_command_32bit_device_32bit_mode
00841f18 g     F .text	00000030 u_mctest_init
0080f2b8 g     F .text	0000005c __env_unlock
0080ac10 g     F .text	000000b8 _fwalk
00816a20 g     F .text	00000218 OSTaskResume
00813718 g     F .text	000000fc OSMemQuery
008218e8 g     F .text	0000014c convert_ip
00838d58 g     F .text	000001fc find_oldest_arp
0084d550 g     O .rwdata	00000002 OSTaskStatEn
0084d7c4 g     O .bss	00000004 arpReqsIn
00843a44 g     F .text	00000050 vf_free_buffer
00817e34 g     F .text	00000164 alt_write_value_to_flash
00845340 g     F .text	00000154 alt_fcntl
0084d52a g     O .rwdata	00000002 OSMemMax
00814630 g     F .text	00000188 OSQPostFront
00818544 g     F .text	00000034 alt_write_native_16bit
00826250 g     F .text	00000030 dtrap
0084d5b0 g     O .rwdata	00000004 kb_last
0080560c g     F .text	00000104 putc
0080e800 g     F .text	00000060 __divsi3
0084d6a9 g     O .bss	00000003 OSRdyTbl
0084d504 g     O .rwdata	00000002 OSDebugEn
008485e4 g     O .rodata	00000014 __thenan_df
0081e698 g     F .text	000000d0 ip_exit
0080a26c g     F .text	0000012c _malloc_trim_r
0084724c g       *ABS*	00000000 __CTOR_END__
0084d51c g     O .rwdata	00000002 OSFlagNodeSize
0084d700 g     O .bss	00000004 dhc_conn
008263e4 g     F .text	000000b0 cticks_hook
0084d564 g     O .rwdata	00000002 OSTmrCfgMax
00837dc4 g     F .text	00000094 sysuptime
00819b34 g     F .text	00000280 alt_epcs_flash_write
0080d138 g     F .text	000000bc strcmp
00802f40 g     F .text	000001cc generate_and_store_mac_addr
0083d800 g     F .text	000001c8 ip_reasm_delete_ire
00813a38 g     F .text	00000214 OSQCreate
00826494 g     F .text	0000005c irq_Mask
008166a4 g     F .text	000001b8 OSTaskNameGet
0084d7b0 g     O .bss	00000004 nextppp
0084d740 g     O .bss	00000004 irq_level
0081dab8 g     F .text	00000160 fixup_subnet_mask
008147b8 g     F .text	00000234 OSQPostOpt
00810270 g     F .text	00000240 OSTimeTick
0083bfa8 g     F .text	00000138 ip_copypkt
008250fc g     F .text	00000090 dhc_alldone
0084d54c g     O .rwdata	00000002 OSTaskMax
0084724c g       *ABS*	00000000 __DTOR_LIST__
00814cd8 g     F .text	00000114 OSSemCreate
0084d6e4 g     O .bss	00000004 igmp_all_hosts_group
0084d570 g     O .rwdata	00000002 OSTmrWheelSize
0082d628 g     F .text	00000038 sbselqueue
0084d6ec g     O .bss	00000004 netmain_wakes
008392fc g     F .text	00000260 arprcv
00821a60 g     F .text	00000070 TK_OSTaskResume
0081f500 g     F .text	000003e0 igmp_print_stats
0080e4f4 g     F .text	00000088 __nedf2
00826f24 g     F .text	000000a0 pffindtype
0084d546 g     O .rwdata	00000002 OSTaskDelEn
01a00000 g       *ABS*	00000000 __alt_mem_sram_0
0084d5c8 g     O .rwdata	00000004 tcp_sendspace
00844ba4 g     F .text	00000134 vftell
00857528 g     O .bss	00000012 eth_prt_buf
008155ac g     F .text	00000130 OSSemQuery
00813c4c g     F .text	00000300 OSQDel
00814334 g     F .text	0000017c OSQPendAbort
00817890 g     F .text	00000034 alt_irq_init
008002a0 g     F .text	00000088 LCD_Show_Text
00801454 g     F .text	0000009c phy_write
00857990 g     O .bss	00000018 app_semaphore
008016b4 g     F .text	0000011c TransmitPacket
008366d0 g     F .text	00000060 alt_release_fd
00826944 g     F .text	00000078 post_app_sem
0081e7f8 g     F .text	000000f0 igmp_init
00846af8 g     F .text	00000074 sprintf
008485f8 g     O .rodata	00000100 __clz_tab
0084d728 g     O .bss	00000004 dsc_renew
00842c10 g     F .text	00000080 md_fwrite
0084d644 g     O .bss	00000004 _PathLocale
0084d750 g     O .bss	00000004 tcp_sleep_count
00827a18 g     F .text	0000007c insque
00846a14 g     F .text	00000014 atexit
0084d818 g     O .bss	00000004 vfsfiles
0080d1f4 g     F .text	00000078 _write_r
008470a0 g     F .text	00000050 _vsprintf_r
00840590 g     F .text	000002b8 udp_send
0080ffe4 g     F .text	0000008c OSSchedLock
0081ec14 g     F .text	000002a8 igmp_send
0080ad70 g     F .text	0000001c setlocale
00811ad4 g     F .text	0000013c OSFlagCreate
00851f7c g     O .bss	00002000 LEDManagementTaskStk
008264f0 g     F .text	00000044 irq_Unmask
00829560 g     F .text	000000e4 t_listen
0084d4d4 g     O .rwdata	00000004 _impure_ptr
0084b4dc g     O .rwdata	00000018 ssstask
0084d65c g     O .bss	00000004 alt_argc
0083401c g     F .text	00000704 tcp_usrreq
00834c7c g     F .text	00000284 udp_usrreq
00826e84 g     F .text	00000054 ncpalloc
00835d8c g     F .text	00000064 _do_dtors
0084d516 g     O .rwdata	00000002 OSEventMultiEn
0084d5f8 g     O .rwdata	00000004 pingdelay
0083884c g     F .text	00000074 arp_send_pending
00840b74 g     F .text	000002e8 igmpv1_input
0080cd2c g     F .text	000001c4 __srefill_r
00826bd8 g     F .text	00000074 pre_task_setup
0084d770 g     O .bss	00000004 rcvdq_sem_ptr
0081fb44 g     F .text	0000012c bsd_getsockname
0083d9c8 g     F .text	00000148 ip_reasm_mark_compact_rfq
008006c8 g     F .text	00000144 FindLastFlashSectorOffset
00811c10 g     F .text	000002a8 OSFlagDel
00800000 g       *ABS*	00000000 __alt_mem_sdram_0
0084d6ac g     O .bss	00000004 OSEventFreeList
00822168 g     F .text	00000044 dhc_set_callback
00800020 g       .exceptions	00000000 alt_irq_entry
0084d7c0 g     O .bss	00000004 arpcache
0084633c g     F .text	00000350 icmp_destun
0083efa4 g     F .text	00000070 lookup_mcast
00844f78 g     F .text	00000048 vfslookup
0083e8f4 g     F .text	00000430 ip_demux
0080b900 g     F .text	00000080 __ulp
0080cf0c g     F .text	00000040 __isinfd
0084d754 g     O .bss	00000004 tcp_wakeup_count
00812150 g     F .text	00000644 OSFlagPend
0084d562 g     O .rwdata	00000002 OSTmrEn
00809f7c g     F .text	00000018 __fp_unlock_all
00826890 g     F .text	000000b4 wait_app_sem
0081bd94 g     F .text	00000058 altera_avalon_lcd_16207_write_fd
0080a120 g     F .text	00000064 fputc
0084d584 g     O .rwdata	00000004 ipmcfail_str
0084d768 g     O .bss	00000004 memtrapsize
008273b4 g     F .text	00000324 m_copy
0084d5d0 g     O .rwdata	00000008 alt_fs_list
00857a0c g     O .bss	00000014 mfreeq
00811070 g     F .text	00000080 OS_StrCopy
0082acd0 g     F .text	0000005c sobind
008429d0 g     F .text	00000078 init_memdev
0084d628 g     O .bss	00000001 to_ssstask
008013b4 g     F .text	00000054 dm9000a_iow
008183f4 g     F .text	00000048 alt_write_flash_command_32bit_device_8bit_mode
00827a94 g     F .text	00000124 nptcp_init
0084d52c g     O .rwdata	00000002 OSMemNameSize
00857860 g     O .bss	000000f0 global_TCPwakeup_set
00836f8c g     F .text	0000001c OSInitHookEnd
0082d0e4 g     F .text	000000bc soisdisconnected
008387c4 g     F .text	00000088 arp_free_pending
0084d558 g     O .rwdata	00000002 OSTCBPrioTblMax
0080acdc g     F .text	00000010 localeconv
0082af4c g     F .text	0000036c soclose
0081cce0 g     F .text	0000014c epcs_read_buffer
00857750 g     O .bss	00000014 bigfreeq
0084d554 g     O .rwdata	00000002 OSTaskStatStkChkEn
0084d5f4 g     O .rwdata	00000004 prompt
00819718 g     F .text	00000054 alt_epcs_flash_init
0084d5c0 g     O .rwdata	00000004 tcp_keepidle
0082894c g     F .text	000001d4 rawip_soinput
00835e84 g     F .text	00000050 alt_ic_isr_register
008449c8 g     F .text	00000060 vfwrite
0084d528 g     O .rwdata	00000002 OSMemEn
0082d3bc g     F .text	000000ac soqinsque
0084d7f4 g     O .bss	00000004 so_evtmap_delete
00805194 g     F .text	00000040 fwrite
0084d532 g     O .rwdata	00000002 OSMutexEn
0084d7e0 g     O .bss	00000004 h_ireq
0084d618 g       *ABS*	00000000 _edata
0083b3b4 g     F .text	00000624 ip_fragment
0081beec g     F .text	00000058 altera_avalon_uart_read_fd
0081d240 g     F .text	00000144 iniche_devices_init
00857a20 g     O .bss	00000028 tcp_saveti
00820d40 g     F .text	000000f0 con_page
0085803c g       *ABS*	00000000 _end
0082c96c g     F .text	00000540 sogetopt
0080e93c g     F .text	0000007c alt_flash_open_dev
0084d6b0 g     O .bss	00000001 OSIntNesting
0084d108 g     O .rwdata	00000030 nettasks
00825a4c g     F .text	00000020 pk_get_max_intrsafe_buf_len
0083bd3c g     F .text	0000026c iproute
008283dc g     F .text	000000e8 np_stripoptions
0084d7f8 g     O .bss	00000001 so_evtmap
0081a7c8 g     F .text	000000f4 altera_avalon_jtag_uart_ioctl
0080a1dc g     F .text	00000074 _fputs_r
008175b8 g     F .text	00000210 OSTimeDlyResume
00803484 g     F .text	000000c4 SSSCreateTasks
0083f7cc g     F .text	00000428 add_route
00811ffc g     F .text	00000154 OSFlagNameSet
0081e0d4 g     F .text	000000d0 c_older
0082de04 g     F .text	00000090 sbflush
00842a70 g     F .text	00000020 md_fclose
00821de8 g     F .text	0000002c tk_yield
00803748 g     F .text	000000c0 sss_handle_accept
00816c38 g     F .text	000001fc OSTaskStkChk
00835f70 g     F .text	000000a0 alt_ic_irq_disable
0082b518 g     F .text	00000608 sosend
0081d13c g     F .text	00000058 epcs_enter_4_bytes_mode
0084d52e g     O .rwdata	00000002 OSMemSize
0083b9d8 g     F .text	000000ac ip_mymach
0080d05c g     F .text	0000007c __swrite
0084d73c g     O .bss	00000004 cticks_initialized
0084d5fc g     O .rwdata	00000004 deflength
0082a3c8 g     F .text	0000022c t_sendto
0084d4e4 g     O .rwdata	00000004 __malloc_trim_threshold
00805514 g     F .text	0000006c _perror_r
00836ad0 g     F .text	00000020 altera_nios2_qsys_irq_init
0084d6b4 g     O .bss	00000004 OSTCBCur
0082ab04 g     F .text	000001cc socreate
00805060 g     F .text	00000038 exit
00857cb8 g     O .bss	00000100 arp_table
0084d830 g     O .bss	00000004 icmpdu_hook
0084d530 g     O .rwdata	00000002 OSMemTblSize
0080ab48 g     F .text	000000c8 _fwalk_reent
008384a0 g     F .text	00000024 create_apptasks
0084d5bc g     O .rwdata	00000004 tcp_ttl
0080befc g     F .text	0000018c __mdiff
0080e9b8 g     F .text	00000054 alt_flash_close_dev
00826ed8 g     F .text	0000004c ncpfree
0080e860 g     F .text	00000060 __modsi3
0084d6c8 g     O .bss	00000004 MaxLnh
008216c4 g     F .text	0000008c inet_ntop
00840b08 g     F .text	0000002c udp_maxalloc
01000000 g       *ABS*	00000000 __alt_data_end
00800020 g     F .exceptions	00000000 alt_exception
00809ebc g     F .text	00000004 __sfp_lock_release
0080fe14 g     F .text	00000054 OSInit
00817060 g     F .text	00000144 OSTaskQuery
00837bd8 g     F .text	00000088 icmp_port_du
0084d798 g     O .bss	00000004 tcp_iss
00814b6c g     F .text	000000ac OS_QInit
0084d5ac g     O .rwdata	00000004 bigbufsiz
00846a34 g     F .text	0000000c atoi
008110f0 g     F .text	00000058 OS_StrLen
0083378c g     F .text	00000080 tcp_putseq
00813508 g     F .text	00000120 OSMemNameSet
008486f8 g     O .rodata	00000101 _ctype_
008020e0 g     F .text	0000011c dm9ka_pkt_send
0082da14 g     F .text	00000208 sbappendaddr
0084d828 g     O .bss	00000004 vfs_total_rw_space
00841d54 g     F .text	00000140 ip_getmoptions
0084d54a g     O .rwdata	00000002 OSTaskProfileEn
00840848 g     F .text	00000130 udpswap
0084d6b8 g     O .bss	00000004 OSTime
0084d774 g     O .bss	00000004 nextslow
00833884 g     F .text	000002a0 tcp_slowtimo
0081c500 g     F .text	00000060 altera_avalon_uart_close
00833494 g     F .text	00000118 tcp_newtcpcb
0083955c g     F .text	000001d0 send_via_arp
008220ac g     F .text	000000bc dhc_init
0083d320 g     F .text	00000064 ip_reasm_find_ire
008558fc g     O .bss	00000800 OSTaskIdleStk
008451a8 g     F .text	00000064 isvfile_locked
0080cf4c g     F .text	00000030 __isnand
0080e910 g     F .text	0000002c _exit
008201dc g     F .text	000001e0 bsd_select
00835774 g     F .text	00000154 alt_alarm_start
00811eb8 g     F .text	00000144 OSFlagNameGet
00801e3c g     F .text	00000040 dm9Ka_isr_wrap
00840b34 g     F .text	00000040 udp_free
00825b18 g     F .text	000000c8 getq
0084531c g     F .text	00000024 prep_vfs
008177c8 g     F .text	00000064 OSTimeGet
0084d5f0 g     O .rwdata	00000004 name
0082e064 g     F .text	00000110 sbdropend
00804a34 g     F .text	00000098 __muldi3
0080ad8c g     F .text	00000194 __smakebuf_r
00818578 g     F .text	00000030 alt_write_native_32bit
0083972c g     F .text	000001ac cb_arpent_tmo
00806084 g     F .text	00000074 strlen
0084161c g     F .text	00000148 IPADDR_TO_NETP
0081ce2c g     F .text	00000050 epcs_write_enable
0082004c g     F .text	00000030 bsd_inet_ntoa
00836f10 g     F .text	0000001c OSTaskSwHook
00836368 g     F .text	00000188 open
00825da0 g     F .text	00000238 udp_open
008560fc g     O .bss	00000b40 OSEventTbl
0082d588 g     F .text	00000050 socantsendmore
0084d82c g     O .bss	00000004 vfs_total_dyna_files
00804740 g     F .text	00000088 __gedf2
00856c3c g     O .bss	00000510 OSTCBTbl
0084d7c8 g     O .bss	00000004 arpReqsOut
008156dc g     F .text	00000104 OSSemSet
0084d614 g     O .rwdata	00000004 http_root_path
00824298 g     F .text	000002bc dhc_extract_opts
0083c7fc g     F .text	00000590 ip_reasm_compute_overlap
00817d3c g     F .text	00000090 alt_flash_cfi_get_info
00805930 g     F .text	000000e0 strchr
0085753a g     O .bss	00000012 ipreturn
0084d7e8 g     O .bss	00000004 port_prep
0084d18b g     O .rwdata	0000000d tcp_backoff
0082cef0 g     F .text	0000006c soisconnecting
008021fc g     F .text	00000684 SSSInitialTask
0080a250 g     F .text	0000001c fputs
0084d4f4 g     O .rwdata	00000004 alt_priority_mask
00841108 g     F .text	0000024c igmpv2_process_query
0082e208 g     F .text	00000220 t_select
00814dec g     F .text	000002a0 OSSemDel
00835618 g     F .text	0000015c udp4_sockaddr
0084d6bc g     O .bss	00000004 OSFlagFreeList
008432e4 g     F .text	00000210 in_pcbconnect
0084d78c g     O .bss	00000004 dropline
0084d7e4 g     O .bss	00000004 ire_cticks
00835ed4 g     F .text	0000009c alt_ic_irq_enable
0084d510 g     O .rwdata	00000002 OSEventNameSize
00808004 g     F .text	00000024 __vfprintf_internal
00821150 g     F .text	00000088 tk_netmain
008434f4 g     F .text	00000060 in_pcbdisconnect
0084d6c0 g     O .bss	00000001 OSStatRdy
0085714c g     O .bss	00000054 OSTCBPrioTbl
0081c560 g     F .text	000002b0 altera_avalon_uart_read
0080f20c g     F .text	000000ac __env_lock
0084d556 g     O .rwdata	00000002 OSTaskSwHookEn
0084d364 g     O .rwdata	00000024 mdio
0081f8e0 g     F .text	00000138 bsd_accept
0084d5cc g     O .rwdata	00000004 tcp_recvspace
00804288 g     F .text	00000080 __subdf3
00834a08 g     F .text	0000004c tcpinit
0084d6e8 g     O .bss	00000004 igmp_all_rtrs_group
008288dc g     F .text	00000070 rawip_lookup
0081a064 g     F .text	00000098 alt_epcs_flash_read
00838544 g     F .text	000000b0 fcntl
0080b7dc g     F .text	000000c4 __lo0bits
0082dc1c g     F .text	000001e8 sbcompress
0084d5e8 g     O .rwdata	00000008 alt_alarm_list
008335ac g     F .text	000000ac tcp_drop
0084d51e g     O .rwdata	00000002 OSFlagWidth
00835d28 g     F .text	00000064 _do_ctors
00833b80 g     F .text	0000049c tcp_timers
0081e768 g     F .text	00000090 if_netnumber
00841e94 g     F .text	00000084 ip_freemoptions
0082ceac g     F .text	00000044 sohasoutofband
0082ef24 g     F .text	00002554 tcp_input
0081fa18 g     F .text	0000012c bsd_getpeername
0082007c g     F .text	00000160 bsd_recvfrom
0081d1ec g     F .text	00000054 close
0084d718 g     O .bss	00000004 dsc_bpreplys
00836fe4 g     F .text	00000068 alt_program_amd
0084d66c g     O .bss	00000004 alt_envsem
0084d6c4 g     O .bss	00000004 OSIdleCtrRun
008104b0 g     F .text	00000020 OSVersion
0084d568 g     O .rwdata	00000002 OSTmrCfgWheelSize
008171a4 g     F .text	0000007c OS_TaskStkClr
008438a8 g     F .text	00000028 set_vfopen_error
00804b4c g     F .text	00000314 __pack_d
0084d542 g     O .rwdata	00000002 OSTaskCreateEn
0084d168 g     O .rwdata	00000018 rawip_protosw
0082d660 g     F .text	00000068 sbwait
00810aa0 g     F .text	00000068 OS_EventWaitListInit
00824554 g     F .text	000008f0 dhc_second
0084d7b4 g     O .bss	00000004 port_1s_callout
00836fa8 g     F .text	0000001c OSTaskIdleHook
00846a5c g     F .text	00000014 free
00809ec0 g     F .text	00000004 __sinit_lock_acquire
0081cee0 g     F .text	00000170 epcs_write_buffer
0080c3f8 g     F .text	00000100 __multadd
00816e34 g     F .text	0000022c OSTaskSuspend
0080b744 g     F .text	00000028 _Bfree
0082d1a0 g     F .text	0000021c sonewconn
00845708 g     F .text	00000c34 icmprcv
00826fc4 g     F .text	000000d0 pffindproto
00811148 g     F .text	0000005c OS_TaskIdle
0084d56e g     O .rwdata	00000002 OSTmrTblSize
008149ec g     F .text	00000180 OSQQuery



Disassembly of section .exceptions:

00800020 <alt_exception>:
         * Process an exception.  For all exceptions we must preserve all
         * caller saved registers on the stack (See the Nios2 ABI
         * documentation for details).
         */

        addi  sp, sp, -76
  800020:	deffed04 	addi	sp,sp,-76

#endif

#endif

        stw   ra,  0(sp)
  800024:	dfc00015 	stw	ra,0(sp)
        /*
         * Leave a gap in the stack frame at 4(sp) for the muldiv handler to
         * store zero into.
         */

        stw   r1,   8(sp)
  800028:	d8400215 	stw	at,8(sp)
        stw   r2,  12(sp)
  80002c:	d8800315 	stw	r2,12(sp)
        stw   r3,  16(sp)
  800030:	d8c00415 	stw	r3,16(sp)
        stw   r4,  20(sp)
  800034:	d9000515 	stw	r4,20(sp)
        stw   r5,  24(sp)
  800038:	d9400615 	stw	r5,24(sp)
        stw   r6,  28(sp)
  80003c:	d9800715 	stw	r6,28(sp)
        stw   r7,  32(sp)
  800040:	d9c00815 	stw	r7,32(sp)

        rdctl r5, estatus
  800044:	000b307a 	rdctl	r5,estatus

        stw   r8,  36(sp)
  800048:	da000915 	stw	r8,36(sp)
        stw   r9,  40(sp)
  80004c:	da400a15 	stw	r9,40(sp)
        stw   r10, 44(sp)
  800050:	da800b15 	stw	r10,44(sp)
        stw   r11, 48(sp)
  800054:	dac00c15 	stw	r11,48(sp)
        stw   r12, 52(sp)
  800058:	db000d15 	stw	r12,52(sp)
        stw   r13, 56(sp)
  80005c:	db400e15 	stw	r13,56(sp)
        stw   r14, 60(sp)
  800060:	db800f15 	stw	r14,60(sp)
        stw   r15, 64(sp)
  800064:	dbc01015 	stw	r15,64(sp)
        /*
         * ea-4 contains the address of the instruction being executed
         * when the exception occured. For interrupt exceptions, we will
         * will be re-issue the isntruction. Store it in 72(sp)
         */
        stw   r5,  68(sp)  /* estatus */
  800068:	d9401115 	stw	r5,68(sp)
        addi  r15, ea, -4  /* instruction that caused exception */
  80006c:	ebffff04 	addi	r15,ea,-4
        stw   r15,  72(sp)
  800070:	dbc01215 	stw	r15,72(sp)
#else
        /*
         * Test to see if the exception was a software exception or caused 
         * by an external interrupt, and vector accordingly.
         */
        rdctl r4, ipending
  800074:	0009313a 	rdctl	r4,ipending
        andi  r2, r5, 1
  800078:	2880004c 	andi	r2,r5,1
        beq   r2, zero, .Lnot_irq
  80007c:	10000326 	beq	r2,zero,80008c <alt_exception+0x6c>
        beq   r4, zero, .Lnot_irq
  800080:	20000226 	beq	r4,zero,80008c <alt_exception+0x6c>
        /*
         * Now that all necessary registers have been preserved, call 
         * alt_irq_handler() to process the interrupts.
         */

        call alt_irq_handler
  800084:	08000ec0 	call	8000ec <alt_irq_handler>

        .section .exceptions.irqreturn, "xa"

        br    .Lexception_exit
  800088:	00000306 	br	800098 <alt_exception+0x78>
         * upon completion, so we write ea (address of instruction *after*
         * the one where the exception occured) into 72(sp). The actual
         * instruction that caused the exception is written in r2, which these
         * handlers will utilize.
         */
        stw   ea,  72(sp)  /* Don't re-issue */
  80008c:	df401215 	stw	ea,72(sp)
        ldw   r2, -4(ea)   /* Instruction that caused exception */
  800090:	e8bfff17 	ldw	r2,-4(ea)
#ifdef NIOS2_HAS_DEBUG_STUB
       /*
        *  Either tell the user now (if there is a debugger attached) or go into
        *  the debug monitor which will loop until a debugger is attached.
        */
        break
  800094:	003da03a 	break	0
        /* 
         * Restore the saved registers, so that all general purpose registers 
         * have been restored to their state at the time the interrupt occured.
         */

        ldw   r5,  68(sp)
  800098:	d9401117 	ldw	r5,68(sp)
        ldw   ea,  72(sp)  /* This becomes the PC once eret is executed */
  80009c:	df401217 	ldw	ea,72(sp)
        ldw   ra,   0(sp)
  8000a0:	dfc00017 	ldw	ra,0(sp)

        wrctl estatus, r5
  8000a4:	2801707a 	wrctl	estatus,r5

        ldw   r1,   8(sp)
  8000a8:	d8400217 	ldw	at,8(sp)
        ldw   r2,  12(sp)
  8000ac:	d8800317 	ldw	r2,12(sp)
        ldw   r3,  16(sp)
  8000b0:	d8c00417 	ldw	r3,16(sp)
        ldw   r4,  20(sp)
  8000b4:	d9000517 	ldw	r4,20(sp)
        ldw   r5,  24(sp)
  8000b8:	d9400617 	ldw	r5,24(sp)
        ldw   r6,  28(sp)
  8000bc:	d9800717 	ldw	r6,28(sp)
        ldw   r7,  32(sp)
  8000c0:	d9c00817 	ldw	r7,32(sp)
#ifdef ALT_STACK_CHECK
        ldw   et, %gprel(alt_exception_old_stack_limit)(gp)
#endif
#endif

        ldw   r8,  36(sp)
  8000c4:	da000917 	ldw	r8,36(sp)
        ldw   r9,  40(sp)
  8000c8:	da400a17 	ldw	r9,40(sp)
        ldw   r10, 44(sp)
  8000cc:	da800b17 	ldw	r10,44(sp)
        ldw   r11, 48(sp)
  8000d0:	dac00c17 	ldw	r11,48(sp)
        ldw   r12, 52(sp)
  8000d4:	db000d17 	ldw	r12,52(sp)
        ldw   r13, 56(sp)
  8000d8:	db400e17 	ldw	r13,56(sp)
        ldw   r14, 60(sp)
  8000dc:	db800f17 	ldw	r14,60(sp)
        ldw   r15, 64(sp)
  8000e0:	dbc01017 	ldw	r15,64(sp)
#endif

        ldw   sp,  76(sp)

#else
        addi  sp, sp, 76
  8000e4:	dec01304 	addi	sp,sp,76

        /*
         * Return to the interrupted instruction.
         */

        eret
  8000e8:	ef80083a 	eret

008000ec <alt_irq_handler>:
 * instruction is present if the macro ALT_CI_INTERRUPT_VECTOR defined.
 */

void alt_irq_handler (void) __attribute__ ((section (".exceptions")));
void alt_irq_handler (void)
{
  8000ec:	defff904 	addi	sp,sp,-28
  8000f0:	dfc00615 	stw	ra,24(sp)
  8000f4:	df000515 	stw	fp,20(sp)
  8000f8:	df000504 	addi	fp,sp,20
  
  /*
   * Notify the operating system that we are at interrupt level.
   */ 
  
  ALT_OS_INT_ENTER();
  8000fc:	080fe680 	call	80fe68 <OSIntEnter>
#ifndef NIOS2_EIC_PRESENT
static ALT_INLINE alt_u32 ALT_ALWAYS_INLINE alt_irq_pending (void)
{
  alt_u32 active;

  NIOS2_READ_IPENDING (active);
  800100:	0005313a 	rdctl	r2,ipending
  800104:	e0bffc15 	stw	r2,-16(fp)

  return active;
  800108:	e0bffc17 	ldw	r2,-16(fp)
   * Consider the case where the high priority interupt is asserted during
   * the interrupt entry sequence for a lower priority interrupt to see why
   * this is the case.
   */

  active = alt_irq_pending ();
  80010c:	e0bfff15 	stw	r2,-4(fp)

  do
  {
    i = 0;
  800110:	e03ffd15 	stw	zero,-12(fp)
    mask = 1;
  800114:	00800044 	movi	r2,1
  800118:	e0bffe15 	stw	r2,-8(fp)
     * called to clear the interrupt condition.
     */

    do
    {
      if (active & mask)
  80011c:	e0ffff17 	ldw	r3,-4(fp)
  800120:	e0bffe17 	ldw	r2,-8(fp)
  800124:	1884703a 	and	r2,r3,r2
  800128:	1005003a 	cmpeq	r2,r2,zero
  80012c:	1000161e 	bne	r2,zero,800188 <alt_irq_handler+0x9c>
      { 
#ifdef ALT_ENHANCED_INTERRUPT_API_PRESENT
        alt_irq[i].handler(alt_irq[i].context); 
  800130:	e0bffd17 	ldw	r2,-12(fp)
  800134:	00c02174 	movhi	r3,133
  800138:	18ded504 	addi	r3,r3,31572
  80013c:	100490fa 	slli	r2,r2,3
  800140:	10c5883a 	add	r2,r2,r3
  800144:	11400017 	ldw	r5,0(r2)
  800148:	e0bffd17 	ldw	r2,-12(fp)
  80014c:	00c02174 	movhi	r3,133
  800150:	18ded504 	addi	r3,r3,31572
  800154:	100490fa 	slli	r2,r2,3
  800158:	10c5883a 	add	r2,r2,r3
  80015c:	10800104 	addi	r2,r2,4
  800160:	11000017 	ldw	r4,0(r2)
  800164:	283ee83a 	callr	r5
#ifndef NIOS2_EIC_PRESENT
static ALT_INLINE alt_u32 ALT_ALWAYS_INLINE alt_irq_pending (void)
{
  alt_u32 active;

  NIOS2_READ_IPENDING (active);
  800168:	0005313a 	rdctl	r2,ipending
  80016c:	e0bffb15 	stw	r2,-20(fp)

  return active;
  800170:	e0bffb17 	ldw	r2,-20(fp)
      mask <<= 1;
      i++;

    } while (1);

    active = alt_irq_pending ();
  800174:	e0bfff15 	stw	r2,-4(fp)
    
  } while (active);
  800178:	e0bfff17 	ldw	r2,-4(fp)
  80017c:	1004c03a 	cmpne	r2,r2,zero
  800180:	103fe31e 	bne	r2,zero,800110 <alt_irq_handler+0x24>
  800184:	00000706 	br	8001a4 <alt_irq_handler+0xb8>
#else
        alt_irq[i].handler(alt_irq[i].context, i); 
#endif
        break;
      }
      mask <<= 1;
  800188:	e0bffe17 	ldw	r2,-8(fp)
  80018c:	1085883a 	add	r2,r2,r2
  800190:	e0bffe15 	stw	r2,-8(fp)
      i++;
  800194:	e0bffd17 	ldw	r2,-12(fp)
  800198:	10800044 	addi	r2,r2,1
  80019c:	e0bffd15 	stw	r2,-12(fp)

    } while (1);
  8001a0:	003fde06 	br	80011c <alt_irq_handler+0x30>

  /*
   * Notify the operating system that interrupt processing is complete.
   */ 

  ALT_OS_INT_EXIT();
  8001a4:	080fee40 	call	80fee4 <OSIntExit>
}
  8001a8:	e037883a 	mov	sp,fp
  8001ac:	dfc00117 	ldw	ra,4(sp)
  8001b0:	df000017 	ldw	fp,0(sp)
  8001b4:	dec00204 	addi	sp,sp,8
  8001b8:	f800283a 	ret

Disassembly of section .text:

008001bc <_start>:

    /* Assume the data cache size is always a power of two. */
#if NIOS2_DCACHE_SIZE > 0x8000
    movhi r2, %hi(NIOS2_DCACHE_SIZE)
#else
    movui r2, NIOS2_DCACHE_SIZE
  8001bc:	00820014 	movui	r2,2048
#endif

0:
    initd 0(r2)
  8001c0:	10000033 	initd	0(r2)
    addi r2, r2, -NIOS2_DCACHE_LINE_SIZE
  8001c4:	10bfff04 	addi	r2,r2,-4
    bgt r2, zero, 0b
  8001c8:	00bffd16 	blt	zero,r2,8001c0 <_start+0x4>
#if (NIOS2_NUM_OF_SHADOW_REG_SETS == 0)    
    /*
     * Now that the caches are initialized, set up the stack pointer.
     * The value provided by the linker is assumed to be correctly aligned.
     */
    movhi sp, %hi(__alt_stack_pointer)
  8001cc:	06c04034 	movhi	sp,256
    ori sp, sp, %lo(__alt_stack_pointer)
  8001d0:	dec00014 	ori	sp,sp,0

    /* Set up the global pointer. */
    movhi gp, %hi(_gp)
  8001d4:	06802174 	movhi	gp,133
    ori gp, gp, %lo(_gp)
  8001d8:	d6953414 	ori	gp,gp,21712
 */
#ifndef ALT_SIM_OPTIMIZE
    /* Log that the BSS is about to be cleared. */
    ALT_LOG_PUTS(alt_log_msg_bss)

    movhi r2, %hi(__bss_start)
  8001dc:	00802134 	movhi	r2,132
    ori r2, r2, %lo(__bss_start)
  8001e0:	10b58614 	ori	r2,r2,54808

    movhi r3, %hi(__bss_end)
  8001e4:	00c02174 	movhi	r3,133
    ori r3, r3, %lo(__bss_end)
  8001e8:	18e00f14 	ori	r3,r3,32828

    beq r2, r3, 1f
  8001ec:	10c00326 	beq	r2,r3,8001fc <_start+0x40>

0:
    stw zero, (r2)
  8001f0:	10000015 	stw	zero,0(r2)
    addi r2, r2, 4
  8001f4:	10800104 	addi	r2,r2,4
    bltu r2, r3, 0b
  8001f8:	10fffd36 	bltu	r2,r3,8001f0 <_start+0x34>

    /* Log that alt_main is about to be called. */
    ALT_LOG_PUTS(alt_log_msg_alt_main)

    /* Call the C entry point. It should never return. */
    call alt_main
  8001fc:	080ef700 	call	80ef70 <alt_main>

00800200 <alt_after_alt_main>:

    /* Wait in infinite loop in case alt_main does return. */
alt_after_alt_main:
    br alt_after_alt_main
  800200:	003fff06 	br	800200 <alt_after_alt_main>

00800204 <LCD_Init>:
#include <io.h>
#include "system.h"
#include "LCD.h"
//-------------------------------------------------------------------------
void LCD_Init()
{
  800204:	defffe04 	addi	sp,sp,-8
  800208:	dfc00115 	stw	ra,4(sp)
  80020c:	df000015 	stw	fp,0(sp)
  800210:	d839883a 	mov	fp,sp
  lcd_write_cmd(LCD_16207_0_BASE,0x38);
  800214:	00c06a34 	movhi	r3,424
  800218:	18c81804 	addi	r3,r3,8288
  80021c:	00800e04 	movi	r2,56
  800220:	18800035 	stwio	r2,0(r3)
  usleep(2000);
  800224:	0101f404 	movi	r4,2000
  800228:	080f0f40 	call	80f0f4 <usleep>
  lcd_write_cmd(LCD_16207_0_BASE,0x0C);
  80022c:	00c06a34 	movhi	r3,424
  800230:	18c81804 	addi	r3,r3,8288
  800234:	00800304 	movi	r2,12
  800238:	18800035 	stwio	r2,0(r3)
  usleep(2000);
  80023c:	0101f404 	movi	r4,2000
  800240:	080f0f40 	call	80f0f4 <usleep>
  lcd_write_cmd(LCD_16207_0_BASE,0x01);
  800244:	00c06a34 	movhi	r3,424
  800248:	18c81804 	addi	r3,r3,8288
  80024c:	00800044 	movi	r2,1
  800250:	18800035 	stwio	r2,0(r3)
  usleep(2000);
  800254:	0101f404 	movi	r4,2000
  800258:	080f0f40 	call	80f0f4 <usleep>
  lcd_write_cmd(LCD_16207_0_BASE,0x06);
  80025c:	00c06a34 	movhi	r3,424
  800260:	18c81804 	addi	r3,r3,8288
  800264:	00800184 	movi	r2,6
  800268:	18800035 	stwio	r2,0(r3)
  usleep(2000);
  80026c:	0101f404 	movi	r4,2000
  800270:	080f0f40 	call	80f0f4 <usleep>
  lcd_write_cmd(LCD_16207_0_BASE,0x80);
  800274:	00c06a34 	movhi	r3,424
  800278:	18c81804 	addi	r3,r3,8288
  80027c:	00802004 	movi	r2,128
  800280:	18800035 	stwio	r2,0(r3)
  usleep(2000);
  800284:	0101f404 	movi	r4,2000
  800288:	080f0f40 	call	80f0f4 <usleep>
}
  80028c:	e037883a 	mov	sp,fp
  800290:	dfc00117 	ldw	ra,4(sp)
  800294:	df000017 	ldw	fp,0(sp)
  800298:	dec00204 	addi	sp,sp,8
  80029c:	f800283a 	ret

008002a0 <LCD_Show_Text>:
//-------------------------------------------------------------------------
void LCD_Show_Text(char* Text)
{
  8002a0:	defffb04 	addi	sp,sp,-20
  8002a4:	dfc00415 	stw	ra,16(sp)
  8002a8:	df000315 	stw	fp,12(sp)
  8002ac:	dc000215 	stw	r16,8(sp)
  8002b0:	df000204 	addi	fp,sp,8
  8002b4:	e13fff15 	stw	r4,-4(fp)
  int i;
  for(i=0;i<strlen(Text);i++)
  8002b8:	e03ffe15 	stw	zero,-8(fp)
  8002bc:	00001006 	br	800300 <LCD_Show_Text+0x60>
  {
    lcd_write_data(LCD_16207_0_BASE,Text[i]);
  8002c0:	e0bffe17 	ldw	r2,-8(fp)
  8002c4:	1007883a 	mov	r3,r2
  8002c8:	e0bfff17 	ldw	r2,-4(fp)
  8002cc:	1885883a 	add	r2,r3,r2
  8002d0:	10800003 	ldbu	r2,0(r2)
  8002d4:	10c03fcc 	andi	r3,r2,255
  8002d8:	18c0201c 	xori	r3,r3,128
  8002dc:	18ffe004 	addi	r3,r3,-128
  8002e0:	00806a34 	movhi	r2,424
  8002e4:	10881a04 	addi	r2,r2,8296
  8002e8:	10c00035 	stwio	r3,0(r2)
    usleep(2000);
  8002ec:	0101f404 	movi	r4,2000
  8002f0:	080f0f40 	call	80f0f4 <usleep>
}
//-------------------------------------------------------------------------
void LCD_Show_Text(char* Text)
{
  int i;
  for(i=0;i<strlen(Text);i++)
  8002f4:	e0bffe17 	ldw	r2,-8(fp)
  8002f8:	10800044 	addi	r2,r2,1
  8002fc:	e0bffe15 	stw	r2,-8(fp)
  800300:	e43ffe17 	ldw	r16,-8(fp)
  800304:	e13fff17 	ldw	r4,-4(fp)
  800308:	08060840 	call	806084 <strlen>
  80030c:	80bfec36 	bltu	r16,r2,8002c0 <LCD_Show_Text+0x20>
  {
    lcd_write_data(LCD_16207_0_BASE,Text[i]);
    usleep(2000);
  }
}
  800310:	e037883a 	mov	sp,fp
  800314:	dfc00217 	ldw	ra,8(sp)
  800318:	df000117 	ldw	fp,4(sp)
  80031c:	dc000017 	ldw	r16,0(sp)
  800320:	dec00304 	addi	sp,sp,12
  800324:	f800283a 	ret

00800328 <LCD_Line2>:
//-------------------------------------------------------------------------
void LCD_Line2()
{
  800328:	defffe04 	addi	sp,sp,-8
  80032c:	dfc00115 	stw	ra,4(sp)
  800330:	df000015 	stw	fp,0(sp)
  800334:	d839883a 	mov	fp,sp
  lcd_write_cmd(LCD_16207_0_BASE,0xC0);
  800338:	00c06a34 	movhi	r3,424
  80033c:	18c81804 	addi	r3,r3,8288
  800340:	00803004 	movi	r2,192
  800344:	18800035 	stwio	r2,0(r3)
  usleep(2000);
  800348:	0101f404 	movi	r4,2000
  80034c:	080f0f40 	call	80f0f4 <usleep>
}
  800350:	e037883a 	mov	sp,fp
  800354:	dfc00117 	ldw	ra,4(sp)
  800358:	df000017 	ldw	fp,0(sp)
  80035c:	dec00204 	addi	sp,sp,8
  800360:	f800283a 	ret

00800364 <LCD_Line1>:

void LCD_Line1()
{
  800364:	defffe04 	addi	sp,sp,-8
  800368:	dfc00115 	stw	ra,4(sp)
  80036c:	df000015 	stw	fp,0(sp)
  800370:	d839883a 	mov	fp,sp
  lcd_write_cmd(LCD_16207_0_BASE,0x80);
  800374:	00c06a34 	movhi	r3,424
  800378:	18c81804 	addi	r3,r3,8288
  80037c:	00802004 	movi	r2,128
  800380:	18800035 	stwio	r2,0(r3)
  usleep(2000);
  800384:	0101f404 	movi	r4,2000
  800388:	080f0f40 	call	80f0f4 <usleep>
}
  80038c:	e037883a 	mov	sp,fp
  800390:	dfc00117 	ldw	ra,4(sp)
  800394:	df000017 	ldw	fp,0(sp)
  800398:	dec00204 	addi	sp,sp,8
  80039c:	f800283a 	ret

008003a0 <LCD_Clear>:

void LCD_Clear()
{
  8003a0:	defffe04 	addi	sp,sp,-8
  8003a4:	dfc00115 	stw	ra,4(sp)
  8003a8:	df000015 	stw	fp,0(sp)
  8003ac:	d839883a 	mov	fp,sp
  lcd_write_cmd(LCD_16207_0_BASE,0x01);
  8003b0:	00c06a34 	movhi	r3,424
  8003b4:	18c81804 	addi	r3,r3,8288
  8003b8:	00800044 	movi	r2,1
  8003bc:	18800035 	stwio	r2,0(r3)
  usleep(2000);
  8003c0:	0101f404 	movi	r4,2000
  8003c4:	080f0f40 	call	80f0f4 <usleep>
}
  8003c8:	e037883a 	mov	sp,fp
  8003cc:	dfc00117 	ldw	ra,4(sp)
  8003d0:	df000017 	ldw	fp,0(sp)
  8003d4:	dec00204 	addi	sp,sp,8
  8003d8:	f800283a 	ret

008003dc <LCD_Test>:
//-------------------------------------------------------------------------
void LCD_Test()
{
  8003dc:	deffe804 	addi	sp,sp,-96
  8003e0:	dfc01715 	stw	ra,92(sp)
  8003e4:	df001615 	stw	fp,88(sp)
  8003e8:	df001604 	addi	fp,sp,88
  char Frase[54] = "Esse e o teste de uma fraseEsse e o teste de uma frase";
  8003ec:	00c02134 	movhi	r3,132
  8003f0:	18dc9304 	addi	r3,r3,29260
  8003f4:	18800017 	ldw	r2,0(r3)
  8003f8:	e0bfea15 	stw	r2,-88(fp)
  8003fc:	18800117 	ldw	r2,4(r3)
  800400:	e0bfeb15 	stw	r2,-84(fp)
  800404:	18800217 	ldw	r2,8(r3)
  800408:	e0bfec15 	stw	r2,-80(fp)
  80040c:	18800317 	ldw	r2,12(r3)
  800410:	e0bfed15 	stw	r2,-76(fp)
  800414:	18800417 	ldw	r2,16(r3)
  800418:	e0bfee15 	stw	r2,-72(fp)
  80041c:	18800517 	ldw	r2,20(r3)
  800420:	e0bfef15 	stw	r2,-68(fp)
  800424:	18800617 	ldw	r2,24(r3)
  800428:	e0bff015 	stw	r2,-64(fp)
  80042c:	18800717 	ldw	r2,28(r3)
  800430:	e0bff115 	stw	r2,-60(fp)
  800434:	18800817 	ldw	r2,32(r3)
  800438:	e0bff215 	stw	r2,-56(fp)
  80043c:	18800917 	ldw	r2,36(r3)
  800440:	e0bff315 	stw	r2,-52(fp)
  800444:	18800a17 	ldw	r2,40(r3)
  800448:	e0bff415 	stw	r2,-48(fp)
  80044c:	18800b17 	ldw	r2,44(r3)
  800450:	e0bff515 	stw	r2,-44(fp)
  800454:	18800c17 	ldw	r2,48(r3)
  800458:	e0bff615 	stw	r2,-40(fp)
  80045c:	18800d0b 	ldhu	r2,52(r3)
  800460:	e0bff70d 	sth	r2,-36(fp)
  char Text1[16] = "Placa de logica ";
  800464:	00c02134 	movhi	r3,132
  800468:	18dca104 	addi	r3,r3,29316
  80046c:	1880000b 	ldhu	r2,0(r3)
  800470:	e0bff78d 	sth	r2,-34(fp)
  800474:	1880008b 	ldhu	r2,2(r3)
  800478:	e0bff80d 	sth	r2,-32(fp)
  80047c:	1880010b 	ldhu	r2,4(r3)
  800480:	e0bff88d 	sth	r2,-30(fp)
  800484:	1880018b 	ldhu	r2,6(r3)
  800488:	e0bff90d 	sth	r2,-28(fp)
  80048c:	1880020b 	ldhu	r2,8(r3)
  800490:	e0bff98d 	sth	r2,-26(fp)
  800494:	1880028b 	ldhu	r2,10(r3)
  800498:	e0bffa0d 	sth	r2,-24(fp)
  80049c:	1880030b 	ldhu	r2,12(r3)
  8004a0:	e0bffa8d 	sth	r2,-22(fp)
  8004a4:	1880038b 	ldhu	r2,14(r3)
  8004a8:	e0bffb0d 	sth	r2,-20(fp)
  char Text2[16] = "Ta trocando essa";
  8004ac:	00c02134 	movhi	r3,132
  8004b0:	18dca604 	addi	r3,r3,29336
  8004b4:	1880000b 	ldhu	r2,0(r3)
  8004b8:	e0bffb8d 	sth	r2,-18(fp)
  8004bc:	1880008b 	ldhu	r2,2(r3)
  8004c0:	e0bffc0d 	sth	r2,-16(fp)
  8004c4:	1880010b 	ldhu	r2,4(r3)
  8004c8:	e0bffc8d 	sth	r2,-14(fp)
  8004cc:	1880018b 	ldhu	r2,6(r3)
  8004d0:	e0bffd0d 	sth	r2,-12(fp)
  8004d4:	1880020b 	ldhu	r2,8(r3)
  8004d8:	e0bffd8d 	sth	r2,-10(fp)
  8004dc:	1880028b 	ldhu	r2,10(r3)
  8004e0:	e0bffe0d 	sth	r2,-8(fp)
  8004e4:	1880030b 	ldhu	r2,12(r3)
  8004e8:	e0bffe8d 	sth	r2,-6(fp)
  8004ec:	1880038b 	ldhu	r2,14(r3)
  8004f0:	e0bfff0d 	sth	r2,-4(fp)
  //  Initial LCD
  LCD_Init();
  8004f4:	08002040 	call	800204 <LCD_Init>
  //  Show Text to LCD
  LCD_Show_Text(Text1);
  8004f8:	e13ff784 	addi	r4,fp,-34
  8004fc:	08002a00 	call	8002a0 <LCD_Show_Text>
  //  Change Line2
  LCD_Line2();
  800500:	08003280 	call	800328 <LCD_Line2>
  //  Show Text to LCD
  LCD_Show_Text(Text2);
  800504:	e13ffb84 	addi	r4,fp,-18
  800508:	08002a00 	call	8002a0 <LCD_Show_Text>
}
  80050c:	e037883a 	mov	sp,fp
  800510:	dfc00117 	ldw	ra,4(sp)
  800514:	df000017 	ldw	fp,0(sp)
  800518:	dec00204 	addi	sp,sp,8
  80051c:	f800283a 	ret

00800520 <get_DE2_115_mac_addr>:
 * This custom function is created from code taken from DE2-115 web server example file network_utilities.c
 * This function retrieves the DE2-115 mac address and requires the "FindLastFlashSectorOffset" function.
 *
==============================================================================*/
error_t get_DE2_115_mac_addr(unsigned char mac_addr[6])
{
  800520:	defff804 	addi	sp,sp,-32
  800524:	dfc00715 	stw	ra,28(sp)
  800528:	df000615 	stw	fp,24(sp)
  80052c:	df000604 	addi	fp,sp,24
  800530:	e13fff15 	stw	r4,-4(fp)
  error_t error = 0;
  800534:	e03ffe15 	stw	zero,-8(fp)
  alt_u32 signature;

  /* Get the flash sector with the MAC address. */
  error = FindLastFlashSectorOffset(&last_flash_sector_offset);
  800538:	d1205204 	addi	r4,gp,-32440
  80053c:	08006c80 	call	8006c8 <FindLastFlashSectorOffset>
  800540:	e0bffe15 	stw	r2,-8(fp)
  if (!error)
  800544:	e0bffe17 	ldw	r2,-8(fp)
  800548:	1004c03a 	cmpne	r2,r2,zero
  80054c:	1000051e 	bne	r2,zero,800564 <get_DE2_115_mac_addr+0x44>
    last_flash_sector = CFI_FLASH_0_BASE + last_flash_sector_offset;
  800550:	d0a05217 	ldw	r2,-32440(gp)
  800554:	00c05034 	movhi	r3,320
  800558:	10c5883a 	add	r2,r2,r3
  80055c:	d0a05315 	stw	r2,-32436(gp)
  800560:	00000306 	br	800570 <get_DE2_115_mac_addr+0x50>
  else
    printf ("Could not locate flash sector with MAC address.\n");
  800564:	01002134 	movhi	r4,132
  800568:	211cab04 	addi	r4,r4,29356
  80056c:	08058bc0 	call	8058bc <puts>
 * valid network settings are present, indicated by a signature of 0x00005afe at
 * the first address of the last flash sector.  This hex value is chosen as the
 * signature since it looks like the english word "SAFE", meaning that it is
 * safe to use these network address values.
*/
  if (!error)
  800570:	e0bffe17 	ldw	r2,-8(fp)
  800574:	1004c03a 	cmpne	r2,r2,zero
  800578:	1000091e 	bne	r2,zero,8005a0 <get_DE2_115_mac_addr+0x80>
  {
    signature = IORD_32DIRECT(last_flash_sector, 0);
  80057c:	d0a05317 	ldw	r2,-32436(gp)
  800580:	10800037 	ldwio	r2,0(r2)
  800584:	e0bffd15 	stw	r2,-12(fp)
    if (signature != 0x00005afe)
  800588:	e0bffd17 	ldw	r2,-12(fp)
  80058c:	1096bfa0 	cmpeqi	r2,r2,23294
  800590:	1000031e 	bne	r2,zero,8005a0 <get_DE2_115_mac_addr+0x80>
    {
    	printf ("zzAG:Flash doesn't spell safe.\n");
  800594:	01002134 	movhi	r4,132
  800598:	211cb704 	addi	r4,r4,29404
  80059c:	08058bc0 	call	8058bc <puts>
    	// error = generate_and_store_mac_addr();
    }
  }

  if (!error)
  8005a0:	e0bffe17 	ldw	r2,-8(fp)
  8005a4:	1004c03a 	cmpne	r2,r2,zero
  8005a8:	1000411e 	bne	r2,zero,8006b0 <get_DE2_115_mac_addr+0x190>
  {
    mac_addr[0] = IORD_8DIRECT(last_flash_sector, 4);
  8005ac:	d0a05317 	ldw	r2,-32436(gp)
  8005b0:	10800104 	addi	r2,r2,4
  8005b4:	10800023 	ldbuio	r2,0(r2)
  8005b8:	1007883a 	mov	r3,r2
  8005bc:	e0bfff17 	ldw	r2,-4(fp)
  8005c0:	10c00005 	stb	r3,0(r2)
    mac_addr[1] = IORD_8DIRECT(last_flash_sector, 5);
  8005c4:	e0bfff17 	ldw	r2,-4(fp)
  8005c8:	10c00044 	addi	r3,r2,1
  8005cc:	d0a05317 	ldw	r2,-32436(gp)
  8005d0:	10800144 	addi	r2,r2,5
  8005d4:	10800023 	ldbuio	r2,0(r2)
  8005d8:	18800005 	stb	r2,0(r3)
    mac_addr[2] = IORD_8DIRECT(last_flash_sector, 6);
  8005dc:	e0bfff17 	ldw	r2,-4(fp)
  8005e0:	10c00084 	addi	r3,r2,2
  8005e4:	d0a05317 	ldw	r2,-32436(gp)
  8005e8:	10800184 	addi	r2,r2,6
  8005ec:	10800023 	ldbuio	r2,0(r2)
  8005f0:	18800005 	stb	r2,0(r3)
    mac_addr[3] = IORD_8DIRECT(last_flash_sector, 7);
  8005f4:	e0bfff17 	ldw	r2,-4(fp)
  8005f8:	10c000c4 	addi	r3,r2,3
  8005fc:	d0a05317 	ldw	r2,-32436(gp)
  800600:	108001c4 	addi	r2,r2,7
  800604:	10800023 	ldbuio	r2,0(r2)
  800608:	18800005 	stb	r2,0(r3)
    mac_addr[4] = IORD_8DIRECT(last_flash_sector, 8);
  80060c:	e0bfff17 	ldw	r2,-4(fp)
  800610:	10c00104 	addi	r3,r2,4
  800614:	d0a05317 	ldw	r2,-32436(gp)
  800618:	10800204 	addi	r2,r2,8
  80061c:	10800023 	ldbuio	r2,0(r2)
  800620:	18800005 	stb	r2,0(r3)
    mac_addr[5] = IORD_8DIRECT(last_flash_sector, 9);
  800624:	e0bfff17 	ldw	r2,-4(fp)
  800628:	10c00144 	addi	r3,r2,5
  80062c:	d0a05317 	ldw	r2,-32436(gp)
  800630:	10800244 	addi	r2,r2,9
  800634:	10800023 	ldbuio	r2,0(r2)
  800638:	18800005 	stb	r2,0(r3)

    printf("Your DE2-115 Ethernet MAC address is %02x:%02x:%02x:%02x:%02x:%02x\n",
  80063c:	e0bfff17 	ldw	r2,-4(fp)
  800640:	10800003 	ldbu	r2,0(r2)
  800644:	11403fcc 	andi	r5,r2,255
  800648:	e0bfff17 	ldw	r2,-4(fp)
  80064c:	10800044 	addi	r2,r2,1
  800650:	10800003 	ldbu	r2,0(r2)
  800654:	11803fcc 	andi	r6,r2,255
  800658:	e0bfff17 	ldw	r2,-4(fp)
  80065c:	10800084 	addi	r2,r2,2
  800660:	10800003 	ldbu	r2,0(r2)
  800664:	11c03fcc 	andi	r7,r2,255
  800668:	e0bfff17 	ldw	r2,-4(fp)
  80066c:	108000c4 	addi	r2,r2,3
  800670:	10800003 	ldbu	r2,0(r2)
  800674:	10c03fcc 	andi	r3,r2,255
  800678:	e0bfff17 	ldw	r2,-4(fp)
  80067c:	10800104 	addi	r2,r2,4
  800680:	10800003 	ldbu	r2,0(r2)
  800684:	11003fcc 	andi	r4,r2,255
  800688:	e0bfff17 	ldw	r2,-4(fp)
  80068c:	10800144 	addi	r2,r2,5
  800690:	10800003 	ldbu	r2,0(r2)
  800694:	10803fcc 	andi	r2,r2,255
  800698:	d8c00015 	stw	r3,0(sp)
  80069c:	d9000115 	stw	r4,4(sp)
  8006a0:	d8800215 	stw	r2,8(sp)
  8006a4:	01002134 	movhi	r4,132
  8006a8:	211cbf04 	addi	r4,r4,29436
  8006ac:	08055940 	call	805594 <printf>
            mac_addr[4],
            mac_addr[5]);

  }

  return error;
  8006b0:	e0bffe17 	ldw	r2,-8(fp)
}
  8006b4:	e037883a 	mov	sp,fp
  8006b8:	dfc00117 	ldw	ra,4(sp)
  8006bc:	df000017 	ldw	fp,0(sp)
  8006c0:	dec00204 	addi	sp,sp,8
  8006c4:	f800283a 	ret

008006c8 <FindLastFlashSectorOffset>:
 *
 *   This function finds the offset to the last sector in flash and returns it
 * in pLastFlashSectorOffset.
 */
int FindLastFlashSectorOffset(alt_u32 *pLastFlashSectorOffset)
{
  8006c8:	defff304 	addi	sp,sp,-52
  8006cc:	dfc00c15 	stw	ra,48(sp)
  8006d0:	df000b15 	stw	fp,44(sp)
  8006d4:	df000b04 	addi	fp,sp,44
  8006d8:	e13fff15 	stw	r4,-4(fp)
    flash_region                *regions;
    int                         numRegions;
    flash_region                *pLastRegion;
    int                         lastFlashSectorOffset;
    int                         n;
    int                         error = 0;
  8006dc:	e03ff815 	stw	zero,-32(fp)

    /* Open the flash device. */
    fd = alt_flash_open_dev(CFI_FLASH_0_NAME);
  8006e0:	01002134 	movhi	r4,132
  8006e4:	211cd004 	addi	r4,r4,29504
  8006e8:	080e93c0 	call	80e93c <alt_flash_open_dev>
  8006ec:	e0bffc15 	stw	r2,-16(fp)
    if (fd <= 0)
  8006f0:	e0bffc17 	ldw	r2,-16(fp)
  8006f4:	1004c03a 	cmpne	r2,r2,zero
  8006f8:	1000021e 	bne	r2,zero,800704 <FindLastFlashSectorOffset+0x3c>
        error = -1;
  8006fc:	00bfffc4 	movi	r2,-1
  800700:	e0bff815 	stw	r2,-32(fp)

    /* Get the flash info. */
    if (!error)
  800704:	e0bff817 	ldw	r2,-32(fp)
  800708:	1004c03a 	cmpne	r2,r2,zero
  80070c:	10000d1e 	bne	r2,zero,800744 <FindLastFlashSectorOffset+0x7c>
  800710:	e0bffc17 	ldw	r2,-16(fp)
  800714:	e0bff515 	stw	r2,-44(fp)
  800718:	e0bffd04 	addi	r2,fp,-12
  80071c:	e0bff615 	stw	r2,-40(fp)
  800720:	e0bffe04 	addi	r2,fp,-8
  800724:	e0bff715 	stw	r2,-36(fp)
 */
static __inline__ int __attribute__ ((always_inline)) alt_get_flash_info( 
                                      alt_flash_fd* fd, flash_region** info, 
                                      int* number_of_regions)
{
  return fd->get_info( fd, info, number_of_regions);
  800728:	e0bff517 	ldw	r2,-44(fp)
  80072c:	10800717 	ldw	r2,28(r2)
  800730:	e13ff517 	ldw	r4,-44(fp)
  800734:	e17ff617 	ldw	r5,-40(fp)
  800738:	e1bff717 	ldw	r6,-36(fp)
  80073c:	103ee83a 	callr	r2
        error = alt_get_flash_info(fd, &regions, &numRegions);
  800740:	e0bff815 	stw	r2,-32(fp)

    /* Find the last flash sector. */
    if (!error)
  800744:	e0bff817 	ldw	r2,-32(fp)
  800748:	1004c03a 	cmpne	r2,r2,zero
  80074c:	1000231e 	bne	r2,zero,8007dc <FindLastFlashSectorOffset+0x114>
    {
        pLastRegion = &(regions[0]);
  800750:	e0bffd17 	ldw	r2,-12(fp)
  800754:	e0bffb15 	stw	r2,-20(fp)
        for (n = 1; n < numRegions; n++)
  800758:	00800044 	movi	r2,1
  80075c:	e0bff915 	stw	r2,-28(fp)
  800760:	00001206 	br	8007ac <FindLastFlashSectorOffset+0xe4>
        {
            if (regions[n].offset > pLastRegion->offset)
  800764:	e0bff917 	ldw	r2,-28(fp)
  800768:	1004913a 	slli	r2,r2,4
  80076c:	1007883a 	mov	r3,r2
  800770:	e0bffd17 	ldw	r2,-12(fp)
  800774:	1885883a 	add	r2,r3,r2
  800778:	10c00017 	ldw	r3,0(r2)
  80077c:	e0bffb17 	ldw	r2,-20(fp)
  800780:	10800017 	ldw	r2,0(r2)
  800784:	10c0060e 	bge	r2,r3,8007a0 <FindLastFlashSectorOffset+0xd8>
                pLastRegion = &(regions[n]);
  800788:	e0bff917 	ldw	r2,-28(fp)
  80078c:	1004913a 	slli	r2,r2,4
  800790:	1007883a 	mov	r3,r2
  800794:	e0bffd17 	ldw	r2,-12(fp)
  800798:	1885883a 	add	r2,r3,r2
  80079c:	e0bffb15 	stw	r2,-20(fp)

    /* Find the last flash sector. */
    if (!error)
    {
        pLastRegion = &(regions[0]);
        for (n = 1; n < numRegions; n++)
  8007a0:	e0bff917 	ldw	r2,-28(fp)
  8007a4:	10800044 	addi	r2,r2,1
  8007a8:	e0bff915 	stw	r2,-28(fp)
  8007ac:	e0fffe17 	ldw	r3,-8(fp)
  8007b0:	e0bff917 	ldw	r2,-28(fp)
  8007b4:	10ffeb16 	blt	r2,r3,800764 <FindLastFlashSectorOffset+0x9c>
        {
            if (regions[n].offset > pLastRegion->offset)
                pLastRegion = &(regions[n]);
        }
        lastFlashSectorOffset =   pLastRegion->offset
  8007b8:	e0bffb17 	ldw	r2,-20(fp)
  8007bc:	10c00017 	ldw	r3,0(r2)
  8007c0:	e0bffb17 	ldw	r2,-20(fp)
  8007c4:	10800117 	ldw	r2,4(r2)
  8007c8:	1887883a 	add	r3,r3,r2
  8007cc:	e0bffb17 	ldw	r2,-20(fp)
  8007d0:	10800317 	ldw	r2,12(r2)
  8007d4:	1885c83a 	sub	r2,r3,r2
  8007d8:	e0bffa15 	stw	r2,-24(fp)
                                + pLastRegion->region_size
                                - pLastRegion->block_size;
    }

    /* Return results. */
    if (!error)
  8007dc:	e0bff817 	ldw	r2,-32(fp)
  8007e0:	1004c03a 	cmpne	r2,r2,zero
  8007e4:	1000031e 	bne	r2,zero,8007f4 <FindLastFlashSectorOffset+0x12c>
        *pLastFlashSectorOffset = lastFlashSectorOffset;
  8007e8:	e0fffa17 	ldw	r3,-24(fp)
  8007ec:	e0bfff17 	ldw	r2,-4(fp)
  8007f0:	10c00015 	stw	r3,0(r2)

    return (error);
  8007f4:	e0bff817 	ldw	r2,-32(fp)
}
  8007f8:	e037883a 	mov	sp,fp
  8007fc:	dfc00117 	ldw	ra,4(sp)
  800800:	df000017 	ldw	fp,0(sp)
  800804:	dec00204 	addi	sp,sp,8
  800808:	f800283a 	ret

0080080c <alt_uCOSIIErrorHandler>:
#include <errno.h>
#include "includes.h"
#include "alt_error_handler.h"
 
void alt_uCOSIIErrorHandler(INT8U error_code, void *expanded_diagnosis_ptr)
{
  80080c:	defff904 	addi	sp,sp,-28
  800810:	dfc00615 	stw	ra,24(sp)
  800814:	df000515 	stw	fp,20(sp)
  800818:	df000504 	addi	fp,sp,20
  80081c:	e17ffd15 	stw	r5,-12(fp)
  800820:	e13ffc05 	stb	r4,-16(fp)
   FAULT_LEVEL fault_level;
   
   if(error_code == OS_NO_ERR)
  800824:	e0bffc03 	ldbu	r2,-16(fp)
  800828:	1005003a 	cmpeq	r2,r2,zero
  80082c:	10017b1e 	bne	r2,zero,800e1c <alt_uCOSIIErrorHandler+0x610>
   {
      return;
   }
   
   fault_level = SYSTEM;  
  800830:	00800084 	movi	r2,2
  800834:	e0bffb15 	stw	r2,-20(fp)
   OSSchedLock();  /* Disable Task Switching but still service other IRQs */
  800838:	080ffe40 	call	80ffe4 <OSSchedLock>
      
   switch (error_code)
  80083c:	e0bffc03 	ldbu	r2,-16(fp)
  800840:	e0bffe15 	stw	r2,-8(fp)
  800844:	e0fffe17 	ldw	r3,-8(fp)
  800848:	18800a20 	cmpeqi	r2,r3,40
  80084c:	1000371e 	bne	r2,zero,80092c <alt_uCOSIIErrorHandler+0x120>
  800850:	e0fffe17 	ldw	r3,-8(fp)
  800854:	18800a48 	cmpgei	r2,r3,41
  800858:	10001a1e 	bne	r2,zero,8008c4 <alt_uCOSIIErrorHandler+0xb8>
  80085c:	e0fffe17 	ldw	r3,-8(fp)
  800860:	18800120 	cmpeqi	r2,r3,4
  800864:	1000761e 	bne	r2,zero,800a40 <alt_uCOSIIErrorHandler+0x234>
  800868:	e0fffe17 	ldw	r3,-8(fp)
  80086c:	18800148 	cmpgei	r2,r3,5
  800870:	10000a1e 	bne	r2,zero,80089c <alt_uCOSIIErrorHandler+0x90>
  800874:	e0fffe17 	ldw	r3,-8(fp)
  800878:	188000a0 	cmpeqi	r2,r3,2
  80087c:	1000911e 	bne	r2,zero,800ac4 <alt_uCOSIIErrorHandler+0x2b8>
  800880:	e0fffe17 	ldw	r3,-8(fp)
  800884:	188000c8 	cmpgei	r2,r3,3
  800888:	1000771e 	bne	r2,zero,800a68 <alt_uCOSIIErrorHandler+0x25c>
  80088c:	e0fffe17 	ldw	r3,-8(fp)
  800890:	18800060 	cmpeqi	r2,r3,1
  800894:	10005e1e 	bne	r2,zero,800a10 <alt_uCOSIIErrorHandler+0x204>
  800898:	0000d806 	br	800bfc <alt_uCOSIIErrorHandler+0x3f0>
  80089c:	e0fffe17 	ldw	r3,-8(fp)
  8008a0:	18800520 	cmpeqi	r2,r3,20
  8008a4:	10004f1e 	bne	r2,zero,8009e4 <alt_uCOSIIErrorHandler+0x1d8>
  8008a8:	e0fffe17 	ldw	r3,-8(fp)
  8008ac:	188007a0 	cmpeqi	r2,r3,30
  8008b0:	1000ad1e 	bne	r2,zero,800b68 <alt_uCOSIIErrorHandler+0x35c>
  8008b4:	e0fffe17 	ldw	r3,-8(fp)
  8008b8:	188002a0 	cmpeqi	r2,r3,10
  8008bc:	1000761e 	bne	r2,zero,800a98 <alt_uCOSIIErrorHandler+0x28c>
  8008c0:	0000ce06 	br	800bfc <alt_uCOSIIErrorHandler+0x3f0>
  8008c4:	e0fffe17 	ldw	r3,-8(fp)
  8008c8:	18801020 	cmpeqi	r2,r3,64
  8008cc:	10009c1e 	bne	r2,zero,800b40 <alt_uCOSIIErrorHandler+0x334>
  8008d0:	e0fffe17 	ldw	r3,-8(fp)
  8008d4:	18801048 	cmpgei	r2,r3,65
  8008d8:	10000a1e 	bne	r2,zero,800904 <alt_uCOSIIErrorHandler+0xf8>
  8008dc:	e0fffe17 	ldw	r3,-8(fp)
  8008e0:	18800f60 	cmpeqi	r2,r3,61
  8008e4:	10008b1e 	bne	r2,zero,800b14 <alt_uCOSIIErrorHandler+0x308>
  8008e8:	e0fffe17 	ldw	r3,-8(fp)
  8008ec:	18800fa0 	cmpeqi	r2,r3,62
  8008f0:	10007e1e 	bne	r2,zero,800aec <alt_uCOSIIErrorHandler+0x2e0>
  8008f4:	e0fffe17 	ldw	r3,-8(fp)
  8008f8:	18800aa0 	cmpeqi	r2,r3,42
  8008fc:	1000151e 	bne	r2,zero,800954 <alt_uCOSIIErrorHandler+0x148>
  800900:	0000be06 	br	800bfc <alt_uCOSIIErrorHandler+0x3f0>
  800904:	e0fffe17 	ldw	r3,-8(fp)
  800908:	18801920 	cmpeqi	r2,r3,100
  80090c:	1000a11e 	bne	r2,zero,800b94 <alt_uCOSIIErrorHandler+0x388>
  800910:	e0fffe17 	ldw	r3,-8(fp)
  800914:	18803fe0 	cmpeqi	r2,r3,255
  800918:	1000aa1e 	bne	r2,zero,800bc4 <alt_uCOSIIErrorHandler+0x3b8>
  80091c:	e0fffe17 	ldw	r3,-8(fp)
  800920:	188010a0 	cmpeqi	r2,r3,66
  800924:	10001d1e 	bne	r2,zero,80099c <alt_uCOSIIErrorHandler+0x190>
  800928:	0000b406 	br	800bfc <alt_uCOSIIErrorHandler+0x3f0>
   {  
      case OS_PRIO_EXIST:
         fprintf(stderr, "Attempted to assign task priority aready in use.\n");
  80092c:	00802174 	movhi	r2,133
  800930:	10b53504 	addi	r2,r2,-11052
  800934:	10800017 	ldw	r2,0(r2)
  800938:	11c00317 	ldw	r7,12(r2)
  80093c:	01002134 	movhi	r4,132
  800940:	211cd504 	addi	r4,r4,29524
  800944:	01400044 	movi	r5,1
  800948:	01800c44 	movi	r6,49
  80094c:	08051940 	call	805194 <fwrite>
         break;
  800950:	0000c106 	br	800c58 <alt_uCOSIIErrorHandler+0x44c>
      case OS_PRIO_INVALID:
         fprintf(stderr, "Specified task priority higher than allowed max.\n");
  800954:	00802174 	movhi	r2,133
  800958:	10b53504 	addi	r2,r2,-11052
  80095c:	10800017 	ldw	r2,0(r2)
  800960:	11c00317 	ldw	r7,12(r2)
  800964:	01002134 	movhi	r4,132
  800968:	211ce204 	addi	r4,r4,29576
  80096c:	01400044 	movi	r5,1
  800970:	01800c44 	movi	r6,49
  800974:	08051940 	call	805194 <fwrite>
         fprintf(stderr, "Task can't be assigned a priority higher than %d\n",
  800978:	00802174 	movhi	r2,133
  80097c:	10b53504 	addi	r2,r2,-11052
  800980:	10800017 	ldw	r2,0(r2)
  800984:	11000317 	ldw	r4,12(r2)
  800988:	01402134 	movhi	r5,132
  80098c:	295cef04 	addi	r5,r5,29628
  800990:	01800504 	movi	r6,20
  800994:	08050980 	call	805098 <fprintf>
            OS_LOWEST_PRIO);
         break;
  800998:	0000af06 	br	800c58 <alt_uCOSIIErrorHandler+0x44c>
      case OS_NO_MORE_TCB:
         fprintf(stderr, "Task Control Blocks have been exhausted\n");
  80099c:	00802174 	movhi	r2,133
  8009a0:	10b53504 	addi	r2,r2,-11052
  8009a4:	10800017 	ldw	r2,0(r2)
  8009a8:	11c00317 	ldw	r7,12(r2)
  8009ac:	01002134 	movhi	r4,132
  8009b0:	211cfc04 	addi	r4,r4,29680
  8009b4:	01400044 	movi	r5,1
  8009b8:	01800a04 	movi	r6,40
  8009bc:	08051940 	call	805194 <fwrite>
         fprintf(stderr, "Current max number of tasks is %d\n",OS_MAX_TASKS);
  8009c0:	00802174 	movhi	r2,133
  8009c4:	10b53504 	addi	r2,r2,-11052
  8009c8:	10800017 	ldw	r2,0(r2)
  8009cc:	11000317 	ldw	r4,12(r2)
  8009d0:	01402134 	movhi	r5,132
  8009d4:	295d0704 	addi	r5,r5,29724
  8009d8:	01800284 	movi	r6,10
  8009dc:	08050980 	call	805098 <fprintf>
         break;
  8009e0:	00009d06 	br	800c58 <alt_uCOSIIErrorHandler+0x44c>
      case OS_MBOX_FULL:
         fault_level = NONE;
  8009e4:	e03ffb15 	stw	zero,-20(fp)
         fprintf(stderr, "Attempted Post to Mailbox already holding message\n");
  8009e8:	00802174 	movhi	r2,133
  8009ec:	10b53504 	addi	r2,r2,-11052
  8009f0:	10800017 	ldw	r2,0(r2)
  8009f4:	11c00317 	ldw	r7,12(r2)
  8009f8:	01002134 	movhi	r4,132
  8009fc:	211d1004 	addi	r4,r4,29760
  800a00:	01400044 	movi	r5,1
  800a04:	01800c84 	movi	r6,50
  800a08:	08051940 	call	805194 <fwrite>
         break;
  800a0c:	00009206 	br	800c58 <alt_uCOSIIErrorHandler+0x44c>
      case OS_ERR_EVENT_TYPE:
         fault_level = TASK;
  800a10:	00800044 	movi	r2,1
  800a14:	e0bffb15 	stw	r2,-20(fp)
         fprintf(stderr, 
  800a18:	00802174 	movhi	r2,133
  800a1c:	10b53504 	addi	r2,r2,-11052
  800a20:	10800017 	ldw	r2,0(r2)
  800a24:	11c00317 	ldw	r7,12(r2)
  800a28:	01002134 	movhi	r4,132
  800a2c:	211d1d04 	addi	r4,r4,29812
  800a30:	01400044 	movi	r5,1
  800a34:	01801244 	movi	r6,73
  800a38:	08051940 	call	805194 <fwrite>
"Attempted to access a resource with no match for the required data type.\n");
         break;
  800a3c:	00008606 	br	800c58 <alt_uCOSIIErrorHandler+0x44c>
      case OS_ERR_PEVENT_NULL:
         fprintf(stderr, "Attempting to access a resource pointing to NULL\n");
  800a40:	00802174 	movhi	r2,133
  800a44:	10b53504 	addi	r2,r2,-11052
  800a48:	10800017 	ldw	r2,0(r2)
  800a4c:	11c00317 	ldw	r7,12(r2)
  800a50:	01002134 	movhi	r4,132
  800a54:	211d3004 	addi	r4,r4,29888
  800a58:	01400044 	movi	r5,1
  800a5c:	01800c44 	movi	r6,49
  800a60:	08051940 	call	805194 <fwrite>
         break;
  800a64:	00007c06 	br	800c58 <alt_uCOSIIErrorHandler+0x44c>
      case OS_ERR_POST_NULL_PTR:
         fault_level = TASK;
  800a68:	00800044 	movi	r2,1
  800a6c:	e0bffb15 	stw	r2,-20(fp)
         fprintf(stderr, "Attempted to Post a NULL to a resource. \n");
  800a70:	00802174 	movhi	r2,133
  800a74:	10b53504 	addi	r2,r2,-11052
  800a78:	10800017 	ldw	r2,0(r2)
  800a7c:	11c00317 	ldw	r7,12(r2)
  800a80:	01002134 	movhi	r4,132
  800a84:	211d3d04 	addi	r4,r4,29940
  800a88:	01400044 	movi	r5,1
  800a8c:	01800a44 	movi	r6,41
  800a90:	08051940 	call	805194 <fwrite>
         break;
  800a94:	00007006 	br	800c58 <alt_uCOSIIErrorHandler+0x44c>
      case OS_TIMEOUT:
         fault_level = NONE;
  800a98:	e03ffb15 	stw	zero,-20(fp)
         fprintf(stderr, "Resource not received in specified time\n");
  800a9c:	00802174 	movhi	r2,133
  800aa0:	10b53504 	addi	r2,r2,-11052
  800aa4:	10800017 	ldw	r2,0(r2)
  800aa8:	11c00317 	ldw	r7,12(r2)
  800aac:	01002134 	movhi	r4,132
  800ab0:	211d4804 	addi	r4,r4,29984
  800ab4:	01400044 	movi	r5,1
  800ab8:	01800a04 	movi	r6,40
  800abc:	08051940 	call	805194 <fwrite>
         break;
  800ac0:	00006506 	br	800c58 <alt_uCOSIIErrorHandler+0x44c>
      case OS_ERR_PEND_ISR:
         fprintf(stderr, "Attempting to pend for a resource in an ISR\n");
  800ac4:	00802174 	movhi	r2,133
  800ac8:	10b53504 	addi	r2,r2,-11052
  800acc:	10800017 	ldw	r2,0(r2)
  800ad0:	11c00317 	ldw	r7,12(r2)
  800ad4:	01002134 	movhi	r4,132
  800ad8:	211d5304 	addi	r4,r4,30028
  800adc:	01400044 	movi	r5,1
  800ae0:	01800b04 	movi	r6,44
  800ae4:	08051940 	call	805194 <fwrite>
         break;
  800ae8:	00005b06 	br	800c58 <alt_uCOSIIErrorHandler+0x44c>
      case OS_TASK_DEL_IDLE:
         fprintf(stderr, "Attempted to delete the IDLE task\n");
  800aec:	00802174 	movhi	r2,133
  800af0:	10b53504 	addi	r2,r2,-11052
  800af4:	10800017 	ldw	r2,0(r2)
  800af8:	11c00317 	ldw	r7,12(r2)
  800afc:	01002134 	movhi	r4,132
  800b00:	211d5f04 	addi	r4,r4,30076
  800b04:	01400044 	movi	r5,1
  800b08:	01800884 	movi	r6,34
  800b0c:	08051940 	call	805194 <fwrite>
         break;
  800b10:	00005106 	br	800c58 <alt_uCOSIIErrorHandler+0x44c>
      case OS_TASK_DEL_ERR:
         fault_level = NONE;
  800b14:	e03ffb15 	stw	zero,-20(fp)
         fprintf(stderr, "Attempted to delete a task that does not exist\n");
  800b18:	00802174 	movhi	r2,133
  800b1c:	10b53504 	addi	r2,r2,-11052
  800b20:	10800017 	ldw	r2,0(r2)
  800b24:	11c00317 	ldw	r7,12(r2)
  800b28:	01002134 	movhi	r4,132
  800b2c:	211d6804 	addi	r4,r4,30112
  800b30:	01400044 	movi	r5,1
  800b34:	01800bc4 	movi	r6,47
  800b38:	08051940 	call	805194 <fwrite>
         break;
  800b3c:	00004606 	br	800c58 <alt_uCOSIIErrorHandler+0x44c>
      case OS_TASK_DEL_ISR:
         fprintf(stderr, "Attempted to delete a task from an ISR\n");
  800b40:	00802174 	movhi	r2,133
  800b44:	10b53504 	addi	r2,r2,-11052
  800b48:	10800017 	ldw	r2,0(r2)
  800b4c:	11c00317 	ldw	r7,12(r2)
  800b50:	01002134 	movhi	r4,132
  800b54:	211d7404 	addi	r4,r4,30160
  800b58:	01400044 	movi	r5,1
  800b5c:	018009c4 	movi	r6,39
  800b60:	08051940 	call	805194 <fwrite>
         break;
  800b64:	00003c06 	br	800c58 <alt_uCOSIIErrorHandler+0x44c>
      case OS_Q_FULL:
         fault_level = NONE;
  800b68:	e03ffb15 	stw	zero,-20(fp)
         fprintf(stderr, "Attempted to post to a full message queue\n");
  800b6c:	00802174 	movhi	r2,133
  800b70:	10b53504 	addi	r2,r2,-11052
  800b74:	10800017 	ldw	r2,0(r2)
  800b78:	11c00317 	ldw	r7,12(r2)
  800b7c:	01002134 	movhi	r4,132
  800b80:	211d7e04 	addi	r4,r4,30200
  800b84:	01400044 	movi	r5,1
  800b88:	01800a84 	movi	r6,42
  800b8c:	08051940 	call	805194 <fwrite>
         break;
  800b90:	00003106 	br	800c58 <alt_uCOSIIErrorHandler+0x44c>
      case OS_ERR_NOT_MUTEX_OWNER:
         fault_level = TASK;
  800b94:	00800044 	movi	r2,1
  800b98:	e0bffb15 	stw	r2,-20(fp)
         fprintf(stderr, "Attempted to post a mutex not owned by the task\n");
  800b9c:	00802174 	movhi	r2,133
  800ba0:	10b53504 	addi	r2,r2,-11052
  800ba4:	10800017 	ldw	r2,0(r2)
  800ba8:	11c00317 	ldw	r7,12(r2)
  800bac:	01002134 	movhi	r4,132
  800bb0:	211d8904 	addi	r4,r4,30244
  800bb4:	01400044 	movi	r5,1
  800bb8:	01800c04 	movi	r6,48
  800bbc:	08051940 	call	805194 <fwrite>
         break;
  800bc0:	00002506 	br	800c58 <alt_uCOSIIErrorHandler+0x44c>
      case EXPANDED_DIAGNOSIS_CODE:      
         fault_level = SYSTEM;
  800bc4:	00800084 	movi	r2,2
  800bc8:	e0bffb15 	stw	r2,-20(fp)
         printf(
  800bcc:	01002134 	movhi	r4,132
  800bd0:	211d9604 	addi	r4,r4,30296
  800bd4:	08055940 	call	805594 <printf>
"\n[MicroC/OS-II]: See STDERR for expanded diagnosis translation.");    
         fprintf(stderr, "\n[MicroC/OS-II]: Expanded Diagnosis: %s.", 
  800bd8:	00802174 	movhi	r2,133
  800bdc:	10b53504 	addi	r2,r2,-11052
  800be0:	10800017 	ldw	r2,0(r2)
  800be4:	11000317 	ldw	r4,12(r2)
  800be8:	e1bffd17 	ldw	r6,-12(fp)
  800bec:	01402134 	movhi	r5,132
  800bf0:	295da604 	addi	r5,r5,30360
  800bf4:	08050980 	call	805098 <fprintf>
                 (char *)expanded_diagnosis_ptr);
         break;           
  800bf8:	00001706 	br	800c58 <alt_uCOSIIErrorHandler+0x44c>
      default:
         printf("\n[MicroC/OS-II]: (Not a MicroC/OS-II error) See STDERR.\n");    
  800bfc:	01002134 	movhi	r4,132
  800c00:	211db104 	addi	r4,r4,30404
  800c04:	08058bc0 	call	8058bc <puts>
         fprintf(stderr, "\n[MicroC/OS-II]:");
  800c08:	00802174 	movhi	r2,133
  800c0c:	10b53504 	addi	r2,r2,-11052
  800c10:	10800017 	ldw	r2,0(r2)
  800c14:	11c00317 	ldw	r7,12(r2)
  800c18:	01002134 	movhi	r4,132
  800c1c:	211dbf04 	addi	r4,r4,30460
  800c20:	01400044 	movi	r5,1
  800c24:	01800404 	movi	r6,16
  800c28:	08051940 	call	805194 <fwrite>
         fprintf(stderr, "\nError_code %d.\n", error_code);
  800c2c:	00802174 	movhi	r2,133
  800c30:	10b53504 	addi	r2,r2,-11052
  800c34:	10800017 	ldw	r2,0(r2)
  800c38:	11000317 	ldw	r4,12(r2)
  800c3c:	e1bffc03 	ldbu	r6,-16(fp)
  800c40:	01402134 	movhi	r5,132
  800c44:	295dc404 	addi	r5,r5,30480
  800c48:	08050980 	call	805098 <fprintf>
         perror("\n[MicroC/OS-II]: (Not a MicroC/OS-II error), ERRNO: ");
  800c4c:	01002134 	movhi	r4,132
  800c50:	211dc904 	addi	r4,r4,30500
  800c54:	08055800 	call	805580 <perror>

   }

   /* Process the error based on the fault level, 
    * reenable scheduler if appropriate. */  
   switch (fault_level) {
  800c58:	e0bffb17 	ldw	r2,-20(fp)
  800c5c:	e0bfff15 	stw	r2,-4(fp)
  800c60:	e0ffff17 	ldw	r3,-4(fp)
  800c64:	18800060 	cmpeqi	r2,r3,1
  800c68:	1000071e 	bne	r2,zero,800c88 <alt_uCOSIIErrorHandler+0x47c>
  800c6c:	e0ffff17 	ldw	r3,-4(fp)
  800c70:	18800070 	cmpltui	r2,r3,1
  800c74:	10003f1e 	bne	r2,zero,800d74 <alt_uCOSIIErrorHandler+0x568>
  800c78:	e0ffff17 	ldw	r3,-4(fp)
  800c7c:	188000a0 	cmpeqi	r2,r3,2
  800c80:	10001d1e 	bne	r2,zero,800cf8 <alt_uCOSIIErrorHandler+0x4ec>
  800c84:	00005806 	br	800de8 <alt_uCOSIIErrorHandler+0x5dc>
      case TASK:
         /* Error can be isolated by killing the task */
         printf("\n[MicroC/OS-II]: See STDERR (FAULT_LEVEL is TASK).");
  800c88:	01002134 	movhi	r4,132
  800c8c:	211dd704 	addi	r4,r4,30556
  800c90:	08055940 	call	805594 <printf>
         fprintf(stderr, "\n[MicroC/OS-II]: FAULT_LEVEL is TASK");
  800c94:	00802174 	movhi	r2,133
  800c98:	10b53504 	addi	r2,r2,-11052
  800c9c:	10800017 	ldw	r2,0(r2)
  800ca0:	11c00317 	ldw	r7,12(r2)
  800ca4:	01002134 	movhi	r4,132
  800ca8:	211de404 	addi	r4,r4,30608
  800cac:	01400044 	movi	r5,1
  800cb0:	01800904 	movi	r6,36
  800cb4:	08051940 	call	805194 <fwrite>
         fprintf(stderr, "\n[MicroC/OS-II]: Task is being deleted.\n");
  800cb8:	00802174 	movhi	r2,133
  800cbc:	10b53504 	addi	r2,r2,-11052
  800cc0:	10800017 	ldw	r2,0(r2)
  800cc4:	11c00317 	ldw	r7,12(r2)
  800cc8:	01002134 	movhi	r4,132
  800ccc:	211dee04 	addi	r4,r4,30648
  800cd0:	01400044 	movi	r5,1
  800cd4:	01800a04 	movi	r6,40
  800cd8:	08051940 	call	805194 <fwrite>
         OSSchedUnlock(); /* Reenable Task Switching */
  800cdc:	08100700 	call	810070 <OSSchedUnlock>
         OSTaskDel(OS_PRIO_SELF);
  800ce0:	01003fc4 	movi	r4,255
  800ce4:	08161280 	call	816128 <OSTaskDel>
         /* Reinvoke uCOSII error handler in case task deletion fails, in 
          * which case fault_level for this secondary error will be SYSTEM. */
         alt_uCOSIIErrorHandler(error_code, 0);         
  800ce8:	e13ffc03 	ldbu	r4,-16(fp)
  800cec:	000b883a 	mov	r5,zero
  800cf0:	080080c0 	call	80080c <alt_uCOSIIErrorHandler>
         break;
  800cf4:	00004806 	br	800e18 <alt_uCOSIIErrorHandler+0x60c>
      case SYSTEM:
         /* Total System Failure, Restart Required */
         printf("\n[MicroC/OS-II]: See STDERR (FAULT_LEVEL is SYSTEM).");    
  800cf8:	01002134 	movhi	r4,132
  800cfc:	211df904 	addi	r4,r4,30692
  800d00:	08055940 	call	805594 <printf>
         fprintf(stderr, "\n[MicroC/OS-II]: FAULT_LEVEL is SYSTEM");
  800d04:	00802174 	movhi	r2,133
  800d08:	10b53504 	addi	r2,r2,-11052
  800d0c:	10800017 	ldw	r2,0(r2)
  800d10:	11c00317 	ldw	r7,12(r2)
  800d14:	01002134 	movhi	r4,132
  800d18:	211e0704 	addi	r4,r4,30748
  800d1c:	01400044 	movi	r5,1
  800d20:	01800984 	movi	r6,38
  800d24:	08051940 	call	805194 <fwrite>
         fprintf(stderr, "\n[MicroC/OS-II]: FATAL Error, Restart required.");
  800d28:	00802174 	movhi	r2,133
  800d2c:	10b53504 	addi	r2,r2,-11052
  800d30:	10800017 	ldw	r2,0(r2)
  800d34:	11c00317 	ldw	r7,12(r2)
  800d38:	01002134 	movhi	r4,132
  800d3c:	211e1104 	addi	r4,r4,30788
  800d40:	01400044 	movi	r5,1
  800d44:	01800bc4 	movi	r6,47
  800d48:	08051940 	call	805194 <fwrite>
         fprintf(stderr, "\n[MicroC/OS-II]: Locking scheduler - endless loop.\n");
  800d4c:	00802174 	movhi	r2,133
  800d50:	10b53504 	addi	r2,r2,-11052
  800d54:	10800017 	ldw	r2,0(r2)
  800d58:	11c00317 	ldw	r7,12(r2)
  800d5c:	01002134 	movhi	r4,132
  800d60:	211e1d04 	addi	r4,r4,30836
  800d64:	01400044 	movi	r5,1
  800d68:	01800cc4 	movi	r6,51
  800d6c:	08051940 	call	805194 <fwrite>
         while(1); /* Since scheduler is locked,loop halts all task activity.*/
  800d70:	003fff06 	br	800d70 <alt_uCOSIIErrorHandler+0x564>
         break;
      case NONE:
         fprintf(stderr, "\n[MicroC/OS-II]: FAULT_LEVEL is NONE");
  800d74:	00802174 	movhi	r2,133
  800d78:	10b53504 	addi	r2,r2,-11052
  800d7c:	10800017 	ldw	r2,0(r2)
  800d80:	11c00317 	ldw	r7,12(r2)
  800d84:	01002134 	movhi	r4,132
  800d88:	211e2a04 	addi	r4,r4,30888
  800d8c:	01400044 	movi	r5,1
  800d90:	01800904 	movi	r6,36
  800d94:	08051940 	call	805194 <fwrite>
         fprintf(stderr, "\n[MicroC/OS-II]: Informational error only, control"); 
  800d98:	00802174 	movhi	r2,133
  800d9c:	10b53504 	addi	r2,r2,-11052
  800da0:	10800017 	ldw	r2,0(r2)
  800da4:	11c00317 	ldw	r7,12(r2)
  800da8:	01002134 	movhi	r4,132
  800dac:	211e3404 	addi	r4,r4,30928
  800db0:	01400044 	movi	r5,1
  800db4:	01800c84 	movi	r6,50
  800db8:	08051940 	call	805194 <fwrite>
         fprintf(stderr, 
  800dbc:	00802174 	movhi	r2,133
  800dc0:	10b53504 	addi	r2,r2,-11052
  800dc4:	10800017 	ldw	r2,0(r2)
  800dc8:	11c00317 	ldw	r7,12(r2)
  800dcc:	01002134 	movhi	r4,132
  800dd0:	211e4104 	addi	r4,r4,30980
  800dd4:	01400044 	movi	r5,1
  800dd8:	01800f84 	movi	r6,62
  800ddc:	08051940 	call	805194 <fwrite>
            "returned to task to complete processing at application level.\n");
         OSSchedUnlock(); /* Reenable Task Switching */
  800de0:	08100700 	call	810070 <OSSchedUnlock>
         return;   
  800de4:	00000d06 	br	800e1c <alt_uCOSIIErrorHandler+0x610>
         break;      
      default:
         printf("\n[MicroC/OS-II]: See STDERR (FAULT_LEVEL is Unknown).\n");
  800de8:	01002134 	movhi	r4,132
  800dec:	211e5104 	addi	r4,r4,31044
  800df0:	08058bc0 	call	8058bc <puts>
         fprintf(stderr, "\n[MicroC/OS-II]: FAULT_LEVEL is unknown!?!\n");
  800df4:	00802174 	movhi	r2,133
  800df8:	10b53504 	addi	r2,r2,-11052
  800dfc:	10800017 	ldw	r2,0(r2)
  800e00:	11c00317 	ldw	r7,12(r2)
  800e04:	01002134 	movhi	r4,132
  800e08:	211e5f04 	addi	r4,r4,31100
  800e0c:	01400044 	movi	r5,1
  800e10:	01800ac4 	movi	r6,43
  800e14:	08051940 	call	805194 <fwrite>
   }
   while(1); /* Correct Program Flow never gets here. */
  800e18:	003fff06 	br	800e18 <alt_uCOSIIErrorHandler+0x60c>
}
  800e1c:	e037883a 	mov	sp,fp
  800e20:	dfc00117 	ldw	ra,4(sp)
  800e24:	df000017 	ldw	fp,0(sp)
  800e28:	dec00204 	addi	sp,sp,8
  800e2c:	f800283a 	ret

00800e30 <alt_NetworkErrorHandler>:

void alt_NetworkErrorHandler(INT8U error_code, void *expanded_diagnosis_ptr)
{
  800e30:	defffa04 	addi	sp,sp,-24
  800e34:	dfc00515 	stw	ra,20(sp)
  800e38:	df000415 	stw	fp,16(sp)
  800e3c:	df000404 	addi	fp,sp,16
  800e40:	e17ffe15 	stw	r5,-8(fp)
  800e44:	e13ffd05 	stb	r4,-12(fp)
   FAULT_LEVEL fault_level;

   if(error_code == OS_NO_ERR)
  800e48:	e0bffd03 	ldbu	r2,-12(fp)
  800e4c:	1005003a 	cmpeq	r2,r2,zero
  800e50:	1000981e 	bne	r2,zero,8010b4 <alt_NetworkErrorHandler+0x284>
   {
      return;
   }

   fault_level = SYSTEM;   
  800e54:	00800084 	movi	r2,2
  800e58:	e0bffc15 	stw	r2,-16(fp)
   OSSchedLock();  /* Disable Task Switching but still service other IRQs */  
  800e5c:	080ffe40 	call	80ffe4 <OSSchedLock>

   if (error_code == EXPANDED_DIAGNOSIS_CODE) 
  800e60:	e0bffd03 	ldbu	r2,-12(fp)
  800e64:	10803fd8 	cmpnei	r2,r2,255
  800e68:	1000111e 	bne	r2,zero,800eb0 <alt_NetworkErrorHandler+0x80>
   {
      fault_level = SYSTEM;
  800e6c:	00800084 	movi	r2,2
  800e70:	e0bffc15 	stw	r2,-16(fp)
      printf("\n[Network]: See STDERR for expanded diagnosis translation.");    
  800e74:	01002134 	movhi	r4,132
  800e78:	211e6a04 	addi	r4,r4,31144
  800e7c:	08055940 	call	805594 <printf>
      fprintf(stderr, "\n[Network]: %s", (char *)expanded_diagnosis_ptr);
  800e80:	00802174 	movhi	r2,133
  800e84:	10b53504 	addi	r2,r2,-11052
  800e88:	10800017 	ldw	r2,0(r2)
  800e8c:	11000317 	ldw	r4,12(r2)
  800e90:	e1bffe17 	ldw	r6,-8(fp)
  800e94:	01402134 	movhi	r5,132
  800e98:	295e7904 	addi	r5,r5,31204
  800e9c:	08050980 	call	805098 <fprintf>
      /* Check errno also in case it has been set. */
      perror("\n[Network]:  ERRNO: ");
  800ea0:	01002134 	movhi	r4,132
  800ea4:	211e7d04 	addi	r4,r4,31220
  800ea8:	08055800 	call	805580 <perror>
  800eac:	00001006 	br	800ef0 <alt_NetworkErrorHandler+0xc0>
   }
   else 
   {
      fault_level = TASK;
  800eb0:	00800044 	movi	r2,1
  800eb4:	e0bffc15 	stw	r2,-16(fp)
      printf("\n[Network]: See STDERR.\n");    
  800eb8:	01002134 	movhi	r4,132
  800ebc:	211e8304 	addi	r4,r4,31244
  800ec0:	08058bc0 	call	8058bc <puts>
      fprintf(stderr, "\n[Network]: Error_code %d!\n", error_code);        
  800ec4:	00802174 	movhi	r2,133
  800ec8:	10b53504 	addi	r2,r2,-11052
  800ecc:	10800017 	ldw	r2,0(r2)
  800ed0:	11000317 	ldw	r4,12(r2)
  800ed4:	e1bffd03 	ldbu	r6,-12(fp)
  800ed8:	01402134 	movhi	r5,132
  800edc:	295e8904 	addi	r5,r5,31268
  800ee0:	08050980 	call	805098 <fprintf>
      perror("\n[Network]:  ERRNO: ");
  800ee4:	01002134 	movhi	r4,132
  800ee8:	211e7d04 	addi	r4,r4,31220
  800eec:	08055800 	call	805580 <perror>
   }

   /* Process error based on fault level, reenable scheduler if appropriate. */     
   switch (fault_level) 
  800ef0:	e0bffc17 	ldw	r2,-16(fp)
  800ef4:	e0bfff15 	stw	r2,-4(fp)
  800ef8:	e0ffff17 	ldw	r3,-4(fp)
  800efc:	18800060 	cmpeqi	r2,r3,1
  800f00:	1000071e 	bne	r2,zero,800f20 <alt_NetworkErrorHandler+0xf0>
  800f04:	e0ffff17 	ldw	r3,-4(fp)
  800f08:	18800070 	cmpltui	r2,r3,1
  800f0c:	10003f1e 	bne	r2,zero,80100c <alt_NetworkErrorHandler+0x1dc>
  800f10:	e0ffff17 	ldw	r3,-4(fp)
  800f14:	188000a0 	cmpeqi	r2,r3,2
  800f18:	10001d1e 	bne	r2,zero,800f90 <alt_NetworkErrorHandler+0x160>
  800f1c:	00005806 	br	801080 <alt_NetworkErrorHandler+0x250>
   {
      case TASK:
         /* Error can be isolated by killing the task */
         printf("\n[Network]: See STDERR (FAULT_LEVEL is TASK).");
  800f20:	01002134 	movhi	r4,132
  800f24:	211e9004 	addi	r4,r4,31296
  800f28:	08055940 	call	805594 <printf>
         fprintf(stderr, "\n[Network]: FAULT_LEVEL is TASK");
  800f2c:	00802174 	movhi	r2,133
  800f30:	10b53504 	addi	r2,r2,-11052
  800f34:	10800017 	ldw	r2,0(r2)
  800f38:	11c00317 	ldw	r7,12(r2)
  800f3c:	01002134 	movhi	r4,132
  800f40:	211e9c04 	addi	r4,r4,31344
  800f44:	01400044 	movi	r5,1
  800f48:	018007c4 	movi	r6,31
  800f4c:	08051940 	call	805194 <fwrite>
         fprintf(stderr, "\n[Network]: Task is being deleted.\n");
  800f50:	00802174 	movhi	r2,133
  800f54:	10b53504 	addi	r2,r2,-11052
  800f58:	10800017 	ldw	r2,0(r2)
  800f5c:	11c00317 	ldw	r7,12(r2)
  800f60:	01002134 	movhi	r4,132
  800f64:	211ea404 	addi	r4,r4,31376
  800f68:	01400044 	movi	r5,1
  800f6c:	018008c4 	movi	r6,35
  800f70:	08051940 	call	805194 <fwrite>
         OSSchedUnlock(); /* Reenable Task Switching */
  800f74:	08100700 	call	810070 <OSSchedUnlock>
         OSTaskDel(OS_PRIO_SELF);
  800f78:	01003fc4 	movi	r4,255
  800f7c:	08161280 	call	816128 <OSTaskDel>
         /* Reinvoke uCOSII error handler in case task deletion fails, in 
          * which case fault_level for this secondary error will be SYSTEM. */
         alt_uCOSIIErrorHandler(error_code, 0);         
  800f80:	e13ffd03 	ldbu	r4,-12(fp)
  800f84:	000b883a 	mov	r5,zero
  800f88:	080080c0 	call	80080c <alt_uCOSIIErrorHandler>
         break;
  800f8c:	00004806 	br	8010b0 <alt_NetworkErrorHandler+0x280>
      case SYSTEM:
         /* Total System Failure, Restart Required */
         printf("\n[Network]: See STDERR (FAULT_LEVEL is SYSTEM).");    
  800f90:	01002134 	movhi	r4,132
  800f94:	211ead04 	addi	r4,r4,31412
  800f98:	08055940 	call	805594 <printf>
         fprintf(stderr, "\n[Network]: FAULT_LEVEL is SYSTEM.");
  800f9c:	00802174 	movhi	r2,133
  800fa0:	10b53504 	addi	r2,r2,-11052
  800fa4:	10800017 	ldw	r2,0(r2)
  800fa8:	11c00317 	ldw	r7,12(r2)
  800fac:	01002134 	movhi	r4,132
  800fb0:	211eb904 	addi	r4,r4,31460
  800fb4:	01400044 	movi	r5,1
  800fb8:	01800884 	movi	r6,34
  800fbc:	08051940 	call	805194 <fwrite>
         fprintf(stderr, "\n[Network]: FATAL Error, Restart required.");
  800fc0:	00802174 	movhi	r2,133
  800fc4:	10b53504 	addi	r2,r2,-11052
  800fc8:	10800017 	ldw	r2,0(r2)
  800fcc:	11c00317 	ldw	r7,12(r2)
  800fd0:	01002134 	movhi	r4,132
  800fd4:	211ec204 	addi	r4,r4,31496
  800fd8:	01400044 	movi	r5,1
  800fdc:	01800a84 	movi	r6,42
  800fe0:	08051940 	call	805194 <fwrite>
         fprintf(stderr, "\n[Network]: Locking scheduler - endless loop.\n");
  800fe4:	00802174 	movhi	r2,133
  800fe8:	10b53504 	addi	r2,r2,-11052
  800fec:	10800017 	ldw	r2,0(r2)
  800ff0:	11c00317 	ldw	r7,12(r2)
  800ff4:	01002134 	movhi	r4,132
  800ff8:	211ecd04 	addi	r4,r4,31540
  800ffc:	01400044 	movi	r5,1
  801000:	01800b84 	movi	r6,46
  801004:	08051940 	call	805194 <fwrite>
         while(1); /* Since scheduler is locked, loop halts all task activity.*/
  801008:	003fff06 	br	801008 <alt_NetworkErrorHandler+0x1d8>
         break;
      case NONE:
         fprintf(stderr, "\n[Network]: FAULT_LEVEL is NONE.");
  80100c:	00802174 	movhi	r2,133
  801010:	10b53504 	addi	r2,r2,-11052
  801014:	10800017 	ldw	r2,0(r2)
  801018:	11c00317 	ldw	r7,12(r2)
  80101c:	01002134 	movhi	r4,132
  801020:	211ed904 	addi	r4,r4,31588
  801024:	01400044 	movi	r5,1
  801028:	01800804 	movi	r6,32
  80102c:	08051940 	call	805194 <fwrite>
         fprintf(stderr, "\n[Network]: Informational "
  801030:	00802174 	movhi	r2,133
  801034:	10b53504 	addi	r2,r2,-11052
  801038:	10800017 	ldw	r2,0(r2)
  80103c:	11c00317 	ldw	r7,12(r2)
  801040:	01002134 	movhi	r4,132
  801044:	211ee204 	addi	r4,r4,31624
  801048:	01400044 	movi	r5,1
  80104c:	01800d84 	movi	r6,54
  801050:	08051940 	call	805194 <fwrite>
                         "error only, control returned");
         fprintf(stderr, 
  801054:	00802174 	movhi	r2,133
  801058:	10b53504 	addi	r2,r2,-11052
  80105c:	10800017 	ldw	r2,0(r2)
  801060:	11c00317 	ldw	r7,12(r2)
  801064:	01002134 	movhi	r4,132
  801068:	211ef004 	addi	r4,r4,31680
  80106c:	01400044 	movi	r5,1
  801070:	01800e44 	movi	r6,57
  801074:	08051940 	call	805194 <fwrite>
            "to task to complete processing at the application level.\n");
         OSSchedUnlock(); /* Reenable Task Switching */ 
  801078:	08100700 	call	810070 <OSSchedUnlock>
         return;
  80107c:	00000d06 	br	8010b4 <alt_NetworkErrorHandler+0x284>
         break;         
      default:
         printf("\n[Network]: See STDERR (FAULT_LEVEL is unknown).\n");    
  801080:	01002134 	movhi	r4,132
  801084:	211eff04 	addi	r4,r4,31740
  801088:	08058bc0 	call	8058bc <puts>
         fprintf(stderr, "\n[Network] FAULT_LEVEL is unknown !?!\n");
  80108c:	00802174 	movhi	r2,133
  801090:	10b53504 	addi	r2,r2,-11052
  801094:	10800017 	ldw	r2,0(r2)
  801098:	11c00317 	ldw	r7,12(r2)
  80109c:	01002134 	movhi	r4,132
  8010a0:	211f0c04 	addi	r4,r4,31792
  8010a4:	01400044 	movi	r5,1
  8010a8:	01800984 	movi	r6,38
  8010ac:	08051940 	call	805194 <fwrite>
   }
   while(1); /* Correct Program Flow never gets here. */
  8010b0:	003fff06 	br	8010b0 <alt_NetworkErrorHandler+0x280>
}
  8010b4:	e037883a 	mov	sp,fp
  8010b8:	dfc00117 	ldw	ra,4(sp)
  8010bc:	df000017 	ldw	fp,0(sp)
  8010c0:	dec00204 	addi	sp,sp,8
  8010c4:	f800283a 	ret

008010c8 <alt_SSSErrorHandler>:
   
   
void alt_SSSErrorHandler(INT8U error_code, 
                         void *expanded_diagnosis_ptr)
{
  8010c8:	defff804 	addi	sp,sp,-32
  8010cc:	dfc00715 	stw	ra,28(sp)
  8010d0:	df000615 	stw	fp,24(sp)
  8010d4:	df000604 	addi	fp,sp,24
  8010d8:	e17ffc15 	stw	r5,-16(fp)
  8010dc:	e13ffb05 	stb	r4,-20(fp)
   FAULT_LEVEL fault_level;
   
   if   (error_code == OS_NO_ERR)
  8010e0:	e0bffb03 	ldbu	r2,-20(fp)
  8010e4:	1005003a 	cmpeq	r2,r2,zero
  8010e8:	1000ad1e 	bne	r2,zero,8013a0 <alt_SSSErrorHandler+0x2d8>
   {
      return;
   }

   fault_level = (error_code == OS_NO_ERR) ? NONE : SYSTEM;
  8010ec:	e0bffb03 	ldbu	r2,-20(fp)
  8010f0:	1004c03a 	cmpne	r2,r2,zero
  8010f4:	1000021e 	bne	r2,zero,801100 <alt_SSSErrorHandler+0x38>
  8010f8:	e03ffe15 	stw	zero,-8(fp)
  8010fc:	00000206 	br	801108 <alt_SSSErrorHandler+0x40>
  801100:	00800084 	movi	r2,2
  801104:	e0bffe15 	stw	r2,-8(fp)
  801108:	e0fffe17 	ldw	r3,-8(fp)
  80110c:	e0fffa15 	stw	r3,-24(fp)
   
   OSSchedLock();  /* Disable Task Switching but still service other IRQs */
  801110:	080ffe40 	call	80ffe4 <OSSchedLock>
   switch (error_code)
  801114:	e0bffb03 	ldbu	r2,-20(fp)
  801118:	e0bffd15 	stw	r2,-12(fp)
  80111c:	e0fffd17 	ldw	r3,-12(fp)
  801120:	188007a0 	cmpeqi	r2,r3,30
  801124:	1000121e 	bne	r2,zero,801170 <alt_SSSErrorHandler+0xa8>
  801128:	e0fffd17 	ldw	r3,-12(fp)
  80112c:	18803fe0 	cmpeqi	r2,r3,255
  801130:	1000011e 	bne	r2,zero,801138 <alt_SSSErrorHandler+0x70>
  801134:	00001906 	br	80119c <alt_SSSErrorHandler+0xd4>
   {
      case EXPANDED_DIAGNOSIS_CODE:      
         fault_level = SYSTEM;
  801138:	00800084 	movi	r2,2
  80113c:	e0bffa15 	stw	r2,-24(fp)
         printf("\n[SSS]: See STDERR for expanded diagnosis translation.");    
  801140:	01002134 	movhi	r4,132
  801144:	211f1604 	addi	r4,r4,31832
  801148:	08055940 	call	805594 <printf>
         fprintf(stderr, "\n[SSS]: %s", (char *)expanded_diagnosis_ptr);
  80114c:	00802174 	movhi	r2,133
  801150:	10b53504 	addi	r2,r2,-11052
  801154:	10800017 	ldw	r2,0(r2)
  801158:	11000317 	ldw	r4,12(r2)
  80115c:	e1bffc17 	ldw	r6,-16(fp)
  801160:	01402134 	movhi	r5,132
  801164:	295f2404 	addi	r5,r5,31888
  801168:	08050980 	call	805098 <fprintf>
         break;
  80116c:	00001b06 	br	8011dc <alt_SSSErrorHandler+0x114>
         
      case OS_Q_FULL:
         fault_level = NONE;
  801170:	e03ffa15 	stw	zero,-24(fp)
         fprintf(stderr,"\n[SSS]: Attempted to post to a full message queue.");
  801174:	00802174 	movhi	r2,133
  801178:	10b53504 	addi	r2,r2,-11052
  80117c:	10800017 	ldw	r2,0(r2)
  801180:	11c00317 	ldw	r7,12(r2)
  801184:	01002134 	movhi	r4,132
  801188:	211f2704 	addi	r4,r4,31900
  80118c:	01400044 	movi	r5,1
  801190:	01800c84 	movi	r6,50
  801194:	08051940 	call	805194 <fwrite>
         break;
  801198:	00001006 	br	8011dc <alt_SSSErrorHandler+0x114>
      
      default:
         fault_level = SYSTEM;
  80119c:	00800084 	movi	r2,2
  8011a0:	e0bffa15 	stw	r2,-24(fp)
         printf("\n[SSS]: See STDERR.\n");    
  8011a4:	01002134 	movhi	r4,132
  8011a8:	211f3404 	addi	r4,r4,31952
  8011ac:	08058bc0 	call	8058bc <puts>
         fprintf(stderr, "\n[SSS]: Error_code %d!", error_code);        
  8011b0:	00802174 	movhi	r2,133
  8011b4:	10b53504 	addi	r2,r2,-11052
  8011b8:	10800017 	ldw	r2,0(r2)
  8011bc:	11000317 	ldw	r4,12(r2)
  8011c0:	e1bffb03 	ldbu	r6,-20(fp)
  8011c4:	01402134 	movhi	r5,132
  8011c8:	295f3904 	addi	r5,r5,31972
  8011cc:	08050980 	call	805098 <fprintf>
         perror("\n[SSS]:  ERRNO: ");
  8011d0:	01002134 	movhi	r4,132
  8011d4:	211f3f04 	addi	r4,r4,31996
  8011d8:	08055800 	call	805580 <perror>
   }

   /* Process the error based on the fault level, 
    * reenable scheduler if appropriate. */     
   switch (fault_level) 
  8011dc:	e0bffa17 	ldw	r2,-24(fp)
  8011e0:	e0bfff15 	stw	r2,-4(fp)
  8011e4:	e0ffff17 	ldw	r3,-4(fp)
  8011e8:	18800060 	cmpeqi	r2,r3,1
  8011ec:	1000071e 	bne	r2,zero,80120c <alt_SSSErrorHandler+0x144>
  8011f0:	e0ffff17 	ldw	r3,-4(fp)
  8011f4:	18800070 	cmpltui	r2,r3,1
  8011f8:	10003f1e 	bne	r2,zero,8012f8 <alt_SSSErrorHandler+0x230>
  8011fc:	e0ffff17 	ldw	r3,-4(fp)
  801200:	188000a0 	cmpeqi	r2,r3,2
  801204:	10001d1e 	bne	r2,zero,80127c <alt_SSSErrorHandler+0x1b4>
  801208:	00005806 	br	80136c <alt_SSSErrorHandler+0x2a4>
   {
      case TASK:
         /* Error can be isolated by killing the task */
         printf("\n[SSS]: See STDERR (FAULT_LEVEL is TASK).");
  80120c:	01002134 	movhi	r4,132
  801210:	211f4404 	addi	r4,r4,32016
  801214:	08055940 	call	805594 <printf>
         fprintf(stderr, "\n[SSS]: FAULT_LEVEL is TASK");
  801218:	00802174 	movhi	r2,133
  80121c:	10b53504 	addi	r2,r2,-11052
  801220:	10800017 	ldw	r2,0(r2)
  801224:	11c00317 	ldw	r7,12(r2)
  801228:	01002134 	movhi	r4,132
  80122c:	211f4f04 	addi	r4,r4,32060
  801230:	01400044 	movi	r5,1
  801234:	018006c4 	movi	r6,27
  801238:	08051940 	call	805194 <fwrite>
         fprintf(stderr, "\n[SSS]: Task is being deleted.\n");
  80123c:	00802174 	movhi	r2,133
  801240:	10b53504 	addi	r2,r2,-11052
  801244:	10800017 	ldw	r2,0(r2)
  801248:	11c00317 	ldw	r7,12(r2)
  80124c:	01002134 	movhi	r4,132
  801250:	211f5604 	addi	r4,r4,32088
  801254:	01400044 	movi	r5,1
  801258:	018007c4 	movi	r6,31
  80125c:	08051940 	call	805194 <fwrite>
         OSSchedUnlock(); /* Reenable Task Switching */
  801260:	08100700 	call	810070 <OSSchedUnlock>
         OSTaskDel(OS_PRIO_SELF);
  801264:	01003fc4 	movi	r4,255
  801268:	08161280 	call	816128 <OSTaskDel>
         /* Invoke uCOSII error handler in case task deletion fails, in 
          * which case fault_level for this secondary error will be SYSTEM. */
         alt_uCOSIIErrorHandler(error_code, 0);         
  80126c:	e13ffb03 	ldbu	r4,-20(fp)
  801270:	000b883a 	mov	r5,zero
  801274:	080080c0 	call	80080c <alt_uCOSIIErrorHandler>
         break;
  801278:	00004806 	br	80139c <alt_SSSErrorHandler+0x2d4>
      case SYSTEM:
          /* Total System Failure, Restart Required */
         printf("\n[SSS]: See STDERR (FAULT_LEVEL is SYSTEM).");    
  80127c:	01002134 	movhi	r4,132
  801280:	211f5e04 	addi	r4,r4,32120
  801284:	08055940 	call	805594 <printf>
         fprintf(stderr, "\n[SSS]: FAULT_LEVEL is SYSTEM.");
  801288:	00802174 	movhi	r2,133
  80128c:	10b53504 	addi	r2,r2,-11052
  801290:	10800017 	ldw	r2,0(r2)
  801294:	11c00317 	ldw	r7,12(r2)
  801298:	01002134 	movhi	r4,132
  80129c:	211f6904 	addi	r4,r4,32164
  8012a0:	01400044 	movi	r5,1
  8012a4:	01800784 	movi	r6,30
  8012a8:	08051940 	call	805194 <fwrite>
         fprintf(stderr, "\n[SSS]: FATAL Error, Restart required.");
  8012ac:	00802174 	movhi	r2,133
  8012b0:	10b53504 	addi	r2,r2,-11052
  8012b4:	10800017 	ldw	r2,0(r2)
  8012b8:	11c00317 	ldw	r7,12(r2)
  8012bc:	01002134 	movhi	r4,132
  8012c0:	211f7104 	addi	r4,r4,32196
  8012c4:	01400044 	movi	r5,1
  8012c8:	01800984 	movi	r6,38
  8012cc:	08051940 	call	805194 <fwrite>
         fprintf(stderr, "\n[SSS]: Locking scheduler - endless loop.\n");
  8012d0:	00802174 	movhi	r2,133
  8012d4:	10b53504 	addi	r2,r2,-11052
  8012d8:	10800017 	ldw	r2,0(r2)
  8012dc:	11c00317 	ldw	r7,12(r2)
  8012e0:	01002134 	movhi	r4,132
  8012e4:	211f7b04 	addi	r4,r4,32236
  8012e8:	01400044 	movi	r5,1
  8012ec:	01800a84 	movi	r6,42
  8012f0:	08051940 	call	805194 <fwrite>
         while(1); /* Since scheduler is locked, loop halts all task activity.*/
  8012f4:	003fff06 	br	8012f4 <alt_SSSErrorHandler+0x22c>
         break;
      case NONE:
         fprintf(stderr, "\n[SSS] FAULT_LEVEL is NONE.");
  8012f8:	00802174 	movhi	r2,133
  8012fc:	10b53504 	addi	r2,r2,-11052
  801300:	10800017 	ldw	r2,0(r2)
  801304:	11c00317 	ldw	r7,12(r2)
  801308:	01002134 	movhi	r4,132
  80130c:	211f8604 	addi	r4,r4,32280
  801310:	01400044 	movi	r5,1
  801314:	018006c4 	movi	r6,27
  801318:	08051940 	call	805194 <fwrite>
         fprintf(stderr, 
  80131c:	00802174 	movhi	r2,133
  801320:	10b53504 	addi	r2,r2,-11052
  801324:	10800017 	ldw	r2,0(r2)
  801328:	11c00317 	ldw	r7,12(r2)
  80132c:	01002134 	movhi	r4,132
  801330:	211f8d04 	addi	r4,r4,32308
  801334:	01400044 	movi	r5,1
  801338:	01800f44 	movi	r6,61
  80133c:	08051940 	call	805194 <fwrite>
            "\n[SSS] Informational error only, control returned to task to ");
         fprintf(stderr,
  801340:	00802174 	movhi	r2,133
  801344:	10b53504 	addi	r2,r2,-11052
  801348:	10800017 	ldw	r2,0(r2)
  80134c:	11c00317 	ldw	r7,12(r2)
  801350:	01002134 	movhi	r4,132
  801354:	211f9d04 	addi	r4,r4,32372
  801358:	01400044 	movi	r5,1
  80135c:	01800b84 	movi	r6,46
  801360:	08051940 	call	805194 <fwrite>
            "complete processing at the application level.\n");
         OSSchedUnlock(); /* Reenable Task Switching */ 
  801364:	08100700 	call	810070 <OSSchedUnlock>
         return;         
  801368:	00000d06 	br	8013a0 <alt_SSSErrorHandler+0x2d8>
         break;
      default:
         printf("\n[SSS]: See STDERR (FAULT_LEVEL is Unknown).\n");
  80136c:	01002134 	movhi	r4,132
  801370:	211fa904 	addi	r4,r4,32420
  801374:	08058bc0 	call	8058bc <puts>
         fprintf(stderr, "\n[SSS] FAULT_LEVEL is unknown!?!\n");
  801378:	00802174 	movhi	r2,133
  80137c:	10b53504 	addi	r2,r2,-11052
  801380:	10800017 	ldw	r2,0(r2)
  801384:	11c00317 	ldw	r7,12(r2)
  801388:	01002134 	movhi	r4,132
  80138c:	211fb504 	addi	r4,r4,32468
  801390:	01400044 	movi	r5,1
  801394:	01800844 	movi	r6,33
  801398:	08051940 	call	805194 <fwrite>
   }
   while(1); /* Correct Program Flow never gets here. */
  80139c:	003fff06 	br	80139c <alt_SSSErrorHandler+0x2d4>
}
  8013a0:	e037883a 	mov	sp,fp
  8013a4:	dfc00117 	ldw	ra,4(sp)
  8013a8:	df000017 	ldw	fp,0(sp)
  8013ac:	dec00204 	addi	sp,sp,8
  8013b0:	f800283a 	ret

008013b4 <dm9000a_iow>:
int dm9ka_pkt_send(PACKET pkt);
int dm9ka_close(int iface);


void dm9000a_iow(unsigned int reg, unsigned int data)
{
  8013b4:	defffc04 	addi	sp,sp,-16
  8013b8:	dfc00315 	stw	ra,12(sp)
  8013bc:	df000215 	stw	fp,8(sp)
  8013c0:	df000204 	addi	fp,sp,8
  8013c4:	e13ffe15 	stw	r4,-8(fp)
  8013c8:	e17fff15 	stw	r5,-4(fp)
  IOWR(DM9000A_INST_BASE, IO_addr, reg);
  8013cc:	e0fffe17 	ldw	r3,-8(fp)
  8013d0:	00806a34 	movhi	r2,424
  8013d4:	10884004 	addi	r2,r2,8448
  8013d8:	10c00035 	stwio	r3,0(r2)
  usleep(STD_DELAY);
  8013dc:	01000044 	movi	r4,1
  8013e0:	080f0f40 	call	80f0f4 <usleep>
  IOWR(DM9000A_INST_BASE, IO_data, data);
  8013e4:	e0ffff17 	ldw	r3,-4(fp)
  8013e8:	00806a34 	movhi	r2,424
  8013ec:	10884104 	addi	r2,r2,8452
  8013f0:	10c00035 	stwio	r3,0(r2)
}
  8013f4:	e037883a 	mov	sp,fp
  8013f8:	dfc00117 	ldw	ra,4(sp)
  8013fc:	df000017 	ldw	fp,0(sp)
  801400:	dec00204 	addi	sp,sp,8
  801404:	f800283a 	ret

00801408 <dm9000a_ior>:
unsigned int dm9000a_ior(unsigned int reg)
{
  801408:	defffd04 	addi	sp,sp,-12
  80140c:	dfc00215 	stw	ra,8(sp)
  801410:	df000115 	stw	fp,4(sp)
  801414:	df000104 	addi	fp,sp,4
  801418:	e13fff15 	stw	r4,-4(fp)
  IOWR(DM9000A_INST_BASE, IO_addr, reg);
  80141c:	e0ffff17 	ldw	r3,-4(fp)
  801420:	00806a34 	movhi	r2,424
  801424:	10884004 	addi	r2,r2,8448
  801428:	10c00035 	stwio	r3,0(r2)
  usleep(STD_DELAY);
  80142c:	01000044 	movi	r4,1
  801430:	080f0f40 	call	80f0f4 <usleep>
  return IORD(DM9000A_INST_BASE, IO_data);
  801434:	00806a34 	movhi	r2,424
  801438:	10884104 	addi	r2,r2,8452
  80143c:	10800037 	ldwio	r2,0(r2)
}
  801440:	e037883a 	mov	sp,fp
  801444:	dfc00117 	ldw	ra,4(sp)
  801448:	df000017 	ldw	fp,0(sp)
  80144c:	dec00204 	addi	sp,sp,8
  801450:	f800283a 	ret

00801454 <phy_write>:

void phy_write(unsigned int reg, unsigned int value)
{ 
  801454:	defffc04 	addi	sp,sp,-16
  801458:	dfc00315 	stw	ra,12(sp)
  80145c:	df000215 	stw	fp,8(sp)
  801460:	df000204 	addi	fp,sp,8
  801464:	e13ffe15 	stw	r4,-8(fp)
  801468:	e17fff15 	stw	r5,-4(fp)
  /* set PHY register address into EPAR REG. 0CH */
  dm9000a_iow(0x0C, reg | 0x40); /* PHY register address setting,
  80146c:	e0bffe17 	ldw	r2,-8(fp)
  801470:	11401014 	ori	r5,r2,64
  801474:	01000304 	movi	r4,12
  801478:	08013b40 	call	8013b4 <dm9000a_iow>
			    and DM9000_PHY offset = 0x40 */

  /* fill PHY WRITE data into EPDR REG. 0EH & REG. 0DH */
  dm9000a_iow(0x0E, ((value >> 8) & 0xFF));   /* PHY data high_byte */
  80147c:	e0bfff17 	ldw	r2,-4(fp)
  801480:	1004d23a 	srli	r2,r2,8
  801484:	11403fcc 	andi	r5,r2,255
  801488:	01000384 	movi	r4,14
  80148c:	08013b40 	call	8013b4 <dm9000a_iow>
  dm9000a_iow(0x0D, value & 0xFF);            /* PHY data low_byte */
  801490:	e0bfff17 	ldw	r2,-4(fp)
  801494:	11403fcc 	andi	r5,r2,255
  801498:	01000344 	movi	r4,13
  80149c:	08013b40 	call	8013b4 <dm9000a_iow>

  /* issue PHY + WRITE command = 0xa into EPCR REG. 0BH */
  dm9000a_iow(0x0B, 0x8);                     /* clear PHY command first */
  8014a0:	010002c4 	movi	r4,11
  8014a4:	01400204 	movi	r5,8
  8014a8:	08013b40 	call	8013b4 <dm9000a_iow>
  IOWR(DM9000A_INST_BASE, IO_data, 0x0A);  /* issue PHY + WRITE command */
  8014ac:	00c06a34 	movhi	r3,424
  8014b0:	18c84104 	addi	r3,r3,8452
  8014b4:	00800284 	movi	r2,10
  8014b8:	18800035 	stwio	r2,0(r3)
  usleep(STD_DELAY);
  8014bc:	01000044 	movi	r4,1
  8014c0:	080f0f40 	call	80f0f4 <usleep>
  IOWR(DM9000A_INST_BASE, IO_data, 0x08);  /* clear PHY command again */
  8014c4:	00c06a34 	movhi	r3,424
  8014c8:	18c84104 	addi	r3,r3,8452
  8014cc:	00800204 	movi	r2,8
  8014d0:	18800035 	stwio	r2,0(r3)
  usleep(50);  /* wait 1~30 us (>20 us) for PHY + WRITE completion */
  8014d4:	01000c84 	movi	r4,50
  8014d8:	080f0f40 	call	80f0f4 <usleep>
}
  8014dc:	e037883a 	mov	sp,fp
  8014e0:	dfc00117 	ldw	ra,4(sp)
  8014e4:	df000017 	ldw	fp,0(sp)
  8014e8:	dec00204 	addi	sp,sp,8
  8014ec:	f800283a 	ret

008014f0 <dm9000a_reset>:

/* DM9000_init I/O routine */
unsigned int dm9000a_reset(unsigned char *mac_address)
{
  8014f0:	defffc04 	addi	sp,sp,-16
  8014f4:	dfc00315 	stw	ra,12(sp)
  8014f8:	df000215 	stw	fp,8(sp)
  8014fc:	df000204 	addi	fp,sp,8
  801500:	e13fff15 	stw	r4,-4(fp)
  unsigned int  i;
  /* set the internal PHY power-on (GPIOs normal settings) */
  dm9000a_iow(0x1E, 0x01);  /* GPCR REG. 1EH = 1 selected
  801504:	01000784 	movi	r4,30
  801508:	01400044 	movi	r5,1
  80150c:	08013b40 	call	8013b4 <dm9000a_iow>
                    		       GPIO0 "output" port for internal PHY */
  dm9000a_iow(0x1F, 0x00);  // GPR  REG. 1FH GEPIO0
  801510:	010007c4 	movi	r4,31
  801514:	000b883a 	mov	r5,zero
  801518:	08013b40 	call	8013b4 <dm9000a_iow>
                    		    //   Bit [0] = 0 to activate internal PHY */
  msleep(10);                // wait > 2 ms for PHY power-up ready 
  80151c:	0109c404 	movi	r4,10000
  801520:	080f0f40 	call	80f0f4 <usleep>

  /* software-RESET NIC */
  dm9000a_iow(NCR, 0x03);   /* NCR REG. 00 RST Bit [0] = 1 reset on,
  801524:	0009883a 	mov	r4,zero
  801528:	014000c4 	movi	r5,3
  80152c:	08013b40 	call	8013b4 <dm9000a_iow>
		                           and LBK Bit [2:1] = 01b MAC loopback on */
  
  usleep(20);               /* wait > 10us for a software-RESET ok */
  801530:	01000504 	movi	r4,20
  801534:	080f0f40 	call	80f0f4 <usleep>
  
  dm9000a_iow(NCR, 0x00);   /* normalize */
  801538:	0009883a 	mov	r4,zero
  80153c:	000b883a 	mov	r5,zero
  801540:	08013b40 	call	8013b4 <dm9000a_iow>
  dm9000a_iow(NCR, 0x03);
  801544:	0009883a 	mov	r4,zero
  801548:	014000c4 	movi	r5,3
  80154c:	08013b40 	call	8013b4 <dm9000a_iow>
  usleep(20);
  801550:	01000504 	movi	r4,20
  801554:	080f0f40 	call	80f0f4 <usleep>
  dm9000a_iow(NCR, 0x00);
  801558:	0009883a 	mov	r4,zero
  80155c:	000b883a 	mov	r5,zero
  801560:	08013b40 	call	8013b4 <dm9000a_iow>
  dm9000a_iow(ISR, 0x3F); /* clear the ISR status: PRS, PTS, ROS, ROOS 4 bits,
  801564:	01003f84 	movi	r4,254
  801568:	01400fc4 	movi	r5,63
  80156c:	08013b40 	call	8013b4 <dm9000a_iow>
                     		      by RW/C1 */
  dm9000a_iow(NSR, 0x2C); /* clear the TX status: TX1END, TX2END, WAKEUP 3 bits,
  801570:	01000044 	movi	r4,1
  801574:	01400b04 	movi	r5,44
  801578:	08013b40 	call	8013b4 <dm9000a_iow>
		                          by RW/C1 */

  /* set GPIO0=1 then GPIO0=0 to turn off and on the internal PHY */
  dm9000a_iow(0x1F, 0x01);  // GPR PHYPD Bit [0] = 1 turn-off PHY */
  80157c:	010007c4 	movi	r4,31
  801580:	01400044 	movi	r5,1
  801584:	08013b40 	call	8013b4 <dm9000a_iow>
  dm9000a_iow(0x1F, 0x00);  // PHYPD Bit [0] = 0 activate phyxcer */
  801588:	010007c4 	movi	r4,31
  80158c:	000b883a 	mov	r5,zero
  801590:	08013b40 	call	8013b4 <dm9000a_iow>
  msleep(20);               /* wait >4 ms for PHY power-up */
  801594:	01138804 	movi	r4,20000
  801598:	080f0f40 	call	80f0f4 <usleep>

  /* set PHY operation mode */

  phy_write(0,PHY_reset);   /* reset PHY registers back to the default state */
  80159c:	0009883a 	mov	r4,zero
  8015a0:	01600014 	movui	r5,32768
  8015a4:	08014540 	call	801454 <phy_write>
  usleep(50);               /* wait >30 us for PHY software-RESET ok */
  8015a8:	01000c84 	movi	r4,50
  8015ac:	080f0f40 	call	80f0f4 <usleep>
  phy_write(16, 0x404);     /* turn off PHY reduce-power-down mode only */
  8015b0:	01000404 	movi	r4,16
  8015b4:	01410104 	movi	r5,1028
  8015b8:	08014540 	call	801454 <phy_write>
  phy_write(4, PHY_txab);   /* set PHY TX advertised ability:
  8015bc:	01000104 	movi	r4,4
  8015c0:	01417844 	movi	r5,1505
  8015c4:	08014540 	call	801454 <phy_write>
                   			       ALL + Flow_control */  
  phy_write(0, 0x1200);     /* PHY auto-NEGO re-start enable
  8015c8:	0009883a 	mov	r4,zero
  8015cc:	01448004 	movi	r5,4608
  8015d0:	08014540 	call	801454 <phy_write>
                               (RESTART_AUTO_NEGOTIATION +
                               AUTO_NEGOTIATION_ENABLE)
                               to auto sense and recovery PHY registers */
  msleep(20);                /* wait >2 ms for PHY auto-sense
  8015d4:	01138804 	movi	r4,20000
  8015d8:	080f0f40 	call	80f0f4 <usleep>
			                         linking to partner */

  /* store MAC address into NIC */
  for (i = 0; i < 6; i++) 
  8015dc:	e03ffe15 	stw	zero,-8(fp)
  8015e0:	00000b06 	br	801610 <dm9000a_reset+0x120>
    dm9000a_iow(16 + i, mac_address[i]);
  8015e4:	e0bffe17 	ldw	r2,-8(fp)
  8015e8:	11000404 	addi	r4,r2,16
  8015ec:	e0fffe17 	ldw	r3,-8(fp)
  8015f0:	e0bfff17 	ldw	r2,-4(fp)
  8015f4:	1885883a 	add	r2,r3,r2
  8015f8:	10800003 	ldbu	r2,0(r2)
  8015fc:	11403fcc 	andi	r5,r2,255
  801600:	08013b40 	call	8013b4 <dm9000a_iow>
                               to auto sense and recovery PHY registers */
  msleep(20);                /* wait >2 ms for PHY auto-sense
			                         linking to partner */

  /* store MAC address into NIC */
  for (i = 0; i < 6; i++) 
  801604:	e0bffe17 	ldw	r2,-8(fp)
  801608:	10800044 	addi	r2,r2,1
  80160c:	e0bffe15 	stw	r2,-8(fp)
  801610:	e0bffe17 	ldw	r2,-8(fp)
  801614:	108001b0 	cmpltui	r2,r2,6
  801618:	103ff21e 	bne	r2,zero,8015e4 <dm9000a_reset+0xf4>
    dm9000a_iow(16 + i, mac_address[i]);

  /* clear any pending interrupt */
  dm9000a_iow(ISR, 0x3F); /* clear the ISR status: PRS, PTS, ROS, ROOS 4 bits,
  80161c:	01003f84 	movi	r4,254
  801620:	01400fc4 	movi	r5,63
  801624:	08013b40 	call	8013b4 <dm9000a_iow>
                     		      by RW/C1 */
  dm9000a_iow(NSR, 0x2C); /* clear the TX status: TX1END, TX2END, WAKEUP 3 bits,
  801628:	01000044 	movi	r4,1
  80162c:	01400b04 	movi	r5,44
  801630:	08013b40 	call	8013b4 <dm9000a_iow>
		                          by RW/C1 */

  /* program operating registers~ */
  dm9000a_iow(NCR, NCR_set); /* NCR REG. 00 enable the chip functions
  801634:	0009883a 	mov	r4,zero
  801638:	000b883a 	mov	r5,zero
  80163c:	08013b40 	call	8013b4 <dm9000a_iow>
                        (and disable this MAC loopback mode back to normal) */
  dm9000a_iow(0x08, BPTR_set); /* BPTR  REG.08  (if necessary) RX Back Pressure
  801640:	01000204 	movi	r4,8
  801644:	01400fc4 	movi	r5,63
  801648:	08013b40 	call	8013b4 <dm9000a_iow>
                                  Threshold in Half duplex moe only:
                                  High Water 3KB, 600 us */
  dm9000a_iow(0x09, FCTR_set);  /* FCTR  REG.09  (if necessary)
  80164c:	01000244 	movi	r4,9
  801650:	01401684 	movi	r5,90
  801654:	08013b40 	call	8013b4 <dm9000a_iow>
                                   Flow Control Threshold setting
                                   High/ Low Water Overflow 5KB/ 10KB */
  dm9000a_iow(0x0A, RTFCR_set); /* RTFCR REG.0AH (if necessary)
  801658:	01000284 	movi	r4,10
  80165c:	01400a44 	movi	r5,41
  801660:	08013b40 	call	8013b4 <dm9000a_iow>
                                   RX/TX Flow Control Register enable TXPEN, BKPM
                                   (TX_Half), FLCE (RX) */
  dm9000a_iow(0x0F, 0x00);      /* Clear the all Event */
  801664:	010003c4 	movi	r4,15
  801668:	000b883a 	mov	r5,zero
  80166c:	08013b40 	call	8013b4 <dm9000a_iow>
  // dm9000a_iow(0x2D, 0x80);      /* Switch LED to mode 1 */

  /* set other registers depending on applications */
  dm9000a_iow(ETXCSR, ETXCSR_set); /* Early Transmit 75% */
  801670:	01000c04 	movi	r4,48
  801674:	014020c4 	movi	r5,131
  801678:	08013b40 	call	8013b4 <dm9000a_iow>

  /* enable interrupts to activate DM9000 ~on */
  dm9000a_iow(IMR, INTR_set);   /* IMR REG. FFH PAR=1 only,
  80167c:	01003fc4 	movi	r4,255
  801680:	01402044 	movi	r5,129
  801684:	08013b40 	call	8013b4 <dm9000a_iow>
			                             or + PTM=1& PRM=1 enable RxTx interrupts */

  /* enable RX (Broadcast/ ALL_MULTICAST) ~go */
  dm9000a_iow(RCR, RCR_set | RX_ENABLE | PASS_MULTICAST);
  801688:	01000144 	movi	r4,5
  80168c:	01400e44 	movi	r5,57
  801690:	08013b40 	call	8013b4 <dm9000a_iow>
  /* RCR REG. 05 RXEN Bit [0] = 1 to enable the RX machine/ filter */

  /* RETURN "DEVICE_SUCCESS" back to upper layer */
  return  (dm9000a_ior(0x2D)==0x80) ? DMFE_SUCCESS : DMFE_FAIL;
  801694:	01000b44 	movi	r4,45
  801698:	08014080 	call	801408 <dm9000a_ior>
  80169c:	10802018 	cmpnei	r2,r2,128
}
  8016a0:	e037883a 	mov	sp,fp
  8016a4:	dfc00117 	ldw	ra,4(sp)
  8016a8:	df000017 	ldw	fp,0(sp)
  8016ac:	dec00204 	addi	sp,sp,8
  8016b0:	f800283a 	ret

008016b4 <TransmitPacket>:

unsigned int TransmitPacket(unsigned char *data_ptr, unsigned int tx_len)
{
  8016b4:	defffb04 	addi	sp,sp,-20
  8016b8:	dfc00415 	stw	ra,16(sp)
  8016bc:	df000315 	stw	fp,12(sp)
  8016c0:	df000304 	addi	fp,sp,12
  8016c4:	e13ffe15 	stw	r4,-8(fp)
  8016c8:	e17fff15 	stw	r5,-4(fp)
  unsigned int i;
  
  /* mask NIC interrupts IMR: PAR only */
  dm9000a_iow(IMR, PAR_set);
  8016cc:	01003fc4 	movi	r4,255
  8016d0:	01402004 	movi	r5,128
  8016d4:	08013b40 	call	8013b4 <dm9000a_iow>

  /* issue TX packet's length into TXPLH REG. FDH & TXPLL REG. FCH */
  dm9000a_iow(0xFD, (tx_len >> 8) & 0xFF);  /* TXPLH High_byte length */
  8016d8:	e0bfff17 	ldw	r2,-4(fp)
  8016dc:	1004d23a 	srli	r2,r2,8
  8016e0:	11403fcc 	andi	r5,r2,255
  8016e4:	01003f44 	movi	r4,253
  8016e8:	08013b40 	call	8013b4 <dm9000a_iow>
  dm9000a_iow(0xFC, tx_len & 0xFF);         /* TXPLL Low_byte  length */
  8016ec:	e0bfff17 	ldw	r2,-4(fp)
  8016f0:	11403fcc 	andi	r5,r2,255
  8016f4:	01003f04 	movi	r4,252
  8016f8:	08013b40 	call	8013b4 <dm9000a_iow>

  /* wirte transmit data to chip SRAM */
  IOWR(DM9000A_INST_BASE, IO_addr, MWCMD);  /* set MWCMD REG. F8H
  8016fc:	00c06a34 	movhi	r3,424
  801700:	18c84004 	addi	r3,r3,8448
  801704:	00803e04 	movi	r2,248
  801708:	18800035 	stwio	r2,0(r3)
					  TX I/O port ready */
  for (i = 0; i < tx_len; i += 2) {
  80170c:	e03ffd15 	stw	zero,-12(fp)
  801710:	00001506 	br	801768 <TransmitPacket+0xb4>
    usleep(STD_DELAY);
  801714:	01000044 	movi	r4,1
  801718:	080f0f40 	call	80f0f4 <usleep>
    IOWR(DM9000A_INST_BASE, IO_data, (data_ptr[i+1]<<8)|data_ptr[i] );
  80171c:	e0fffd17 	ldw	r3,-12(fp)
  801720:	e0bffe17 	ldw	r2,-8(fp)
  801724:	1885883a 	add	r2,r3,r2
  801728:	10800044 	addi	r2,r2,1
  80172c:	10800003 	ldbu	r2,0(r2)
  801730:	10803fcc 	andi	r2,r2,255
  801734:	1008923a 	slli	r4,r2,8
  801738:	e0fffd17 	ldw	r3,-12(fp)
  80173c:	e0bffe17 	ldw	r2,-8(fp)
  801740:	1885883a 	add	r2,r3,r2
  801744:	10800003 	ldbu	r2,0(r2)
  801748:	10803fcc 	andi	r2,r2,255
  80174c:	2086b03a 	or	r3,r4,r2
  801750:	00806a34 	movhi	r2,424
  801754:	10884104 	addi	r2,r2,8452
  801758:	10c00035 	stwio	r3,0(r2)
  dm9000a_iow(0xFC, tx_len & 0xFF);         /* TXPLL Low_byte  length */

  /* wirte transmit data to chip SRAM */
  IOWR(DM9000A_INST_BASE, IO_addr, MWCMD);  /* set MWCMD REG. F8H
					  TX I/O port ready */
  for (i = 0; i < tx_len; i += 2) {
  80175c:	e0bffd17 	ldw	r2,-12(fp)
  801760:	10800084 	addi	r2,r2,2
  801764:	e0bffd15 	stw	r2,-12(fp)
  801768:	e0fffd17 	ldw	r3,-12(fp)
  80176c:	e0bfff17 	ldw	r2,-4(fp)
  801770:	18bfe836 	bltu	r3,r2,801714 <TransmitPacket+0x60>
    usleep(STD_DELAY);
    IOWR(DM9000A_INST_BASE, IO_data, (data_ptr[i+1]<<8)|data_ptr[i] );
  }

  /* issue TX polling command activated */
  dm9000a_iow(TCR , TCR_set | TX_REQUEST);  /* TXCR Bit [0] TXREQ auto clear
  801774:	01000084 	movi	r4,2
  801778:	01400044 	movi	r5,1
  80177c:	08013b40 	call	8013b4 <dm9000a_iow>
				       after TX completed */

  /* wait for transmit complete */
  while(!(dm9000a_ior(NSR)&0x0C)) {
  801780:	00000206 	br	80178c <TransmitPacket+0xd8>
    usleep(STD_DELAY);
  801784:	01000044 	movi	r4,1
  801788:	080f0f40 	call	80f0f4 <usleep>
  /* issue TX polling command activated */
  dm9000a_iow(TCR , TCR_set | TX_REQUEST);  /* TXCR Bit [0] TXREQ auto clear
				       after TX completed */

  /* wait for transmit complete */
  while(!(dm9000a_ior(NSR)&0x0C)) {
  80178c:	01000044 	movi	r4,1
  801790:	08014080 	call	801408 <dm9000a_ior>
  801794:	1080030c 	andi	r2,r2,12
  801798:	1005003a 	cmpeq	r2,r2,zero
  80179c:	103ff91e 	bne	r2,zero,801784 <TransmitPacket+0xd0>
    usleep(STD_DELAY);
  }

  /* clear the NSR Register */
  dm9000a_iow(NSR,0x00);
  8017a0:	01000044 	movi	r4,1
  8017a4:	000b883a 	mov	r5,zero
  8017a8:	08013b40 	call	8013b4 <dm9000a_iow>

  /* re-enable NIC interrupts */
  dm9000a_iow(IMR, INTR_set);
  8017ac:	01003fc4 	movi	r4,255
  8017b0:	01402044 	movi	r5,129
  8017b4:	08013b40 	call	8013b4 <dm9000a_iow>

  /* RETURN "TX_SUCCESS" to upper layer */
  return  DMFE_SUCCESS;
  8017b8:	0005883a 	mov	r2,zero
}
  8017bc:	e037883a 	mov	sp,fp
  8017c0:	dfc00117 	ldw	ra,4(sp)
  8017c4:	df000017 	ldw	fp,0(sp)
  8017c8:	dec00204 	addi	sp,sp,8
  8017cc:	f800283a 	ret

008017d0 <prep_dm9000a>:
#ifndef MTU
#define MTU 1514
#endif

int prep_dm9000a(int index)
{  
  8017d0:	defffa04 	addi	sp,sp,-24
  8017d4:	dfc00515 	stw	ra,20(sp)
  8017d8:	df000415 	stw	fp,16(sp)
  8017dc:	dc000315 	stw	r16,12(sp)
  8017e0:	df000304 	addi	fp,sp,12
  8017e4:	e13fff15 	stw	r4,-4(fp)
  DM9KA dm9ka = &g_dm9ka;
  8017e8:	00802174 	movhi	r2,133
  8017ec:	10b7b004 	addi	r2,r2,-8512
  8017f0:	e0bffe15 	stw	r2,-8(fp)
  NET ifp;

  ifp = nets[index];
  8017f4:	e0bfff17 	ldw	r2,-4(fp)
  8017f8:	00c02174 	movhi	r3,133
  8017fc:	18dd2d04 	addi	r3,r3,29876
  801800:	1085883a 	add	r2,r2,r2
  801804:	1085883a 	add	r2,r2,r2
  801808:	10c5883a 	add	r2,r2,r3
  80180c:	10800017 	ldw	r2,0(r2)
  801810:	e0bffd15 	stw	r2,-12(fp)
  ifp->n_mib->ifAdminStatus = 2;   /* status = down */
  801814:	e0bffd17 	ldw	r2,-12(fp)
  801818:	10c02717 	ldw	r3,156(r2)
  80181c:	00800084 	movi	r2,2
  801820:	18800615 	stw	r2,24(r3)
  ifp->n_mib->ifOperStatus = 2;    /* will be set up in init()  */
  801824:	e0bffd17 	ldw	r2,-12(fp)
  801828:	10c02717 	ldw	r3,156(r2)
  80182c:	00800084 	movi	r2,2
  801830:	18800715 	stw	r2,28(r3)
  ifp->n_mib->ifLastChange = cticks * (100/TPS);
  801834:	e0bffd17 	ldw	r2,-12(fp)
  801838:	14002717 	ldw	r16,156(r2)
  80183c:	00802174 	movhi	r2,133
  801840:	10b5d904 	addi	r2,r2,-10396
  801844:	11000017 	ldw	r4,0(r2)
  801848:	08048a00 	call	8048a0 <__floatunsidf>
  80184c:	100b883a 	mov	r5,r2
  801850:	180d883a 	mov	r6,r3
  801854:	2809883a 	mov	r4,r5
  801858:	300b883a 	mov	r5,r6
  80185c:	01a666b4 	movhi	r6,39322
  801860:	31a66684 	addi	r6,r6,-26214
  801864:	01cfeeb4 	movhi	r7,16314
  801868:	39e66644 	addi	r7,r7,-26215
  80186c:	080437c0 	call	80437c <__muldf3>
  801870:	1009883a 	mov	r4,r2
  801874:	180b883a 	mov	r5,r3
  801878:	2005883a 	mov	r2,r4
  80187c:	2807883a 	mov	r3,r5
  801880:	1009883a 	mov	r4,r2
  801884:	180b883a 	mov	r5,r3
  801888:	0803dd40 	call	803dd4 <__fixunsdfsi>
  80188c:	80800815 	stw	r2,32(r16)
  ifp->n_mib->ifPhysAddress = (u_char*)dm9ka->mac_addr;
  801890:	e0bffd17 	ldw	r2,-12(fp)
  801894:	10c02717 	ldw	r3,156(r2)
  801898:	e0bffe17 	ldw	r2,-8(fp)
  80189c:	10800204 	addi	r2,r2,8
  8018a0:	18800515 	stw	r2,20(r3)
  ifp->n_mib->ifDescr = (u_char*)"DM9000A series ethernet";
  8018a4:	e0bffd17 	ldw	r2,-12(fp)
  8018a8:	10c02717 	ldw	r3,156(r2)
  8018ac:	00802134 	movhi	r2,132
  8018b0:	109fbe04 	addi	r2,r2,32504
  8018b4:	18800115 	stw	r2,4(r3)
  ifp->n_lnh = ETHHDR_SIZE;        /* ethernet header size */
  8018b8:	e0fffd17 	ldw	r3,-12(fp)
  8018bc:	00800404 	movi	r2,16
  8018c0:	18800815 	stw	r2,32(r3)
  ifp->n_hal = 6;                  /* hardware address length */
  8018c4:	e0fffd17 	ldw	r3,-12(fp)
  8018c8:	00800184 	movi	r2,6
  8018cc:	18801115 	stw	r2,68(r3)
  ifp->n_mib->ifType = ETHERNET;   /* device type */
  8018d0:	e0bffd17 	ldw	r2,-12(fp)
  8018d4:	10c02717 	ldw	r3,156(r2)
  8018d8:	00800184 	movi	r2,6
  8018dc:	18800215 	stw	r2,8(r3)
  ifp->n_mtu = MTU;                /* max frame size */
  8018e0:	e0fffd17 	ldw	r3,-12(fp)
  8018e4:	00817a84 	movi	r2,1514
  8018e8:	18800915 	stw	r2,36(r3)
  
  /* install our hardware driver routines */
  ifp->n_init   = dm9ka_init;
  8018ec:	e0fffd17 	ldw	r3,-12(fp)
  8018f0:	00802034 	movhi	r2,128
  8018f4:	10879f04 	addi	r2,r2,7804
  8018f8:	18800215 	stw	r2,8(r3)
  ifp->pkt_send = dm9ka_pkt_send;
  8018fc:	e0fffd17 	ldw	r3,-12(fp)
  801900:	00802034 	movhi	r2,128
  801904:	10883804 	addi	r2,r2,8416
  801908:	18800415 	stw	r2,16(r3)
  ifp->n_close  = dm9ka_close;
  80190c:	e0fffd17 	ldw	r3,-12(fp)
  801910:	00802034 	movhi	r2,128
  801914:	1087dd04 	addi	r2,r2,8052
  801918:	18800515 	stw	r2,20(r3)
  ifp->n_stats  = dm9ka_stats;
  80191c:	e0fffd17 	ldw	r3,-12(fp)
  801920:	00802034 	movhi	r2,128
  801924:	10882104 	addi	r2,r2,8324
  801928:	18800715 	stw	r2,28(r3)

#ifdef IP_V6
  ifp->n_flags |= (NF_NBPROT | NF_IPV6);
#else
  ifp->n_flags |= NF_NBPROT;
  80192c:	e0bffd17 	ldw	r2,-12(fp)
  801930:	10802a17 	ldw	r2,168(r2)
  801934:	10c00214 	ori	r3,r2,8
  801938:	e0bffd17 	ldw	r2,-12(fp)
  80193c:	10c02a15 	stw	r3,168(r2)
#endif

  get_mac_addr(dm9ka->netp, dm9ka->mac_addr);
  801940:	e0bffe17 	ldw	r2,-8(fp)
  801944:	11000417 	ldw	r4,16(r2)
  801948:	e0bffe17 	ldw	r2,-8(fp)
  80194c:	10800204 	addi	r2,r2,8
  801950:	100b883a 	mov	r5,r2
  801954:	0802ca00 	call	802ca0 <get_mac_addr>
    
  /* set cross-pointers between iface and smsc structs */
  dm9ka->netp    = ifp;
  801958:	e0fffe17 	ldw	r3,-8(fp)
  80195c:	e0bffd17 	ldw	r2,-12(fp)
  801960:	18800415 	stw	r2,16(r3)
  dm9ka->intnum  = DM9000A_INST_IRQ;
  801964:	e0fffe17 	ldw	r3,-8(fp)
  801968:	00800184 	movi	r2,6
  80196c:	18800015 	stw	r2,0(r3)
  dm9ka->regbase = DM9000A_INST_BASE;
  801970:	e0fffe17 	ldw	r3,-8(fp)
  801974:	00806a34 	movhi	r2,424
  801978:	10884004 	addi	r2,r2,8448
  80197c:	18800115 	stw	r2,4(r3)
  dm9ka->sending = 0;
  801980:	e0bffe17 	ldw	r2,-8(fp)
  801984:	10000a15 	stw	zero,40(r2)
  dm9ka->rx_ints = 0;
  801988:	e0bffe17 	ldw	r2,-8(fp)
  80198c:	10000f15 	stw	zero,60(r2)
  dm9ka->tx_ints = 0;
  801990:	e0bffe17 	ldw	r2,-8(fp)
  801994:	10001015 	stw	zero,64(r2)
  dm9ka->rcv_len = 0;
  801998:	e0bffe17 	ldw	r2,-8(fp)
  80199c:	10000e15 	stw	zero,56(r2)
  dm9ka->snd_len = 0;
  8019a0:	e0bffe17 	ldw	r2,-8(fp)
  8019a4:	10000c15 	stw	zero,48(r2)
  dm9ka->tosend.q_len = 0;
  8019a8:	e0bffe17 	ldw	r2,-8(fp)
  8019ac:	10000715 	stw	zero,28(r2)
  dm9ka->tosend.q_max = 0;
  8019b0:	e0bffe17 	ldw	r2,-8(fp)
  8019b4:	10000815 	stw	zero,32(r2)
  
  ifp->n_local = (void*)dm9ka;
  8019b8:	e0fffd17 	ldw	r3,-12(fp)
  8019bc:	e0bffe17 	ldw	r2,-8(fp)
  8019c0:	18802815 	stw	r2,160(r3)

  return ++index;
  8019c4:	e0bfff17 	ldw	r2,-4(fp)
  8019c8:	10800044 	addi	r2,r2,1
  8019cc:	e0bfff15 	stw	r2,-4(fp)
  8019d0:	e0bfff17 	ldw	r2,-4(fp)
}
  8019d4:	e037883a 	mov	sp,fp
  8019d8:	dfc00217 	ldw	ra,8(sp)
  8019dc:	df000117 	ldw	fp,4(sp)
  8019e0:	dc000017 	ldw	r16,0(sp)
  8019e4:	dec00304 	addi	sp,sp,12
  8019e8:	f800283a 	ret

008019ec <dm9000a_init>:

/* HAL init ...
 * just init dev structs and let the stack know we are here
 */
error_t dm9000a_init(alt_iniche_dev *p_dev)
{
  8019ec:	defffd04 	addi	sp,sp,-12
  8019f0:	dfc00215 	stw	ra,8(sp)
  8019f4:	df000115 	stw	fp,4(sp)
  8019f8:	df000104 	addi	fp,sp,4
  8019fc:	e13fff15 	stw	r4,-4(fp)
  prep_dm9000a(p_dev->if_num);
  801a00:	e0bfff17 	ldw	r2,-4(fp)
  801a04:	11000517 	ldw	r4,20(r2)
  801a08:	08017d00 	call	8017d0 <prep_dm9000a>
  return 0;  
  801a0c:	0005883a 	mov	r2,zero
}
  801a10:	e037883a 	mov	sp,fp
  801a14:	dfc00117 	ldw	ra,4(sp)
  801a18:	df000017 	ldw	fp,0(sp)
  801a1c:	dec00204 	addi	sp,sp,8
  801a20:	f800283a 	ret

00801a24 <dm9000a_rxReady>:

static unsigned char dm9000a_rxReady(DM9KA dm9ka)
{
  801a24:	defffc04 	addi	sp,sp,-16
  801a28:	dfc00315 	stw	ra,12(sp)
  801a2c:	df000215 	stw	fp,8(sp)
  801a30:	df000204 	addi	fp,sp,8
  801a34:	e13fff15 	stw	r4,-4(fp)
  unsigned char rv = 0;
  801a38:	e03ffe05 	stb	zero,-8(fp)
  /* dummy read a byte from MRCMDX REG. F0H */
  rv = dm9000a_ior(MRCMDX);
  801a3c:	01003c04 	movi	r4,240
  801a40:	08014080 	call	801408 <dm9000a_ior>
  801a44:	e0bffe05 	stb	r2,-8(fp)
  /* got most updated byte: rx_READY */
  rv = IORD(dm9ka->regbase, IO_data) & 0x03;  
  801a48:	e0bfff17 	ldw	r2,-4(fp)
  801a4c:	10800117 	ldw	r2,4(r2)
  801a50:	10800104 	addi	r2,r2,4
  801a54:	10800037 	ldwio	r2,0(r2)
  801a58:	108000cc 	andi	r2,r2,3
  801a5c:	e0bffe05 	stb	r2,-8(fp)
  return rv;
  801a60:	e0bffe03 	ldbu	r2,-8(fp)
}
  801a64:	e037883a 	mov	sp,fp
  801a68:	dfc00117 	ldw	ra,4(sp)
  801a6c:	df000017 	ldw	fp,0(sp)
  801a70:	dec00204 	addi	sp,sp,8
  801a74:	f800283a 	ret

00801a78 <dm9000a_isr>:

static void dm9000a_isr(int iface)
{
  801a78:	defff404 	addi	sp,sp,-48
  801a7c:	dfc00b15 	stw	ra,44(sp)
  801a80:	df000a15 	stw	fp,40(sp)
  801a84:	df000a04 	addi	fp,sp,40
  801a88:	e13fff15 	stw	r4,-4(fp)
  unsigned char rx_rdy, istatus;
  unsigned int  tmp, rx_sts, i, rx_len;
  struct ethhdr * eth;
  PACKET pkt;
  DM9KA dm9ka = (DM9KA)nets[iface]->n_local;
  801a8c:	e0bfff17 	ldw	r2,-4(fp)
  801a90:	00c02174 	movhi	r3,133
  801a94:	18dd2d04 	addi	r3,r3,29876
  801a98:	1085883a 	add	r2,r2,r2
  801a9c:	1085883a 	add	r2,r2,r2
  801aa0:	10c5883a 	add	r2,r2,r3
  801aa4:	10800017 	ldw	r2,0(r2)
  801aa8:	10802817 	ldw	r2,160(r2)
  801aac:	e0bff715 	stw	r2,-36(fp)
  
  /* mask NIC interrupts IMR: PAR only */
  dm9000a_iow(IMR, PAR_set);
  801ab0:	01003fc4 	movi	r4,255
  801ab4:	01402004 	movi	r5,128
  801ab8:	08013b40 	call	8013b4 <dm9000a_iow>
  istatus = dm9000a_ior(ISR);
  801abc:	01003f84 	movi	r4,254
  801ac0:	08014080 	call	801408 <dm9000a_ior>
  801ac4:	e0bffe05 	stb	r2,-8(fp)

  rx_rdy = dm9000a_rxReady(dm9ka);  
  801ac8:	e13ff717 	ldw	r4,-36(fp)
  801acc:	0801a240 	call	801a24 <dm9000a_rxReady>
  801ad0:	e0bffe45 	stb	r2,-7(fp)
  usleep(STD_DELAY);
  801ad4:	01000044 	movi	r4,1
  801ad8:	080f0f40 	call	80f0f4 <usleep>
  
  while(rx_rdy == DM9000_PKT_READY)
  801adc:	00009406 	br	801d30 <dm9000a_isr+0x2b8>
  {
    /* get RX Status & Length from RX SRAM */
    /* set MRCMD REG. F2H RX I/O port ready */    
    IOWR(dm9ka->regbase, IO_addr, MRCMD); 
  801ae0:	e0bff717 	ldw	r2,-36(fp)
  801ae4:	10800117 	ldw	r2,4(r2)
  801ae8:	1007883a 	mov	r3,r2
  801aec:	00803c84 	movi	r2,242
  801af0:	18800035 	stwio	r2,0(r3)
    usleep(STD_DELAY);
  801af4:	01000044 	movi	r4,1
  801af8:	080f0f40 	call	80f0f4 <usleep>
    rx_sts = IORD(dm9ka->regbase,IO_data);
  801afc:	e0bff717 	ldw	r2,-36(fp)
  801b00:	10800117 	ldw	r2,4(r2)
  801b04:	10800104 	addi	r2,r2,4
  801b08:	10800037 	ldwio	r2,0(r2)
  801b0c:	e0bffc15 	stw	r2,-16(fp)
    usleep(STD_DELAY);
  801b10:	01000044 	movi	r4,1
  801b14:	080f0f40 	call	80f0f4 <usleep>
    rx_len = IORD(dm9ka->regbase,IO_data);
  801b18:	e0bff717 	ldw	r2,-36(fp)
  801b1c:	10800117 	ldw	r2,4(r2)
  801b20:	10800104 	addi	r2,r2,4
  801b24:	10800037 	ldwio	r2,0(r2)
  801b28:	e0bffa15 	stw	r2,-24(fp)
    
    /* Check this packet_status: GOOD or BAD? */
    if( !(rx_sts & 0xBF00) && (rx_len < MAX_PACKET_SIZE) )
  801b2c:	e0bffc17 	ldw	r2,-16(fp)
  801b30:	10afc00c 	andi	r2,r2,48896
  801b34:	1004c03a 	cmpne	r2,r2,zero
  801b38:	1000661e 	bne	r2,zero,801cd4 <dm9000a_isr+0x25c>
  801b3c:	e0bffa17 	ldw	r2,-24(fp)
  801b40:	10817ca8 	cmpgeui	r2,r2,1522
  801b44:	1000631e 	bne	r2,zero,801cd4 <dm9000a_isr+0x25c>
    {
      if ((pkt = pk_alloc(rx_len + ETHHDR_BIAS)) == NULL)   
  801b48:	e0bffa17 	ldw	r2,-24(fp)
  801b4c:	11000084 	addi	r4,r2,2
  801b50:	082560c0 	call	82560c <pk_alloc>
  801b54:	e0bff815 	stw	r2,-32(fp)
  801b58:	e0bff817 	ldw	r2,-32(fp)
  801b5c:	1004c03a 	cmpne	r2,r2,zero
  801b60:	1000161e 	bne	r2,zero,801bbc <dm9000a_isr+0x144>
      { /* couldn't get a free buffer for rx */
        dm9ka->netp->n_mib->ifInDiscards++;
  801b64:	e0bff717 	ldw	r2,-36(fp)
  801b68:	10800417 	ldw	r2,16(r2)
  801b6c:	10c02717 	ldw	r3,156(r2)
  801b70:	18800c17 	ldw	r2,48(r3)
  801b74:	10800044 	addi	r2,r2,1
  801b78:	18800c15 	stw	r2,48(r3)
        /* treat packet as bad, dump it from RX SRAM */
        for (i = 0; i < rx_len; i += 2) {
  801b7c:	e03ffb15 	stw	zero,-20(fp)
  801b80:	00000a06 	br	801bac <dm9000a_isr+0x134>
          usleep(STD_DELAY);
  801b84:	01000044 	movi	r4,1
  801b88:	080f0f40 	call	80f0f4 <usleep>
          tmp = IORD(dm9ka->regbase, IO_data);
  801b8c:	e0bff717 	ldw	r2,-36(fp)
  801b90:	10800117 	ldw	r2,4(r2)
  801b94:	10800104 	addi	r2,r2,4
  801b98:	10800037 	ldwio	r2,0(r2)
  801b9c:	e0bffd15 	stw	r2,-12(fp)
    {
      if ((pkt = pk_alloc(rx_len + ETHHDR_BIAS)) == NULL)   
      { /* couldn't get a free buffer for rx */
        dm9ka->netp->n_mib->ifInDiscards++;
        /* treat packet as bad, dump it from RX SRAM */
        for (i = 0; i < rx_len; i += 2) {
  801ba0:	e0bffb17 	ldw	r2,-20(fp)
  801ba4:	10800084 	addi	r2,r2,2
  801ba8:	e0bffb15 	stw	r2,-20(fp)
  801bac:	e0fffb17 	ldw	r3,-20(fp)
  801bb0:	e0bffa17 	ldw	r2,-24(fp)
  801bb4:	18bff336 	bltu	r3,r2,801b84 <dm9000a_isr+0x10c>
  801bb8:	00005606 	br	801d14 <dm9000a_isr+0x29c>
          tmp = IORD(dm9ka->regbase, IO_data);
        }
      }
      else
      { /* packet allocation succeeded */
        unsigned char* data_ptr = pkt->nb_buff + ETHHDR_BIAS;
  801bbc:	e0bff817 	ldw	r2,-32(fp)
  801bc0:	10800117 	ldw	r2,4(r2)
  801bc4:	10800084 	addi	r2,r2,2
  801bc8:	e0bff615 	stw	r2,-40(fp)
        /* read 1 received packet from RX SRAM into RX packet buffer */
        for (i = 0; i < rx_len; i += 2) {
  801bcc:	e03ffb15 	stw	zero,-20(fp)
  801bd0:	00001906 	br	801c38 <dm9000a_isr+0x1c0>
          usleep(STD_DELAY);
  801bd4:	01000044 	movi	r4,1
  801bd8:	080f0f40 	call	80f0f4 <usleep>
          tmp = IORD(dm9ka->regbase, IO_data);
  801bdc:	e0bff717 	ldw	r2,-36(fp)
  801be0:	10800117 	ldw	r2,4(r2)
  801be4:	10800104 	addi	r2,r2,4
  801be8:	10800037 	ldwio	r2,0(r2)
  801bec:	e0bffd15 	stw	r2,-12(fp)
          *data_ptr++ = tmp & 0xFF;
  801bf0:	e0bffd17 	ldw	r2,-12(fp)
  801bf4:	1007883a 	mov	r3,r2
  801bf8:	e0bff617 	ldw	r2,-40(fp)
  801bfc:	10c00005 	stb	r3,0(r2)
  801c00:	e0bff617 	ldw	r2,-40(fp)
  801c04:	10800044 	addi	r2,r2,1
  801c08:	e0bff615 	stw	r2,-40(fp)
          *data_ptr++ = (tmp>>8) & 0xFF;
  801c0c:	e0bffd17 	ldw	r2,-12(fp)
  801c10:	1004d23a 	srli	r2,r2,8
  801c14:	1007883a 	mov	r3,r2
  801c18:	e0bff617 	ldw	r2,-40(fp)
  801c1c:	10c00005 	stb	r3,0(r2)
  801c20:	e0bff617 	ldw	r2,-40(fp)
  801c24:	10800044 	addi	r2,r2,1
  801c28:	e0bff615 	stw	r2,-40(fp)
      }
      else
      { /* packet allocation succeeded */
        unsigned char* data_ptr = pkt->nb_buff + ETHHDR_BIAS;
        /* read 1 received packet from RX SRAM into RX packet buffer */
        for (i = 0; i < rx_len; i += 2) {
  801c2c:	e0bffb17 	ldw	r2,-20(fp)
  801c30:	10800084 	addi	r2,r2,2
  801c34:	e0bffb15 	stw	r2,-20(fp)
  801c38:	e0fffb17 	ldw	r3,-20(fp)
  801c3c:	e0bffa17 	ldw	r2,-24(fp)
  801c40:	18bfe436 	bltu	r3,r2,801bd4 <dm9000a_isr+0x15c>
          tmp = IORD(dm9ka->regbase, IO_data);
          *data_ptr++ = tmp & 0xFF;
          *data_ptr++ = (tmp>>8) & 0xFF;
        }

        pkt->nb_prot = pkt->nb_buff + ETHHDR_SIZE;
  801c44:	e0bff817 	ldw	r2,-32(fp)
  801c48:	10800117 	ldw	r2,4(r2)
  801c4c:	10c00404 	addi	r3,r2,16
  801c50:	e0bff817 	ldw	r2,-32(fp)
  801c54:	10c00315 	stw	r3,12(r2)
        pkt->nb_plen = rx_len - 14;
  801c58:	e0bffa17 	ldw	r2,-24(fp)
  801c5c:	10fffc84 	addi	r3,r2,-14
  801c60:	e0bff817 	ldw	r2,-32(fp)
  801c64:	10c00415 	stw	r3,16(r2)
        pkt->nb_tstamp = cticks;
  801c68:	00802174 	movhi	r2,133
  801c6c:	10b5d904 	addi	r2,r2,-10396
  801c70:	10800017 	ldw	r2,0(r2)
  801c74:	1007883a 	mov	r3,r2
  801c78:	e0bff817 	ldw	r2,-32(fp)
  801c7c:	10c00515 	stw	r3,20(r2)
        pkt->net = dm9ka->netp;
  801c80:	e0bff717 	ldw	r2,-36(fp)
  801c84:	10c00417 	ldw	r3,16(r2)
  801c88:	e0bff817 	ldw	r2,-32(fp)
  801c8c:	10c00615 	stw	r3,24(r2)

        /* set packet type for demux routine */
        eth = (struct ethhdr *)(pkt->nb_buff + ETHHDR_BIAS);
  801c90:	e0bff817 	ldw	r2,-32(fp)
  801c94:	10800117 	ldw	r2,4(r2)
  801c98:	10800084 	addi	r2,r2,2
  801c9c:	e0bff915 	stw	r2,-28(fp)
        pkt->type = eth->e_type;
  801ca0:	e0bff917 	ldw	r2,-28(fp)
  801ca4:	10c0030b 	ldhu	r3,12(r2)
  801ca8:	e0bff817 	ldw	r2,-32(fp)
  801cac:	10c0080d 	sth	r3,32(r2)

        /* shove packet into iniche stack's recv queue */
        //printf("rx: 0x%x l %d s %x:%x:%x\n", eth->e_type, rx_len,
        //       eth->e_src[0], eth->e_src[1], eth->e_src[2]);
        putq(&rcvdq, pkt);
  801cb0:	01002174 	movhi	r4,133
  801cb4:	211c6804 	addi	r4,r4,29088
  801cb8:	e17ff817 	ldw	r5,-32(fp)
  801cbc:	0825be00 	call	825be0 <putq>
        SignalPktDemux();
  801cc0:	00802174 	movhi	r2,133
  801cc4:	10b5dc04 	addi	r2,r2,-10384
  801cc8:	11000017 	ldw	r4,0(r2)
  801ccc:	08154840 	call	815484 <OSSemPost>
    rx_sts = IORD(dm9ka->regbase,IO_data);
    usleep(STD_DELAY);
    rx_len = IORD(dm9ka->regbase,IO_data);
    
    /* Check this packet_status: GOOD or BAD? */
    if( !(rx_sts & 0xBF00) && (rx_len < MAX_PACKET_SIZE) )
  801cd0:	00001006 	br	801d14 <dm9000a_isr+0x29c>
        putq(&rcvdq, pkt);
        SignalPktDemux();
      }      
    } else {
      /* this packet is bad, dump it from RX SRAM */
      for (i = 0; i < rx_len; i += 2) {
  801cd4:	e03ffb15 	stw	zero,-20(fp)
  801cd8:	00000a06 	br	801d04 <dm9000a_isr+0x28c>
        usleep(STD_DELAY);
  801cdc:	01000044 	movi	r4,1
  801ce0:	080f0f40 	call	80f0f4 <usleep>
        tmp = IORD(dm9ka->regbase, IO_data);
  801ce4:	e0bff717 	ldw	r2,-36(fp)
  801ce8:	10800117 	ldw	r2,4(r2)
  801cec:	10800104 	addi	r2,r2,4
  801cf0:	10800037 	ldwio	r2,0(r2)
  801cf4:	e0bffd15 	stw	r2,-12(fp)
        putq(&rcvdq, pkt);
        SignalPktDemux();
      }      
    } else {
      /* this packet is bad, dump it from RX SRAM */
      for (i = 0; i < rx_len; i += 2) {
  801cf8:	e0bffb17 	ldw	r2,-20(fp)
  801cfc:	10800084 	addi	r2,r2,2
  801d00:	e0bffb15 	stw	r2,-20(fp)
  801d04:	e0fffb17 	ldw	r3,-20(fp)
  801d08:	e0bffa17 	ldw	r2,-24(fp)
  801d0c:	18bff336 	bltu	r3,r2,801cdc <dm9000a_isr+0x264>
        usleep(STD_DELAY);
        tmp = IORD(dm9ka->regbase, IO_data);
      }
      rx_len = 0;
  801d10:	e03ffa15 	stw	zero,-24(fp)
    }

    usleep(STD_DELAY);
  801d14:	01000044 	movi	r4,1
  801d18:	080f0f40 	call	80f0f4 <usleep>
    rx_rdy = dm9000a_rxReady(dm9ka);
  801d1c:	e13ff717 	ldw	r4,-36(fp)
  801d20:	0801a240 	call	801a24 <dm9000a_rxReady>
  801d24:	e0bffe45 	stb	r2,-7(fp)
    usleep(STD_DELAY);    
  801d28:	01000044 	movi	r4,1
  801d2c:	080f0f40 	call	80f0f4 <usleep>
  istatus = dm9000a_ior(ISR);

  rx_rdy = dm9000a_rxReady(dm9ka);  
  usleep(STD_DELAY);
  
  while(rx_rdy == DM9000_PKT_READY)
  801d30:	e0bffe43 	ldbu	r2,-7(fp)
  801d34:	10800060 	cmpeqi	r2,r2,1
  801d38:	103f691e 	bne	r2,zero,801ae0 <dm9000a_isr+0x68>
    usleep(STD_DELAY);
    rx_rdy = dm9000a_rxReady(dm9ka);
    usleep(STD_DELAY);    
  }
  
  if (rx_rdy & 0x02)
  801d3c:	e0bffe43 	ldbu	r2,-7(fp)
  801d40:	1080008c 	andi	r2,r2,2
  801d44:	1005003a 	cmpeq	r2,r2,zero
  801d48:	1000311e 	bne	r2,zero,801e10 <dm9000a_isr+0x398>
  { /* status check first byte: rx_READY Bit[1:0] must be "00"b or "01"b */
    /* software-RESET NIC */
    printf("whoa ... got a strange thing here ... \n");
  801d4c:	01002134 	movhi	r4,132
  801d50:	211fc404 	addi	r4,r4,32528
  801d54:	08058bc0 	call	8058bc <puts>
    autoReset++;
  801d58:	d0a05417 	ldw	r2,-32432(gp)
  801d5c:	10800044 	addi	r2,r2,1
  801d60:	d0a05415 	stw	r2,-32432(gp)
    dm9000a_iow(NCR, 0x03);   /* NCR REG. 00 RST Bit [0] = 1 reset on,
  801d64:	0009883a 	mov	r4,zero
  801d68:	014000c4 	movi	r5,3
  801d6c:	08013b40 	call	8013b4 <dm9000a_iow>
                          			 and LBK Bit [2:1] = 01b MAC loopback on */
    usleep(20);               /* wait > 10us for a software-RESET ok */
  801d70:	01000504 	movi	r4,20
  801d74:	080f0f40 	call	80f0f4 <usleep>
    dm9000a_iow(NCR, 0x00);   /* normalize */
  801d78:	0009883a 	mov	r4,zero
  801d7c:	000b883a 	mov	r5,zero
  801d80:	08013b40 	call	8013b4 <dm9000a_iow>
    dm9000a_iow(NCR, 0x03);
  801d84:	0009883a 	mov	r4,zero
  801d88:	014000c4 	movi	r5,3
  801d8c:	08013b40 	call	8013b4 <dm9000a_iow>
    usleep(20);
  801d90:	01000504 	movi	r4,20
  801d94:	080f0f40 	call	80f0f4 <usleep>
    dm9000a_iow(NCR, 0x00);    
  801d98:	0009883a 	mov	r4,zero
  801d9c:	000b883a 	mov	r5,zero
  801da0:	08013b40 	call	8013b4 <dm9000a_iow>
    /* program operating registers~ */
    dm9000a_iow(NCR, NCR_set); /* NCR REG. 00 enable the chip functions
  801da4:	0009883a 	mov	r4,zero
  801da8:	000b883a 	mov	r5,zero
  801dac:	08013b40 	call	8013b4 <dm9000a_iow>
                   			 (and disable this MAC loopback mode back to normal) */
    dm9000a_iow(0x08, BPTR_set); /* BPTR  REG.08 (if necessary) RX Back Pressure
  801db0:	01000204 	movi	r4,8
  801db4:	01400fc4 	movi	r5,63
  801db8:	08013b40 	call	8013b4 <dm9000a_iow>
                                    Threshold in Half duplex mode only:
                                    High Water 3KB, 600 us */
    dm9000a_iow(0x09, FCTR_set);  /* FCTR  REG.09  (if necessary)
  801dbc:	01000244 	movi	r4,9
  801dc0:	01401684 	movi	r5,90
  801dc4:	08013b40 	call	8013b4 <dm9000a_iow>
                                   Flow Control Threshold setting High/Low Water
                                   Overflow 5KB/ 10KB */
    dm9000a_iow(0x0A, RTFCR_set); /* RTFCR REG.0AH (if necessary)
  801dc8:	01000284 	movi	r4,10
  801dcc:	01400a44 	movi	r5,41
  801dd0:	08013b40 	call	8013b4 <dm9000a_iow>
                          			     RX/TX Flow Control Register
			                               enable TXPEN, BKPM (TX_Half), FLCE (RX) */
    dm9000a_iow(0x0F, 0x00);      /* Clear the all Event */
  801dd4:	010003c4 	movi	r4,15
  801dd8:	000b883a 	mov	r5,zero
  801ddc:	08013b40 	call	8013b4 <dm9000a_iow>
    dm9000a_iow(0x2D, 0x80);      /* Switch LED to mode 1 */
  801de0:	01000b44 	movi	r4,45
  801de4:	01402004 	movi	r5,128
  801de8:	08013b40 	call	8013b4 <dm9000a_iow>
    /* set other registers depending on applications */
    dm9000a_iow(ETXCSR, ETXCSR_set); /* Early Transmit 75% */
  801dec:	01000c04 	movi	r4,48
  801df0:	014020c4 	movi	r5,131
  801df4:	08013b40 	call	8013b4 <dm9000a_iow>
    /* enable interrupts to activate DM9000 ~on */
    dm9000a_iow(IMR, INTR_set);   /* IMR REG. FFH PAR=1 only,
  801df8:	01003fc4 	movi	r4,255
  801dfc:	01402044 	movi	r5,129
  801e00:	08013b40 	call	8013b4 <dm9000a_iow>
			                               or + PTM=1& PRM=1 enable RxTx interrupts */
    /* enable RX (Broadcast/ ALL_MULTICAST) ~go */
    dm9000a_iow(RCR , RCR_set | RX_ENABLE | PASS_MULTICAST);
  801e04:	01000144 	movi	r4,5
  801e08:	01400e44 	movi	r5,57
  801e0c:	08013b40 	call	8013b4 <dm9000a_iow>
    /* RCR REG. 05 RXEN Bit [0] = 1 to enable the RX machine/ filter */
  }
  
  /* Clear the DM9000A ISR: PRS, PTS, ROS, ROOS 4 bits, by RW/C1 */
  dm9000a_iow(ISR, 0x3F);  
  801e10:	01003f84 	movi	r4,254
  801e14:	01400fc4 	movi	r5,63
  801e18:	08013b40 	call	8013b4 <dm9000a_iow>
  /* Re-enable DM9000A interrupts */
  dm9000a_iow(IMR, INTR_set);  
  801e1c:	01003fc4 	movi	r4,255
  801e20:	01402044 	movi	r5,129
  801e24:	08013b40 	call	8013b4 <dm9000a_iow>
}
  801e28:	e037883a 	mov	sp,fp
  801e2c:	dfc00117 	ldw	ra,4(sp)
  801e30:	df000017 	ldw	fp,0(sp)
  801e34:	dec00204 	addi	sp,sp,8
  801e38:	f800283a 	ret

00801e3c <dm9Ka_isr_wrap>:


int netisrs = 0;

void dm9Ka_isr_wrap(void *context, u_long intnum)
{
  801e3c:	defffc04 	addi	sp,sp,-16
  801e40:	dfc00315 	stw	ra,12(sp)
  801e44:	df000215 	stw	fp,8(sp)
  801e48:	df000204 	addi	fp,sp,8
  801e4c:	e13ffe15 	stw	r4,-8(fp)
  801e50:	e17fff15 	stw	r5,-4(fp)
  netisrs++;
  801e54:	d0a05517 	ldw	r2,-32428(gp)
  801e58:	10800044 	addi	r2,r2,1
  801e5c:	d0a05515 	stw	r2,-32428(gp)
  dm9000a_isr((int)context);
  801e60:	e13ffe17 	ldw	r4,-8(fp)
  801e64:	0801a780 	call	801a78 <dm9000a_isr>
}
  801e68:	e037883a 	mov	sp,fp
  801e6c:	dfc00117 	ldw	ra,4(sp)
  801e70:	df000017 	ldw	fp,0(sp)
  801e74:	dec00204 	addi	sp,sp,8
  801e78:	f800283a 	ret

00801e7c <dm9ka_init>:

int dm9ka_init(int iface)
{
  801e7c:	defffa04 	addi	sp,sp,-24
  801e80:	dfc00515 	stw	ra,20(sp)
  801e84:	df000415 	stw	fp,16(sp)
  801e88:	df000404 	addi	fp,sp,16
  801e8c:	e13ffe15 	stw	r4,-8(fp)
  int err;
  DM9KA   dm9ka;
  printf("dm9ka_init\n");
  801e90:	01002134 	movhi	r4,132
  801e94:	211fce04 	addi	r4,r4,32568
  801e98:	08058bc0 	call	8058bc <puts>

   /* get pointer to device structure */
  dm9ka = (DM9KA)nets[iface]->n_local;
  801e9c:	e0bffe17 	ldw	r2,-8(fp)
  801ea0:	00c02174 	movhi	r3,133
  801ea4:	18dd2d04 	addi	r3,r3,29876
  801ea8:	1085883a 	add	r2,r2,r2
  801eac:	1085883a 	add	r2,r2,r2
  801eb0:	10c5883a 	add	r2,r2,r3
  801eb4:	10800017 	ldw	r2,0(r2)
  801eb8:	10802817 	ldw	r2,160(r2)
  801ebc:	e0bffc15 	stw	r2,-16(fp)

  err = dm9000a_reset(dm9ka->mac_addr);
  801ec0:	e0bffc17 	ldw	r2,-16(fp)
  801ec4:	10800204 	addi	r2,r2,8
  801ec8:	1009883a 	mov	r4,r2
  801ecc:	08014f00 	call	8014f0 <dm9000a_reset>
  801ed0:	e0bffd15 	stw	r2,-12(fp)

  /* register the ISR with the ALTERA HAL interface */
  err = alt_irq_register (dm9ka->intnum, (void *)iface, dm9Ka_isr_wrap);
  801ed4:	e0bffc17 	ldw	r2,-16(fp)
  801ed8:	11000017 	ldw	r4,0(r2)
  801edc:	e17ffe17 	ldw	r5,-8(fp)
  801ee0:	01802034 	movhi	r6,128
  801ee4:	31878f04 	addi	r6,r6,7740
  801ee8:	080eb400 	call	80eb40 <alt_irq_register>
  801eec:	e0bffd15 	stw	r2,-12(fp)
  if (err)
  801ef0:	e0bffd17 	ldw	r2,-12(fp)
  801ef4:	1005003a 	cmpeq	r2,r2,zero
  801ef8:	1000031e 	bne	r2,zero,801f08 <dm9ka_init+0x8c>
    return (err);
  801efc:	e0bffd17 	ldw	r2,-12(fp)
  801f00:	e0bfff15 	stw	r2,-4(fp)
  801f04:	00001506 	br	801f5c <dm9ka_init+0xe0>
  
  nets[iface]->n_mib->ifAdminStatus = 1;    /* status = UP */
  801f08:	e0bffe17 	ldw	r2,-8(fp)
  801f0c:	00c02174 	movhi	r3,133
  801f10:	18dd2d04 	addi	r3,r3,29876
  801f14:	1085883a 	add	r2,r2,r2
  801f18:	1085883a 	add	r2,r2,r2
  801f1c:	10c5883a 	add	r2,r2,r3
  801f20:	10800017 	ldw	r2,0(r2)
  801f24:	10c02717 	ldw	r3,156(r2)
  801f28:	00800044 	movi	r2,1
  801f2c:	18800615 	stw	r2,24(r3)
  nets[iface]->n_mib->ifOperStatus  = 1;
  801f30:	e0bffe17 	ldw	r2,-8(fp)
  801f34:	00c02174 	movhi	r3,133
  801f38:	18dd2d04 	addi	r3,r3,29876
  801f3c:	1085883a 	add	r2,r2,r2
  801f40:	1085883a 	add	r2,r2,r2
  801f44:	10c5883a 	add	r2,r2,r3
  801f48:	10800017 	ldw	r2,0(r2)
  801f4c:	10c02717 	ldw	r3,156(r2)
  801f50:	00800044 	movi	r2,1
  801f54:	18800715 	stw	r2,28(r3)
  
  return (0);
  801f58:	e03fff15 	stw	zero,-4(fp)
  801f5c:	e0bfff17 	ldw	r2,-4(fp)
}
  801f60:	e037883a 	mov	sp,fp
  801f64:	dfc00117 	ldw	ra,4(sp)
  801f68:	df000017 	ldw	fp,0(sp)
  801f6c:	dec00204 	addi	sp,sp,8
  801f70:	f800283a 	ret

00801f74 <dm9ka_close>:


int dm9ka_close(int iface)
{
  801f74:	defffc04 	addi	sp,sp,-16
  801f78:	dfc00315 	stw	ra,12(sp)
  801f7c:	df000215 	stw	fp,8(sp)
  801f80:	df000204 	addi	fp,sp,8
  801f84:	e13fff15 	stw	r4,-4(fp)
  DM9KA   dm9ka;
  printf("dm9ka_close\n");
  801f88:	01002134 	movhi	r4,132
  801f8c:	211fd104 	addi	r4,r4,32580
  801f90:	08058bc0 	call	8058bc <puts>
  nets[iface]->n_mib->ifAdminStatus = 2;    /* status = down */
  801f94:	e0bfff17 	ldw	r2,-4(fp)
  801f98:	00c02174 	movhi	r3,133
  801f9c:	18dd2d04 	addi	r3,r3,29876
  801fa0:	1085883a 	add	r2,r2,r2
  801fa4:	1085883a 	add	r2,r2,r2
  801fa8:	10c5883a 	add	r2,r2,r3
  801fac:	10800017 	ldw	r2,0(r2)
  801fb0:	10c02717 	ldw	r3,156(r2)
  801fb4:	00800084 	movi	r2,2
  801fb8:	18800615 	stw	r2,24(r3)
  
   /* get pointer to device structure */
  dm9ka = (DM9KA)nets[iface]->n_local;
  801fbc:	e0bfff17 	ldw	r2,-4(fp)
  801fc0:	00c02174 	movhi	r3,133
  801fc4:	18dd2d04 	addi	r3,r3,29876
  801fc8:	1085883a 	add	r2,r2,r2
  801fcc:	1085883a 	add	r2,r2,r2
  801fd0:	10c5883a 	add	r2,r2,r3
  801fd4:	10800017 	ldw	r2,0(r2)
  801fd8:	10802817 	ldw	r2,160(r2)
  801fdc:	e0bffe15 	stw	r2,-8(fp)

    /* software-RESET NIC */
  dm9000a_iow(NCR, 0x03);   /* NCR REG. 00 RST Bit [0] = 1 reset on,
  801fe0:	0009883a 	mov	r4,zero
  801fe4:	014000c4 	movi	r5,3
  801fe8:	08013b40 	call	8013b4 <dm9000a_iow>
                          			 and LBK Bit [2:1] = 01b MAC loopback on */
  usleep(20);               /* wait > 10us for a software-RESET ok */
  801fec:	01000504 	movi	r4,20
  801ff0:	080f0f40 	call	80f0f4 <usleep>
  dm9000a_iow(NCR, 0x00);   /* normalize */
  801ff4:	0009883a 	mov	r4,zero
  801ff8:	000b883a 	mov	r5,zero
  801ffc:	08013b40 	call	8013b4 <dm9000a_iow>
  dm9000a_iow(NCR, 0x03);
  802000:	0009883a 	mov	r4,zero
  802004:	014000c4 	movi	r5,3
  802008:	08013b40 	call	8013b4 <dm9000a_iow>
  usleep(20);
  80200c:	01000504 	movi	r4,20
  802010:	080f0f40 	call	80f0f4 <usleep>
  dm9000a_iow(NCR, 0x00);
  802014:	0009883a 	mov	r4,zero
  802018:	000b883a 	mov	r5,zero
  80201c:	08013b40 	call	8013b4 <dm9000a_iow>

  /* this should reset these registers anyway, but 'just in case' */
  dm9000a_iow(IMR,  0x00);  /* no interrupts */
  802020:	01003fc4 	movi	r4,255
  802024:	000b883a 	mov	r5,zero
  802028:	08013b40 	call	8013b4 <dm9000a_iow>
  dm9000a_iow(RCR , 0x00);  /* disable receive */
  80202c:	01000144 	movi	r4,5
  802030:	000b883a 	mov	r5,zero
  802034:	08013b40 	call	8013b4 <dm9000a_iow>
  dm9000a_iow(0x0F, 0x00);  /* Clear the all Event */
  802038:	010003c4 	movi	r4,15
  80203c:	000b883a 	mov	r5,zero
  802040:	08013b40 	call	8013b4 <dm9000a_iow>
  
  //s91_port_close(smsc);   /* release the ISR */
  //s91_reset(smsc);        /* reset the chip */

  nets[iface]->n_mib->ifOperStatus = 2;     /* status = down */
  802044:	e0bfff17 	ldw	r2,-4(fp)
  802048:	00c02174 	movhi	r3,133
  80204c:	18dd2d04 	addi	r3,r3,29876
  802050:	1085883a 	add	r2,r2,r2
  802054:	1085883a 	add	r2,r2,r2
  802058:	10c5883a 	add	r2,r2,r3
  80205c:	10800017 	ldw	r2,0(r2)
  802060:	10c02717 	ldw	r3,156(r2)
  802064:	00800084 	movi	r2,2
  802068:	18800715 	stw	r2,28(r3)
  return 0;  
  80206c:	0005883a 	mov	r2,zero
}
  802070:	e037883a 	mov	sp,fp
  802074:	dfc00117 	ldw	ra,4(sp)
  802078:	df000017 	ldw	fp,0(sp)
  80207c:	dec00204 	addi	sp,sp,8
  802080:	f800283a 	ret

00802084 <dm9ka_stats>:

void dm9ka_stats(void * pio, int iface)
{
  802084:	defffb04 	addi	sp,sp,-20
  802088:	dfc00415 	stw	ra,16(sp)
  80208c:	df000315 	stw	fp,12(sp)
  802090:	df000304 	addi	fp,sp,12
  802094:	e13ffe15 	stw	r4,-8(fp)
  802098:	e17fff15 	stw	r5,-4(fp)
  DM9KA dm9ka;
  printf("dm9ka_stats\n");
  80209c:	01002134 	movhi	r4,132
  8020a0:	211fd404 	addi	r4,r4,32592
  8020a4:	08058bc0 	call	8058bc <puts>
  dm9ka = (DM9KA)(nets[iface]->n_local);
  8020a8:	e0bfff17 	ldw	r2,-4(fp)
  8020ac:	00c02174 	movhi	r3,133
  8020b0:	18dd2d04 	addi	r3,r3,29876
  8020b4:	1085883a 	add	r2,r2,r2
  8020b8:	1085883a 	add	r2,r2,r2
  8020bc:	10c5883a 	add	r2,r2,r3
  8020c0:	10800017 	ldw	r2,0(r2)
  8020c4:	10802817 	ldw	r2,160(r2)
  8020c8:	e0bffd15 	stw	r2,-12(fp)
    ns_printf(pio, "Sendq max:%d, current %d. IObase: 0x%lx ISR %d\n", 
            smsc->tosend.q_max, smsc->tosend.q_len, smsc->regbase, smsc->intnum);
  */
  
  return;
}
  8020cc:	e037883a 	mov	sp,fp
  8020d0:	dfc00117 	ldw	ra,4(sp)
  8020d4:	df000017 	ldw	fp,0(sp)
  8020d8:	dec00204 	addi	sp,sp,8
  8020dc:	f800283a 	ret

008020e0 <dm9ka_pkt_send>:

extern void irq_Mask(void);
extern void irq_Unmask(void);

int dm9ka_pkt_send(PACKET pkt)
{
  8020e0:	defffa04 	addi	sp,sp,-24
  8020e4:	dfc00515 	stw	ra,20(sp)
  8020e8:	df000415 	stw	fp,16(sp)
  8020ec:	df000404 	addi	fp,sp,16
  8020f0:	e13fff15 	stw	r4,-4(fp)
  unsigned int rv, slen;  
  DM9KA dm9ka = (DM9KA)pkt->net->n_local;
  8020f4:	e0bfff17 	ldw	r2,-4(fp)
  8020f8:	10800617 	ldw	r2,24(r2)
  8020fc:	10802817 	ldw	r2,160(r2)
  802100:	e0bffc15 	stw	r2,-16(fp)
  slen = pkt->nb_plen - ETHHDR_BIAS;
  802104:	e0bfff17 	ldw	r2,-4(fp)
  802108:	10800417 	ldw	r2,16(r2)
  80210c:	10bfff84 	addi	r2,r2,-2
  802110:	e0bffd15 	stw	r2,-12(fp)
  if(slen < 64) slen = 64;
  802114:	e0bffd17 	ldw	r2,-12(fp)
  802118:	10801028 	cmpgeui	r2,r2,64
  80211c:	1000021e 	bne	r2,zero,802128 <dm9ka_pkt_send+0x48>
  802120:	00801004 	movi	r2,64
  802124:	e0bffd15 	stw	r2,-12(fp)

  //irq_Mask();
    
  rv = TransmitPacket(pkt->nb_prot + ETHHDR_BIAS, slen);
  802128:	e0bfff17 	ldw	r2,-4(fp)
  80212c:	10800317 	ldw	r2,12(r2)
  802130:	10800084 	addi	r2,r2,2
  802134:	1009883a 	mov	r4,r2
  802138:	e17ffd17 	ldw	r5,-12(fp)
  80213c:	08016b40 	call	8016b4 <TransmitPacket>
  802140:	e0bffe15 	stw	r2,-8(fp)
  if(rv == DMFE_SUCCESS) {
  802144:	e0bffe17 	ldw	r2,-8(fp)
  802148:	1004c03a 	cmpne	r2,r2,zero
  80214c:	1000201e 	bne	r2,zero,8021d0 <dm9ka_pkt_send+0xf0>
    /* update packet statistics */
    dm9ka->netp->n_mib->ifOutOctets += (u_long)pkt->nb_plen;
  802150:	e0bffc17 	ldw	r2,-16(fp)
  802154:	10800417 	ldw	r2,16(r2)
  802158:	11002717 	ldw	r4,156(r2)
  80215c:	e0bffc17 	ldw	r2,-16(fp)
  802160:	10800417 	ldw	r2,16(r2)
  802164:	10802717 	ldw	r2,156(r2)
  802168:	10c00f17 	ldw	r3,60(r2)
  80216c:	e0bfff17 	ldw	r2,-4(fp)
  802170:	10800417 	ldw	r2,16(r2)
  802174:	1885883a 	add	r2,r3,r2
  802178:	20800f15 	stw	r2,60(r4)
    if(*pkt->nb_prot & 0x80)
  80217c:	e0bfff17 	ldw	r2,-4(fp)
  802180:	10800317 	ldw	r2,12(r2)
  802184:	10800003 	ldbu	r2,0(r2)
  802188:	10803fcc 	andi	r2,r2,255
  80218c:	1080201c 	xori	r2,r2,128
  802190:	10bfe004 	addi	r2,r2,-128
  802194:	1004403a 	cmpge	r2,r2,zero
  802198:	1000071e 	bne	r2,zero,8021b8 <dm9ka_pkt_send+0xd8>
      dm9ka->netp->n_mib->ifOutNUcastPkts++;
  80219c:	e0bffc17 	ldw	r2,-16(fp)
  8021a0:	10800417 	ldw	r2,16(r2)
  8021a4:	10c02717 	ldw	r3,156(r2)
  8021a8:	18801117 	ldw	r2,68(r3)
  8021ac:	10800044 	addi	r2,r2,1
  8021b0:	18801115 	stw	r2,68(r3)
  8021b4:	00000606 	br	8021d0 <dm9ka_pkt_send+0xf0>
    else
      dm9ka->netp->n_mib->ifOutUcastPkts++;
  8021b8:	e0bffc17 	ldw	r2,-16(fp)
  8021bc:	10800417 	ldw	r2,16(r2)
  8021c0:	10c02717 	ldw	r3,156(r2)
  8021c4:	18801017 	ldw	r2,64(r3)
  8021c8:	10800044 	addi	r2,r2,1
  8021cc:	18801015 	stw	r2,64(r3)
  }  
    
  //irq_Unmask();
  
  if(pkt) pk_free(pkt);
  8021d0:	e0bfff17 	ldw	r2,-4(fp)
  8021d4:	1005003a 	cmpeq	r2,r2,zero
  8021d8:	1000021e 	bne	r2,zero,8021e4 <dm9ka_pkt_send+0x104>
  8021dc:	e13fff17 	ldw	r4,-4(fp)
  8021e0:	08259a00 	call	8259a0 <pk_free>
  
  return (0);      /* alloc done interrupt will start xmit */
  8021e4:	0005883a 	mov	r2,zero
}
  8021e8:	e037883a 	mov	sp,fp
  8021ec:	dfc00117 	ldw	ra,4(sp)
  8021f0:	df000017 	ldw	fp,0(sp)
  8021f4:	dec00204 	addi	sp,sp,8
  8021f8:	f800283a 	ret

008021fc <SSSInitialTask>:
/* SSSInitialTask will initialize the NicheStack
 * TCP/IP Stack and then initialize the rest of the Simple Socket Server example 
 * RTOS structures and tasks. 
 */
void SSSInitialTask(void *task_data)
{
  8021fc:	defdd304 	addi	sp,sp,-2228
  802200:	dfc22c15 	stw	ra,2224(sp)
  802204:	df022b15 	stw	fp,2220(sp)
  802208:	df022b04 	addi	fp,sp,2220
  80220c:	e13fff15 	stw	r4,-4(fp)
   * NicheStack is initialized from a task, so that RTOS will have started, and 
   * I/O drivers are available.  Two tasks are created:
   *    "Inet main"  task with priority 2
   *    "clock tick" task with priority 3
   */   
  alt_iniche_init();
  802210:	08269bc0 	call	8269bc <alt_iniche_init>
  netmain(); 
  802214:	082105c0 	call	82105c <netmain>

  /* Wait for the network stack to be ready before proceeding. 
   * iniche_net_ready indicates that TCP/IP stack is ready, and IP address is obtained.
   */
  while (!iniche_net_ready)
  802218:	00000206 	br	802224 <SSSInitialTask+0x28>
    TK_SLEEP(1);
  80221c:	01000084 	movi	r4,2
  802220:	08172200 	call	817220 <OSTimeDly>
  netmain(); 

  /* Wait for the network stack to be ready before proceeding. 
   * iniche_net_ready indicates that TCP/IP stack is ready, and IP address is obtained.
   */
  while (!iniche_net_ready)
  802224:	00802174 	movhi	r2,133
  802228:	10b5bd04 	addi	r2,r2,-10508
  80222c:	10800017 	ldw	r2,0(r2)
  802230:	1005003a 	cmpeq	r2,r2,zero
  802234:	103ff91e 	bne	r2,zero,80221c <SSSInitialTask+0x20>

  /* Now that the stack is running, perform the application initialization steps */
  
  /* Application Specific Task Launching Code Block Begin */

  printf("\nSimple Socket Server starting up\n");
  802238:	01002134 	movhi	r4,132
  80223c:	211fdd04 	addi	r4,r4,32628
  802240:	08058bc0 	call	8058bc <puts>
  /* Application Specific Task Launching Code Block End */
  
  /*This task is deleted because there is no need for it to run again */
  //error_code = OSTaskDel(OS_PRIO_SELF);
  //alt_uCOSIIErrorHandler(error_code, 0);
  LCD_Init();
  802244:	08002040 	call	800204 <LCD_Init>
  int sw, but;
  char Text[16] = "Requisitando aq";
  802248:	00802174 	movhi	r2,133
  80224c:	10a00d04 	addi	r2,r2,-32716
  802250:	e13ddd44 	addi	r4,fp,-2187
  802254:	100b883a 	mov	r5,r2
  802258:	01800404 	movi	r6,16
  80225c:	08052fc0 	call	8052fc <memcpy>
  LCD_Show_Text(Text);
  802260:	e13ddd44 	addi	r4,fp,-2187
  802264:	08002a00 	call	8002a0 <LCD_Show_Text>
  char Text00[16] = "arquivoA.txt   ";
  802268:	00802174 	movhi	r2,133
  80226c:	10a01104 	addi	r2,r2,-32700
  802270:	e13de144 	addi	r4,fp,-2171
  802274:	100b883a 	mov	r5,r2
  802278:	01800404 	movi	r6,16
  80227c:	08052fc0 	call	8052fc <memcpy>
  char Text01[16] = "arquivoB.txt   ";
  802280:	00802174 	movhi	r2,133
  802284:	10a01504 	addi	r2,r2,-32684
  802288:	e13de544 	addi	r4,fp,-2155
  80228c:	100b883a 	mov	r5,r2
  802290:	01800404 	movi	r6,16
  802294:	08052fc0 	call	8052fc <memcpy>
  char Text10[16] = "arquivoC.txt   ";
  802298:	00802174 	movhi	r2,133
  80229c:	10a01904 	addi	r2,r2,-32668
  8022a0:	e13de944 	addi	r4,fp,-2139
  8022a4:	100b883a 	mov	r5,r2
  8022a8:	01800404 	movi	r6,16
  8022ac:	08052fc0 	call	8052fc <memcpy>
  char Text11[16] = "invalido.txt   ";
  8022b0:	00802174 	movhi	r2,133
  8022b4:	10a01d04 	addi	r2,r2,-32652
  8022b8:	e13ded44 	addi	r4,fp,-2123
  8022bc:	100b883a 	mov	r5,r2
  8022c0:	01800404 	movi	r6,16
  8022c4:	08052fc0 	call	8052fc <memcpy>
  char ArqI[32] = "ARQ INVALIDO !!!ARQ INVALIDO !!!";
  8022c8:	00802174 	movhi	r2,133
  8022cc:	10a02104 	addi	r2,r2,-32636
  8022d0:	e13df144 	addi	r4,fp,-2107
  8022d4:	100b883a 	mov	r5,r2
  8022d8:	01800804 	movi	r6,32
  8022dc:	08052fc0 	call	8052fc <memcpy>
  char p1[16];
  char p2[16];
  char flag = 0; //0-> escolhendo, 1->scroll
  8022e0:	e03dda45 	stb	zero,-2199(fp)
  char lastbut = 0x0F;
  8022e4:	008003c4 	movi	r2,15
  8022e8:	e0bdda05 	stb	r2,-2200(fp)
  unsigned int linha1=0;
  8022ec:	e03dd915 	stw	zero,-2204(fp)
  unsigned int linha2=16;
  8022f0:	00800404 	movi	r2,16
  8022f4:	e0bdd815 	stw	r2,-2208(fp)
  char choice = 0;
  8022f8:	e03dd705 	stb	zero,-2212(fp)
  struct sockaddr_in sa;
  int res;
  int SocketFD;
  char reqA[6]= "queroa";
  8022fc:	00c02174 	movhi	r3,133
  802300:	18e02a04 	addi	r3,r3,-32600
  802304:	18800017 	ldw	r2,0(r3)
  802308:	e0be0615 	stw	r2,-2024(fp)
  80230c:	1880010b 	ldhu	r2,4(r3)
  802310:	e0be070d 	sth	r2,-2020(fp)
  char reqB[6]= "querob";
  802314:	00c02174 	movhi	r3,133
  802318:	18e02c04 	addi	r3,r3,-32592
  80231c:	1880000b 	ldhu	r2,0(r3)
  802320:	e0be078d 	sth	r2,-2018(fp)
  802324:	1880008b 	ldhu	r2,2(r3)
  802328:	e0be080d 	sth	r2,-2016(fp)
  80232c:	1880010b 	ldhu	r2,4(r3)
  802330:	e0be088d 	sth	r2,-2014(fp)
  char reqC[6]= "queroc";
  802334:	00c02174 	movhi	r3,133
  802338:	18e02e04 	addi	r3,r3,-32584
  80233c:	18800017 	ldw	r2,0(r3)
  802340:	e0be0915 	stw	r2,-2012(fp)
  802344:	1880010b 	ldhu	r2,4(r3)
  802348:	e0be0a0d 	sth	r2,-2008(fp)
  char buf[2000];
  printf("estou aqui\n");
  80234c:	01002134 	movhi	r4,132
  802350:	211fe604 	addi	r4,r4,32664
  802354:	08058bc0 	call	8058bc <puts>
  SocketFD = socket(PF_INET, SOCK_STREAM, IPPROTO_TCP);
  802358:	01000084 	movi	r4,2
  80235c:	01400044 	movi	r5,1
  802360:	01800184 	movi	r6,6
  802364:	08293540 	call	829354 <t_socket>
  802368:	e0bdd515 	stw	r2,-2220(fp)
  printf("Socket criado\n");
  80236c:	01002134 	movhi	r4,132
  802370:	211fe904 	addi	r4,r4,32676
  802374:	08058bc0 	call	8058bc <puts>
  memset(&sa, 0, sizeof sa);
  802378:	e0be0204 	addi	r2,fp,-2040
  80237c:	10000015 	stw	zero,0(r2)
  802380:	10000115 	stw	zero,4(r2)
  802384:	10000215 	stw	zero,8(r2)
  802388:	10000315 	stw	zero,12(r2)
  sa.sin_family = AF_INET;
  80238c:	00800084 	movi	r2,2
  802390:	e0be020d 	sth	r2,-2040(fp)
  sa.sin_port = htons(7777);
  802394:	00984784 	movi	r2,24862
  802398:	e0be028d 	sth	r2,-2038(fp)
  res = inet_pton(AF_INET, "192.168.1.110", &sa.sin_addr);
  80239c:	e0be0204 	addi	r2,fp,-2040
  8023a0:	11800104 	addi	r6,r2,4
  8023a4:	01000084 	movi	r4,2
  8023a8:	01402134 	movhi	r5,132
  8023ac:	295fed04 	addi	r5,r5,32692
  8023b0:	08216180 	call	821618 <inet_pton>
  8023b4:	e0bdd615 	stw	r2,-2216(fp)
  if (connect(SocketFD, (struct sockaddr *)&sa, sizeof sa) == -1) {
  8023b8:	e17e0204 	addi	r5,fp,-2040
  8023bc:	e13dd517 	ldw	r4,-2220(fp)
  8023c0:	01800404 	movi	r6,16
  8023c4:	08298dc0 	call	8298dc <t_connect>
  8023c8:	10bfffd8 	cmpnei	r2,r2,-1
  8023cc:	1000071e 	bne	r2,zero,8023ec <SSSInitialTask+0x1f0>
	perror("connect failed");
  8023d0:	01002134 	movhi	r4,132
  8023d4:	211ff104 	addi	r4,r4,32708
  8023d8:	08055800 	call	805580 <perror>
	close(SocketFD);
  8023dc:	e13dd517 	ldw	r4,-2220(fp)
  8023e0:	081d1ec0 	call	81d1ec <close>
	exit(EXIT_FAILURE);
  8023e4:	01000044 	movi	r4,1
  8023e8:	08050600 	call	805060 <exit>
	    }else{
	    	printf("Msg recebida: %s\n", buf);
	    	memcpy(buf, original, 12 * sizeof(char));
	    }
	    msleep(1000);*/
	  	sw = IORD_ALTERA_AVALON_PIO_DATA(SWITCH_PIO_BASE) & 0x03;
  8023ec:	00806a34 	movhi	r2,424
  8023f0:	10882804 	addi	r2,r2,8352
  8023f4:	10800037 	ldwio	r2,0(r2)
  8023f8:	108000cc 	andi	r2,r2,3
  8023fc:	e0bddc15 	stw	r2,-2192(fp)
		but = IORD_ALTERA_AVALON_PIO_DATA(BUTTON_PIO_BASE) & 0x0F;
  802400:	00806a34 	movhi	r2,424
  802404:	10882404 	addi	r2,r2,8336
  802408:	10800037 	ldwio	r2,0(r2)
  80240c:	108003cc 	andi	r2,r2,15
  802410:	e0bddb15 	stw	r2,-2196(fp)

		  	if(flag == 0) // estado de escolha
  802414:	e0bdda47 	ldb	r2,-2199(fp)
  802418:	1004c03a 	cmpne	r2,r2,zero
  80241c:	1000c91e 	bne	r2,zero,802744 <SSSInitialTask+0x548>
		  	{
		  		if(sw==0){LCD_Line2(); LCD_Show_Text(Text00);}
  802420:	e0bddc17 	ldw	r2,-2192(fp)
  802424:	1004c03a 	cmpne	r2,r2,zero
  802428:	1000031e 	bne	r2,zero,802438 <SSSInitialTask+0x23c>
  80242c:	08003280 	call	800328 <LCD_Line2>
  802430:	e13de144 	addi	r4,fp,-2171
  802434:	08002a00 	call	8002a0 <LCD_Show_Text>
		  		if(sw==1){LCD_Line2(); LCD_Show_Text(Text01);}
  802438:	e0bddc17 	ldw	r2,-2192(fp)
  80243c:	10800058 	cmpnei	r2,r2,1
  802440:	1000031e 	bne	r2,zero,802450 <SSSInitialTask+0x254>
  802444:	08003280 	call	800328 <LCD_Line2>
  802448:	e13de544 	addi	r4,fp,-2155
  80244c:	08002a00 	call	8002a0 <LCD_Show_Text>
		  		if(sw==2){LCD_Line2(); LCD_Show_Text(Text10);}
  802450:	e0bddc17 	ldw	r2,-2192(fp)
  802454:	10800098 	cmpnei	r2,r2,2
  802458:	1000031e 	bne	r2,zero,802468 <SSSInitialTask+0x26c>
  80245c:	08003280 	call	800328 <LCD_Line2>
  802460:	e13de944 	addi	r4,fp,-2139
  802464:	08002a00 	call	8002a0 <LCD_Show_Text>
		  		if(sw==3){LCD_Line2(); LCD_Show_Text(Text11);}
  802468:	e0bddc17 	ldw	r2,-2192(fp)
  80246c:	108000d8 	cmpnei	r2,r2,3
  802470:	1000031e 	bne	r2,zero,802480 <SSSInitialTask+0x284>
  802474:	08003280 	call	800328 <LCD_Line2>
  802478:	e13ded44 	addi	r4,fp,-2123
  80247c:	08002a00 	call	8002a0 <LCD_Show_Text>
		  		if(but == 13 && but != lastbut)
  802480:	e0bddb17 	ldw	r2,-2196(fp)
  802484:	10800358 	cmpnei	r2,r2,13
  802488:	1000f71e 	bne	r2,zero,802868 <SSSInitialTask+0x66c>
  80248c:	e0fdda07 	ldb	r3,-2200(fp)
  802490:	e0bddb17 	ldw	r2,-2196(fp)
  802494:	1880f426 	beq	r3,r2,802868 <SSSInitialTask+0x66c>
		  		{
		  			flag = 1;
  802498:	00800044 	movi	r2,1
  80249c:	e0bdda45 	stb	r2,-2199(fp)
		  			if(sw == 0)
  8024a0:	e0bddc17 	ldw	r2,-2192(fp)
  8024a4:	1004c03a 	cmpne	r2,r2,zero
  8024a8:	10002f1e 	bne	r2,zero,802568 <SSSInitialTask+0x36c>
		  			{
		  				choice = 1;
  8024ac:	00800044 	movi	r2,1
  8024b0:	e0bdd705 	stb	r2,-2212(fp)
		  			    if (send(SocketFD, reqA, sizeof(reqA), 0) < 0) //exemplo de envio
  8024b4:	e17e0604 	addi	r5,fp,-2024
  8024b8:	e13dd517 	ldw	r4,-2220(fp)
  8024bc:	01800184 	movi	r6,6
  8024c0:	000f883a 	mov	r7,zero
  8024c4:	082a5f40 	call	82a5f4 <t_send>
  8024c8:	1004403a 	cmpge	r2,r2,zero
  8024cc:	1000051e 	bne	r2,zero,8024e4 <SSSInitialTask+0x2e8>
		  			    {
		  			        perror("Send()");
  8024d0:	01002134 	movhi	r4,132
  8024d4:	211ff504 	addi	r4,r4,32724
  8024d8:	08055800 	call	805580 <perror>
		  			        exit(EXIT_FAILURE);
  8024dc:	01000044 	movi	r4,1
  8024e0:	08050600 	call	805060 <exit>
		  			    }else{
		  			    	printf("Msg enviada: queroa\n");
  8024e4:	01002134 	movhi	r4,132
  8024e8:	211ff704 	addi	r4,r4,32732
  8024ec:	08058bc0 	call	8058bc <puts>
		  			    }
		  			    if (recv(SocketFD, buf, sizeof(buf), 0) < 0) //exemplo de recebimento
  8024f0:	e17e0a84 	addi	r5,fp,-2006
  8024f4:	e13dd517 	ldw	r4,-2220(fp)
  8024f8:	0181f404 	movi	r6,2000
  8024fc:	000f883a 	mov	r7,zero
  802500:	082a1880 	call	82a188 <t_recv>
  802504:	1004403a 	cmpge	r2,r2,zero
  802508:	1000051e 	bne	r2,zero,802520 <SSSInitialTask+0x324>
		  			    {
		  			        perror("Recv()");
  80250c:	01002134 	movhi	r4,132
  802510:	211ffc04 	addi	r4,r4,32752
  802514:	08055800 	call	805580 <perror>
		  			        exit(EXIT_FAILURE);
  802518:	01000044 	movi	r4,1
  80251c:	08050600 	call	805060 <exit>
		  			    }else{
		  			    	printf("Msg recebida: %s\n", buf);
  802520:	e17e0a84 	addi	r5,fp,-2006
  802524:	01002134 	movhi	r4,132
  802528:	211ffe04 	addi	r4,r4,32760
  80252c:	08055940 	call	805594 <printf>
		  			    	memcpy(p1, buf, 16 * sizeof(char));
  802530:	e0bdf944 	addi	r2,fp,-2075
  802534:	e0fe0a84 	addi	r3,fp,-2006
  802538:	1009883a 	mov	r4,r2
  80253c:	180b883a 	mov	r5,r3
  802540:	01800404 	movi	r6,16
  802544:	08052fc0 	call	8052fc <memcpy>
		  			    	memcpy(p2, &buf[16], 16 * sizeof(char));
  802548:	e0be0a84 	addi	r2,fp,-2006
  80254c:	10c00404 	addi	r3,r2,16
  802550:	e0bdfd44 	addi	r2,fp,-2059
  802554:	1009883a 	mov	r4,r2
  802558:	180b883a 	mov	r5,r3
  80255c:	01800404 	movi	r6,16
  802560:	08052fc0 	call	8052fc <memcpy>
  802564:	0000c006 	br	802868 <SSSInitialTask+0x66c>
		  			    }
		  			}else if(sw == 1)
  802568:	e0bddc17 	ldw	r2,-2192(fp)
  80256c:	10800058 	cmpnei	r2,r2,1
  802570:	10002f1e 	bne	r2,zero,802630 <SSSInitialTask+0x434>
		  			{
		  				choice = 2;
  802574:	00800084 	movi	r2,2
  802578:	e0bdd705 	stb	r2,-2212(fp)
		  			    if (send(SocketFD, reqB, sizeof(reqB), 0) < 0) //exemplo de envio
  80257c:	e17e0784 	addi	r5,fp,-2018
  802580:	e13dd517 	ldw	r4,-2220(fp)
  802584:	01800184 	movi	r6,6
  802588:	000f883a 	mov	r7,zero
  80258c:	082a5f40 	call	82a5f4 <t_send>
  802590:	1004403a 	cmpge	r2,r2,zero
  802594:	1000051e 	bne	r2,zero,8025ac <SSSInitialTask+0x3b0>
		  			    {
		  			        perror("Send()");
  802598:	01002134 	movhi	r4,132
  80259c:	211ff504 	addi	r4,r4,32724
  8025a0:	08055800 	call	805580 <perror>
		  			        exit(EXIT_FAILURE);
  8025a4:	01000044 	movi	r4,1
  8025a8:	08050600 	call	805060 <exit>
		  			    }else{
		  			    	printf("Msg enviada: querob\n");
  8025ac:	01002174 	movhi	r4,133
  8025b0:	21200304 	addi	r4,r4,-32756
  8025b4:	08058bc0 	call	8058bc <puts>
		  			    }
		  			    if (recv(SocketFD, buf, sizeof(buf), 0) < 0) //exemplo de recebimento
  8025b8:	e17e0a84 	addi	r5,fp,-2006
  8025bc:	e13dd517 	ldw	r4,-2220(fp)
  8025c0:	0181f404 	movi	r6,2000
  8025c4:	000f883a 	mov	r7,zero
  8025c8:	082a1880 	call	82a188 <t_recv>
  8025cc:	1004403a 	cmpge	r2,r2,zero
  8025d0:	1000051e 	bne	r2,zero,8025e8 <SSSInitialTask+0x3ec>
		  			    {
		  			        perror("Recv()");
  8025d4:	01002134 	movhi	r4,132
  8025d8:	211ffc04 	addi	r4,r4,32752
  8025dc:	08055800 	call	805580 <perror>
		  			        exit(EXIT_FAILURE);
  8025e0:	01000044 	movi	r4,1
  8025e4:	08050600 	call	805060 <exit>
		  			    }else{
		  			    	printf("Msg recebida: %s\n", buf);
  8025e8:	e17e0a84 	addi	r5,fp,-2006
  8025ec:	01002134 	movhi	r4,132
  8025f0:	211ffe04 	addi	r4,r4,32760
  8025f4:	08055940 	call	805594 <printf>
		  			    	memcpy(p1, buf, 16 * sizeof(char));
  8025f8:	e0bdf944 	addi	r2,fp,-2075
  8025fc:	e0fe0a84 	addi	r3,fp,-2006
  802600:	1009883a 	mov	r4,r2
  802604:	180b883a 	mov	r5,r3
  802608:	01800404 	movi	r6,16
  80260c:	08052fc0 	call	8052fc <memcpy>
		  			    	memcpy(p2, &buf[16], 16 * sizeof(char));
  802610:	e0be0a84 	addi	r2,fp,-2006
  802614:	10c00404 	addi	r3,r2,16
  802618:	e0bdfd44 	addi	r2,fp,-2059
  80261c:	1009883a 	mov	r4,r2
  802620:	180b883a 	mov	r5,r3
  802624:	01800404 	movi	r6,16
  802628:	08052fc0 	call	8052fc <memcpy>
  80262c:	00008e06 	br	802868 <SSSInitialTask+0x66c>
		  			    }
		  			}else if(sw == 2)
  802630:	e0bddc17 	ldw	r2,-2192(fp)
  802634:	10800098 	cmpnei	r2,r2,2
  802638:	10002f1e 	bne	r2,zero,8026f8 <SSSInitialTask+0x4fc>
		  			{
		  				//TransmitPacket(arq3,0x06);
		  				choice = 3;
  80263c:	008000c4 	movi	r2,3
  802640:	e0bdd705 	stb	r2,-2212(fp)
		  			    if (send(SocketFD, reqC, sizeof(reqC), 0) < 0) //exemplo de envio
  802644:	e17e0904 	addi	r5,fp,-2012
  802648:	e13dd517 	ldw	r4,-2220(fp)
  80264c:	01800184 	movi	r6,6
  802650:	000f883a 	mov	r7,zero
  802654:	082a5f40 	call	82a5f4 <t_send>
  802658:	1004403a 	cmpge	r2,r2,zero
  80265c:	1000051e 	bne	r2,zero,802674 <SSSInitialTask+0x478>
		  			    {
		  			        perror("Send()");
  802660:	01002134 	movhi	r4,132
  802664:	211ff504 	addi	r4,r4,32724
  802668:	08055800 	call	805580 <perror>
		  			        exit(EXIT_FAILURE);
  80266c:	01000044 	movi	r4,1
  802670:	08050600 	call	805060 <exit>
		  			    }else{
		  			    	printf("Msg enviada: queroc\n");
  802674:	01002174 	movhi	r4,133
  802678:	21200804 	addi	r4,r4,-32736
  80267c:	08058bc0 	call	8058bc <puts>
		  			    }
		  			    if (recv(SocketFD, buf, sizeof(buf), 0) < 0) //exemplo de recebimento
  802680:	e17e0a84 	addi	r5,fp,-2006
  802684:	e13dd517 	ldw	r4,-2220(fp)
  802688:	0181f404 	movi	r6,2000
  80268c:	000f883a 	mov	r7,zero
  802690:	082a1880 	call	82a188 <t_recv>
  802694:	1004403a 	cmpge	r2,r2,zero
  802698:	1000051e 	bne	r2,zero,8026b0 <SSSInitialTask+0x4b4>
		  			    {
		  			        perror("Recv()");
  80269c:	01002134 	movhi	r4,132
  8026a0:	211ffc04 	addi	r4,r4,32752
  8026a4:	08055800 	call	805580 <perror>
		  			        exit(EXIT_FAILURE);
  8026a8:	01000044 	movi	r4,1
  8026ac:	08050600 	call	805060 <exit>
		  			    }else{
		  			    	printf("Msg recebida: %s\n", buf);
  8026b0:	e17e0a84 	addi	r5,fp,-2006
  8026b4:	01002134 	movhi	r4,132
  8026b8:	211ffe04 	addi	r4,r4,32760
  8026bc:	08055940 	call	805594 <printf>
		  			    	memcpy(p1, buf, 16 * sizeof(char));
  8026c0:	e0bdf944 	addi	r2,fp,-2075
  8026c4:	e0fe0a84 	addi	r3,fp,-2006
  8026c8:	1009883a 	mov	r4,r2
  8026cc:	180b883a 	mov	r5,r3
  8026d0:	01800404 	movi	r6,16
  8026d4:	08052fc0 	call	8052fc <memcpy>
		  			    	memcpy(p2, &buf[16], 16 * sizeof(char));
  8026d8:	e0be0a84 	addi	r2,fp,-2006
  8026dc:	10c00404 	addi	r3,r2,16
  8026e0:	e0bdfd44 	addi	r2,fp,-2059
  8026e4:	1009883a 	mov	r4,r2
  8026e8:	180b883a 	mov	r5,r3
  8026ec:	01800404 	movi	r6,16
  8026f0:	08052fc0 	call	8052fc <memcpy>
  8026f4:	00005c06 	br	802868 <SSSInitialTask+0x66c>
		  			    }
		  			}else if(sw == 3)
  8026f8:	e0bddc17 	ldw	r2,-2192(fp)
  8026fc:	108000d8 	cmpnei	r2,r2,3
  802700:	1000591e 	bne	r2,zero,802868 <SSSInitialTask+0x66c>
		  			{
		  				//TransmitPacket(arq4,0x06);
		  				choice = 4;
  802704:	00800104 	movi	r2,4
  802708:	e0bdd705 	stb	r2,-2212(fp)
		  				memcpy(p1, ArqI, 16 * sizeof(char));
  80270c:	e0bdf944 	addi	r2,fp,-2075
  802710:	e0fdf144 	addi	r3,fp,-2107
  802714:	1009883a 	mov	r4,r2
  802718:	180b883a 	mov	r5,r3
  80271c:	01800404 	movi	r6,16
  802720:	08052fc0 	call	8052fc <memcpy>
		  				memcpy(p2, &ArqI[16], 16 * sizeof(char));
  802724:	e0bdf144 	addi	r2,fp,-2107
  802728:	10c00404 	addi	r3,r2,16
  80272c:	e0bdfd44 	addi	r2,fp,-2059
  802730:	1009883a 	mov	r4,r2
  802734:	180b883a 	mov	r5,r3
  802738:	01800404 	movi	r6,16
  80273c:	08052fc0 	call	8052fc <memcpy>
  802740:	00004906 	br	802868 <SSSInitialTask+0x66c>
		  			}
		  		}
		  	}else if(flag == 1) // scroll
  802744:	e0bdda47 	ldb	r2,-2199(fp)
  802748:	10800058 	cmpnei	r2,r2,1
  80274c:	1000461e 	bne	r2,zero,802868 <SSSInitialTask+0x66c>
		  	{
		  		LCD_Line1();
  802750:	08003640 	call	800364 <LCD_Line1>
		  		LCD_Show_Text(p1);
  802754:	e13df944 	addi	r4,fp,-2075
  802758:	08002a00 	call	8002a0 <LCD_Show_Text>
		  		LCD_Line2();
  80275c:	08003280 	call	800328 <LCD_Line2>
		  		LCD_Show_Text(p2);
  802760:	e13dfd44 	addi	r4,fp,-2059
  802764:	08002a00 	call	8002a0 <LCD_Show_Text>
		  		// if dos botoes
		  		if(but == 11 && but != lastbut)
  802768:	e0bddb17 	ldw	r2,-2196(fp)
  80276c:	108002d8 	cmpnei	r2,r2,11
  802770:	10000d1e 	bne	r2,zero,8027a8 <SSSInitialTask+0x5ac>
  802774:	e0fdda07 	ldb	r3,-2200(fp)
  802778:	e0bddb17 	ldw	r2,-2196(fp)
  80277c:	18800a26 	beq	r3,r2,8027a8 <SSSInitialTask+0x5ac>
		  		{
		  			if(linha2<1984){
  802780:	e0bdd817 	ldw	r2,-2208(fp)
  802784:	1081f028 	cmpgeui	r2,r2,1984
  802788:	1000241e 	bne	r2,zero,80281c <SSSInitialTask+0x620>
		  				linha1+=16;
  80278c:	e0bdd917 	ldw	r2,-2204(fp)
  802790:	10800404 	addi	r2,r2,16
  802794:	e0bdd915 	stw	r2,-2204(fp)
		  				linha2+=16;
  802798:	e0bdd817 	ldw	r2,-2208(fp)
  80279c:	10800404 	addi	r2,r2,16
  8027a0:	e0bdd815 	stw	r2,-2208(fp)
		  		LCD_Line1();
		  		LCD_Show_Text(p1);
		  		LCD_Line2();
		  		LCD_Show_Text(p2);
		  		// if dos botoes
		  		if(but == 11 && but != lastbut)
  8027a4:	00001d06 	br	80281c <SSSInitialTask+0x620>
		  			if(linha2<1984){
		  				linha1+=16;
		  				linha2+=16;

		  			}
		  		}else if(but == 7 && but != lastbut)
  8027a8:	e0bddb17 	ldw	r2,-2196(fp)
  8027ac:	108001d8 	cmpnei	r2,r2,7
  8027b0:	10000d1e 	bne	r2,zero,8027e8 <SSSInitialTask+0x5ec>
  8027b4:	e0fdda07 	ldb	r3,-2200(fp)
  8027b8:	e0bddb17 	ldw	r2,-2196(fp)
  8027bc:	18800a26 	beq	r3,r2,8027e8 <SSSInitialTask+0x5ec>
		  		{
		  			if(linha1>=16){
  8027c0:	e0bdd917 	ldw	r2,-2204(fp)
  8027c4:	10800430 	cmpltui	r2,r2,16
  8027c8:	1000141e 	bne	r2,zero,80281c <SSSInitialTask+0x620>
		  				linha1-=16;
  8027cc:	e0bdd917 	ldw	r2,-2204(fp)
  8027d0:	10bffc04 	addi	r2,r2,-16
  8027d4:	e0bdd915 	stw	r2,-2204(fp)
		  				linha2-=16;
  8027d8:	e0bdd817 	ldw	r2,-2208(fp)
  8027dc:	10bffc04 	addi	r2,r2,-16
  8027e0:	e0bdd815 	stw	r2,-2208(fp)
		  			if(linha2<1984){
		  				linha1+=16;
		  				linha2+=16;

		  			}
		  		}else if(but == 7 && but != lastbut)
  8027e4:	00000d06 	br	80281c <SSSInitialTask+0x620>
		  		{
		  			if(linha1>=16){
		  				linha1-=16;
		  				linha2-=16;
		  			}
		  		}else if(but==13 && but!=lastbut)
  8027e8:	e0bddb17 	ldw	r2,-2196(fp)
  8027ec:	10800358 	cmpnei	r2,r2,13
  8027f0:	10000a1e 	bne	r2,zero,80281c <SSSInitialTask+0x620>
  8027f4:	e0fdda07 	ldb	r3,-2200(fp)
  8027f8:	e0bddb17 	ldw	r2,-2196(fp)
  8027fc:	18800726 	beq	r3,r2,80281c <SSSInitialTask+0x620>
		  		{
		  			flag = 0;
  802800:	e03dda45 	stb	zero,-2199(fp)
		  			linha1 = 0;
  802804:	e03dd915 	stw	zero,-2204(fp)
		  			linha2 = 16;
  802808:	00800404 	movi	r2,16
  80280c:	e0bdd815 	stw	r2,-2208(fp)
		  			LCD_Clear();
  802810:	08003a00 	call	8003a0 <LCD_Clear>
		  			LCD_Show_Text(Text);
  802814:	e13ddd44 	addi	r4,fp,-2187
  802818:	08002a00 	call	8002a0 <LCD_Show_Text>
		  		}

		  		if (choice != 4){
  80281c:	e0bdd707 	ldb	r2,-2212(fp)
  802820:	10800120 	cmpeqi	r2,r2,4
  802824:	1000101e 	bne	r2,zero,802868 <SSSInitialTask+0x66c>
		  			memcpy(p1, &buf[linha1], 16 * sizeof(char));
  802828:	e0fdd917 	ldw	r3,-2204(fp)
  80282c:	e0be0a84 	addi	r2,fp,-2006
  802830:	10c5883a 	add	r2,r2,r3
  802834:	e0fdf944 	addi	r3,fp,-2075
  802838:	1809883a 	mov	r4,r3
  80283c:	100b883a 	mov	r5,r2
  802840:	01800404 	movi	r6,16
  802844:	08052fc0 	call	8052fc <memcpy>
			    	memcpy(p2, &buf[linha2], 16 * sizeof(char));
  802848:	e0fdd817 	ldw	r3,-2208(fp)
  80284c:	e0be0a84 	addi	r2,fp,-2006
  802850:	10c5883a 	add	r2,r2,r3
  802854:	e0fdfd44 	addi	r3,fp,-2059
  802858:	1809883a 	mov	r4,r3
  80285c:	100b883a 	mov	r5,r2
  802860:	01800404 	movi	r6,16
  802864:	08052fc0 	call	8052fc <memcpy>
		  		}

		  	}

		  	lastbut=but;
  802868:	e0bddb17 	ldw	r2,-2196(fp)
  80286c:	e0bdda05 	stb	r2,-2200(fp)

	    msleep(100);
  802870:	010000b4 	movhi	r4,2
  802874:	2121a804 	addi	r4,r4,-31072
  802878:	080f0f40 	call	80f0f4 <usleep>
  }
  80287c:	003edb06 	br	8023ec <SSSInitialTask+0x1f0>

00802880 <main>:

/* Main creates a single task, SSSInitialTask, and starts task scheduler.
 */

int main (int argc, char* argv[], char* envp[])
{
  802880:	deffec04 	addi	sp,sp,-80
  802884:	dfc01315 	stw	ra,76(sp)
  802888:	df001215 	stw	fp,72(sp)
  80288c:	df001204 	addi	fp,sp,72
  802890:	e13ffd15 	stw	r4,-12(fp)
  802894:	e17ffe15 	stw	r5,-8(fp)
  802898:	e1bfff15 	stw	r6,-4(fp)
  
  INT8U error_code;

  DM9000A_INSTANCE( DM9000A_0, dm9000a_0 );
  80289c:	e03ff615 	stw	zero,-40(fp)
  8028a0:	e03ff715 	stw	zero,-36(fp)
  8028a4:	e03ff815 	stw	zero,-32(fp)
  8028a8:	e03ff915 	stw	zero,-28(fp)
  8028ac:	e03ffa15 	stw	zero,-24(fp)
  8028b0:	e03ffb15 	stw	zero,-20(fp)
  8028b4:	e03ffc15 	stw	zero,-16(fp)
  8028b8:	00802174 	movhi	r2,133
  8028bc:	10a03004 	addi	r2,r2,-32576
  8028c0:	e0bff815 	stw	r2,-32(fp)
  8028c4:	00802034 	movhi	r2,128
  8028c8:	10867b04 	addi	r2,r2,6636
  8028cc:	e0bff915 	stw	r2,-28(fp)
  8028d0:	00802174 	movhi	r2,133
  8028d4:	10b55f04 	addi	r2,r2,-10884
  8028d8:	e0bff315 	stw	r2,-52(fp)
  8028dc:	e0bff604 	addi	r2,fp,-40
  8028e0:	e0bff415 	stw	r2,-48(fp)
 */

static ALT_INLINE void ALT_ALWAYS_INLINE alt_llist_insert(alt_llist* list, 
                alt_llist* entry)
{
  entry->previous = list;
  8028e4:	e0fff417 	ldw	r3,-48(fp)
  8028e8:	e0bff317 	ldw	r2,-52(fp)
  8028ec:	18800115 	stw	r2,4(r3)
  entry->next     = list->next;
  8028f0:	e0bff317 	ldw	r2,-52(fp)
  8028f4:	10c00017 	ldw	r3,0(r2)
  8028f8:	e0bff417 	ldw	r2,-48(fp)
  8028fc:	10c00015 	stw	r3,0(r2)

  list->next->previous = entry;
  802900:	e0bff317 	ldw	r2,-52(fp)
  802904:	10c00017 	ldw	r3,0(r2)
  802908:	e0bff417 	ldw	r2,-48(fp)
  80290c:	18800115 	stw	r2,4(r3)
  list->next           = entry;
  802910:	e0fff317 	ldw	r3,-52(fp)
  802914:	e0bff417 	ldw	r2,-48(fp)
  802918:	18800015 	stw	r2,0(r3)
  DM9000A_INIT( DM9000A_0, dm9000a_0 );

  /* Clear the RTOS timer */
  OSTimeSet(0);
  80291c:	0009883a 	mov	r4,zero
  802920:	081782c0 	call	81782c <OSTimeSet>

  /* SSSInitialTask will initialize the NicheStack
   * TCP/IP Stack and then initialize the rest of the Simple Socket Server example
   * RTOS structures and tasks.
   */
  error_code = OSTaskCreateExt(SSSInitialTask,
  802924:	01802174 	movhi	r6,133
  802928:	31bfc104 	addi	r6,r6,-252
  80292c:	00800144 	movi	r2,5
  802930:	d8800015 	stw	r2,0(sp)
  802934:	00802174 	movhi	r2,133
  802938:	10b7c104 	addi	r2,r2,-8444
  80293c:	d8800115 	stw	r2,4(sp)
  802940:	00820004 	movi	r2,2048
  802944:	d8800215 	stw	r2,8(sp)
  802948:	d8000315 	stw	zero,12(sp)
  80294c:	d8000415 	stw	zero,16(sp)
  802950:	01002034 	movhi	r4,128
  802954:	21087f04 	addi	r4,r4,8700
  802958:	000b883a 	mov	r5,zero
  80295c:	01c00144 	movi	r7,5
  802960:	0815f280 	call	815f28 <OSTaskCreateExt>
  802964:	e0bff505 	stb	r2,-44(fp)
                             SSS_INITIAL_TASK_PRIORITY,
                             SSSInitialTaskStk,
                             TASK_STACKSIZE,
                             NULL,
                             0);
  alt_uCOSIIErrorHandler(error_code, 0);
  802968:	e13ff503 	ldbu	r4,-44(fp)
  80296c:	000b883a 	mov	r5,zero
  802970:	080080c0 	call	80080c <alt_uCOSIIErrorHandler>

  /*
   * As with all MicroC/OS-II designs, once the initial thread(s) and
   * associated RTOS resources are declared, we start the RTOS. That's it!
   */
  OSStart();
  802974:	08101540 	call	810154 <OSStart>
  
  while(1); /* Correct Program Flow never gets here. */
  802978:	003fff06 	br	802978 <main+0xf8>

0080297c <led_bit_toggle>:
 * Development Board which controls 8 LEDs, D0 - D7.
 * 
 */
 
void led_bit_toggle(OS_FLAGS bit)
{
  80297c:	defffc04 	addi	sp,sp,-16
  802980:	dfc00315 	stw	ra,12(sp)
  802984:	df000215 	stw	fp,8(sp)
  802988:	df000204 	addi	fp,sp,8
  80298c:	e13fff0d 	sth	r4,-4(fp)
    OS_FLAGS  led_8_val;
    INT8U error_code;
    
    led_8_val = OSFlagQuery(SSSLEDEventFlag, &error_code);
  802990:	00802174 	movhi	r2,133
  802994:	10b58e04 	addi	r2,r2,-10696
  802998:	11000017 	ldw	r4,0(r2)
  80299c:	e17ffe84 	addi	r5,fp,-6
  8029a0:	0812ba40 	call	812ba4 <OSFlagQuery>
  8029a4:	e0bffe0d 	sth	r2,-8(fp)
    alt_uCOSIIErrorHandler(error_code, 0);
  8029a8:	e0bffe83 	ldbu	r2,-6(fp)
  8029ac:	11003fcc 	andi	r4,r2,255
  8029b0:	000b883a 	mov	r5,zero
  8029b4:	080080c0 	call	80080c <alt_uCOSIIErrorHandler>
    if (bit & led_8_val)
  8029b8:	e0ffff0b 	ldhu	r3,-4(fp)
  8029bc:	e0bffe0b 	ldhu	r2,-8(fp)
  8029c0:	1884703a 	and	r2,r3,r2
  8029c4:	10bfffcc 	andi	r2,r2,65535
  8029c8:	1005003a 	cmpeq	r2,r2,zero
  8029cc:	10000d1e 	bne	r2,zero,802a04 <led_bit_toggle+0x88>
    {
       led_8_val = OSFlagPost(SSSLEDEventFlag, bit, OS_FLAG_CLR, &error_code);
  8029d0:	00802174 	movhi	r2,133
  8029d4:	10b58e04 	addi	r2,r2,-10696
  8029d8:	11000017 	ldw	r4,0(r2)
  8029dc:	e17fff0b 	ldhu	r5,-4(fp)
  8029e0:	e1fffe84 	addi	r7,fp,-6
  8029e4:	000d883a 	mov	r6,zero
  8029e8:	08127fc0 	call	8127fc <OSFlagPost>
  8029ec:	e0bffe0d 	sth	r2,-8(fp)
       alt_uCOSIIErrorHandler(error_code, 0);
  8029f0:	e0bffe83 	ldbu	r2,-6(fp)
  8029f4:	11003fcc 	andi	r4,r2,255
  8029f8:	000b883a 	mov	r5,zero
  8029fc:	080080c0 	call	80080c <alt_uCOSIIErrorHandler>
  802a00:	00000c06 	br	802a34 <led_bit_toggle+0xb8>
    }
    else
    {
       led_8_val = OSFlagPost(SSSLEDEventFlag, bit, OS_FLAG_SET, &error_code);
  802a04:	00802174 	movhi	r2,133
  802a08:	10b58e04 	addi	r2,r2,-10696
  802a0c:	11000017 	ldw	r4,0(r2)
  802a10:	e17fff0b 	ldhu	r5,-4(fp)
  802a14:	e1fffe84 	addi	r7,fp,-6
  802a18:	01800044 	movi	r6,1
  802a1c:	08127fc0 	call	8127fc <OSFlagPost>
  802a20:	e0bffe0d 	sth	r2,-8(fp)
       alt_uCOSIIErrorHandler(error_code, 0);
  802a24:	e0bffe83 	ldbu	r2,-6(fp)
  802a28:	11003fcc 	andi	r4,r2,255
  802a2c:	000b883a 	mov	r5,zero
  802a30:	080080c0 	call	80080c <alt_uCOSIIErrorHandler>
       IOWR_ALTERA_AVALON_PIO_DATA(LED_PIO_BASE, led_8_val);
       printf("Value for LED_PIO_BASE set to %d.\n", (INT8U)led_8_val);
    #endif
      
    return;
}
  802a34:	e037883a 	mov	sp,fp
  802a38:	dfc00117 	ldw	ra,4(sp)
  802a3c:	df000017 	ldw	fp,0(sp)
  802a40:	dec00204 	addi	sp,sp,8
  802a44:	f800283a 	ret

00802a48 <LED7SegLightshowTask>:
 * SSSLEDLightshowSem semaphore controlled in LEDManagementTask.
 * 
 */ 
 
void LED7SegLightshowTask()
{
  802a48:	defffd04 	addi	sp,sp,-12
  802a4c:	dfc00215 	stw	ra,8(sp)
  802a50:	df000115 	stw	fp,4(sp)
  802a54:	df000104 	addi	fp,sp,4
   {
    
      /* Wait 50 milliseconds between pattern updates, to make the pattern slow
       * enough for the human eye, and more impotantly, to give up control so
       * MicroC/OS-II can schedule other lower priority tasks. */ 
      OSTimeDlyHMSM(0,0,0,50);
  802a58:	0009883a 	mov	r4,zero
  802a5c:	000b883a 	mov	r5,zero
  802a60:	000d883a 	mov	r6,zero
  802a64:	01c00c84 	movi	r7,50
  802a68:	081736c0 	call	81736c <OSTimeDlyHMSM>
      
      /* Check that we still have the SSSLEDLightshowSem semaphore. If we don't,
       * then wait until the LEDManagement task gives it back to us. */
      OSSemPend(SSSLEDLightshowSem, 0, &error_code);
  802a6c:	00802174 	movhi	r2,133
  802a70:	10b58d04 	addi	r2,r2,-10700
  802a74:	11000017 	ldw	r4,0(r2)
  802a78:	e1bfff84 	addi	r6,fp,-2
  802a7c:	000b883a 	mov	r5,zero
  802a80:	081508c0 	call	81508c <OSSemPend>
      alt_uCOSIIErrorHandler(error_code, 0);
  802a84:	e0bfff83 	ldbu	r2,-2(fp)
  802a88:	11003fcc 	andi	r4,r2,255
  802a8c:	000b883a 	mov	r5,zero
  802a90:	080080c0 	call	80080c <alt_uCOSIIErrorHandler>
      #if SEVEN_SEG_PIO_BASE
         led_7_seg_val = rand();
         IOWR_ALTERA_AVALON_PIO_DATA(SEVEN_SEG_PIO_BASE, led_7_seg_val);
      #endif
      
      error_code = OSSemPost(SSSLEDLightshowSem);
  802a94:	00802174 	movhi	r2,133
  802a98:	10b58d04 	addi	r2,r2,-10700
  802a9c:	11000017 	ldw	r4,0(r2)
  802aa0:	08154840 	call	815484 <OSSemPost>
  802aa4:	e0bfff85 	stb	r2,-2(fp)
      alt_uCOSIIErrorHandler(error_code, 0);
  802aa8:	e0bfff83 	ldbu	r2,-2(fp)
  802aac:	11003fcc 	andi	r4,r2,255
  802ab0:	000b883a 	mov	r5,zero
  802ab4:	080080c0 	call	80080c <alt_uCOSIIErrorHandler>
      
   }
  802ab8:	003fe706 	br	802a58 <LED7SegLightshowTask+0x10>

00802abc <LEDManagementTask>:
 * The task will read the SSSLedCommandQ for an 
 * in-coming message command from the SSSSimpleSocketServerTask. 
 */
 
void LEDManagementTask()
{
  802abc:	defffa04 	addi	sp,sp,-24
  802ac0:	dfc00515 	stw	ra,20(sp)
  802ac4:	df000415 	stw	fp,16(sp)
  802ac8:	df000404 	addi	fp,sp,16
  INT32U led_command; 
  INT16U led_7_seg_val;
  BOOLEAN SSSLEDLightshowActive;
  INT8U error_code;
  
  led_7_seg_val = 0;
  802acc:	e03ffc8d 	sth	zero,-14(fp)
  SSSLEDLightshowActive = OS_TRUE;
  802ad0:	00800044 	movi	r2,1
  802ad4:	e0bffc05 	stb	r2,-16(fp)
  802ad8:	00000006 	br	802adc <LEDManagementTask+0x20>
  
  while(1)
  {
    led_command = (INT32U)OSQPend(SSSLEDCommandQ, 0, &error_code);
  802adc:	00802174 	movhi	r2,133
  802ae0:	10b58c04 	addi	r2,r2,-10704
  802ae4:	11000017 	ldw	r4,0(r2)
  802ae8:	e1bffe04 	addi	r6,fp,-8
  802aec:	000b883a 	mov	r5,zero
  802af0:	08140140 	call	814014 <OSQPend>
  802af4:	e0bffd15 	stw	r2,-12(fp)
   
    alt_uCOSIIErrorHandler(error_code, 0);
  802af8:	e0bffe03 	ldbu	r2,-8(fp)
  802afc:	11003fcc 	andi	r4,r2,255
  802b00:	000b883a 	mov	r5,zero
  802b04:	080080c0 	call	80080c <alt_uCOSIIErrorHandler>
        
    switch (led_command) {
  802b08:	e0bffd17 	ldw	r2,-12(fp)
  802b0c:	10bff404 	addi	r2,r2,-48
  802b10:	e0bfff15 	stw	r2,-4(fp)
  802b14:	e0ffff17 	ldw	r3,-4(fp)
  802b18:	18800928 	cmpgeui	r2,r3,36
  802b1c:	103fef1e 	bne	r2,zero,802adc <LEDManagementTask+0x20>
  802b20:	e13fff17 	ldw	r4,-4(fp)
  802b24:	e13fff17 	ldw	r4,-4(fp)
  802b28:	2105883a 	add	r2,r4,r4
  802b2c:	1087883a 	add	r3,r2,r2
  802b30:	00802034 	movhi	r2,128
  802b34:	108ad104 	addi	r2,r2,11076
  802b38:	1885883a 	add	r2,r3,r2
  802b3c:	10800017 	ldw	r2,0(r2)
  802b40:	1000683a 	jmp	r2
  802b44:	00802bd4 	movui	r2,175
  802b48:	00802be0 	cmpeqi	r2,zero,175
  802b4c:	00802bec 	andhi	r2,zero,175
  802b50:	00802bf8 	rdprs	r2,zero,175
  802b54:	00802c04 	movi	r2,176
  802b58:	00802c10 	cmplti	r2,zero,176
  802b5c:	00802c1c 	xori	r2,zero,176
  802b60:	00802c28 	cmpgeui	r2,zero,176
  802b64:	00802adc 	xori	r2,zero,171
  802b68:	00802adc 	xori	r2,zero,171
  802b6c:	00802adc 	xori	r2,zero,171
  802b70:	00802adc 	xori	r2,zero,171
  802b74:	00802adc 	xori	r2,zero,171
  802b78:	00802adc 	xori	r2,zero,171
  802b7c:	00802adc 	xori	r2,zero,171
  802b80:	00802adc 	xori	r2,zero,171
  802b84:	00802adc 	xori	r2,zero,171
  802b88:	00802adc 	xori	r2,zero,171
  802b8c:	00802adc 	xori	r2,zero,171
  802b90:	00802adc 	xori	r2,zero,171
  802b94:	00802adc 	xori	r2,zero,171
  802b98:	00802adc 	xori	r2,zero,171
  802b9c:	00802adc 	xori	r2,zero,171
  802ba0:	00802adc 	xori	r2,zero,171
  802ba4:	00802adc 	xori	r2,zero,171
  802ba8:	00802adc 	xori	r2,zero,171
  802bac:	00802adc 	xori	r2,zero,171
  802bb0:	00802adc 	xori	r2,zero,171
  802bb4:	00802adc 	xori	r2,zero,171
  802bb8:	00802adc 	xori	r2,zero,171
  802bbc:	00802adc 	xori	r2,zero,171
  802bc0:	00802adc 	xori	r2,zero,171
  802bc4:	00802adc 	xori	r2,zero,171
  802bc8:	00802adc 	xori	r2,zero,171
  802bcc:	00802adc 	xori	r2,zero,171
  802bd0:	00802c34 	movhi	r2,176
      case CMD_LEDS_BIT_0_TOGGLE:
         led_bit_toggle(BIT_0);
  802bd4:	01000044 	movi	r4,1
  802bd8:	080297c0 	call	80297c <led_bit_toggle>
         break;
  802bdc:	003fbf06 	br	802adc <LEDManagementTask+0x20>
      case CMD_LEDS_BIT_1_TOGGLE:
         led_bit_toggle(BIT_1);
  802be0:	01000084 	movi	r4,2
  802be4:	080297c0 	call	80297c <led_bit_toggle>
         break;   
  802be8:	003fbc06 	br	802adc <LEDManagementTask+0x20>
      case CMD_LEDS_BIT_2_TOGGLE:
         led_bit_toggle(BIT_2);
  802bec:	01000104 	movi	r4,4
  802bf0:	080297c0 	call	80297c <led_bit_toggle>
         break;
  802bf4:	003fb906 	br	802adc <LEDManagementTask+0x20>
      case CMD_LEDS_BIT_3_TOGGLE:
         led_bit_toggle(BIT_3);
  802bf8:	01000204 	movi	r4,8
  802bfc:	080297c0 	call	80297c <led_bit_toggle>
         break;
  802c00:	003fb606 	br	802adc <LEDManagementTask+0x20>
      case CMD_LEDS_BIT_4_TOGGLE:
         led_bit_toggle(BIT_4);
  802c04:	01000404 	movi	r4,16
  802c08:	080297c0 	call	80297c <led_bit_toggle>
         break;
  802c0c:	003fb306 	br	802adc <LEDManagementTask+0x20>
      case CMD_LEDS_BIT_5_TOGGLE:
         led_bit_toggle(BIT_5);
  802c10:	01000804 	movi	r4,32
  802c14:	080297c0 	call	80297c <led_bit_toggle>
         break;
  802c18:	003fb006 	br	802adc <LEDManagementTask+0x20>
      case CMD_LEDS_BIT_6_TOGGLE:
         led_bit_toggle(BIT_6);
  802c1c:	01001004 	movi	r4,64
  802c20:	080297c0 	call	80297c <led_bit_toggle>
         break;
  802c24:	003fad06 	br	802adc <LEDManagementTask+0x20>
      case CMD_LEDS_BIT_7_TOGGLE:
         led_bit_toggle(BIT_7);
  802c28:	01002004 	movi	r4,128
  802c2c:	080297c0 	call	80297c <led_bit_toggle>
         break;
  802c30:	003faa06 	br	802adc <LEDManagementTask+0x20>
         /* The SSSLEDLightshowSem semaphore is checked by LED7SegLightshowTask 
          * each time it updates 7 segment LED displays, U8 and U9.  Grab the 
          * semaphore (pend) away from the lightshow task to toggle the lightshow off, 
          * and give up the semaphore (post) to turn the lightshow back on.  
          */
         if (SSSLEDLightshowActive == OS_FALSE)
  802c34:	e0bffc03 	ldbu	r2,-16(fp)
  802c38:	1004c03a 	cmpne	r2,r2,zero
  802c3c:	10000c1e 	bne	r2,zero,802c70 <LEDManagementTask+0x1b4>
         {
             error_code = OSSemPost(SSSLEDLightshowSem);
  802c40:	00802174 	movhi	r2,133
  802c44:	10b58d04 	addi	r2,r2,-10700
  802c48:	11000017 	ldw	r4,0(r2)
  802c4c:	08154840 	call	815484 <OSSemPost>
  802c50:	e0bffe05 	stb	r2,-8(fp)
             alt_uCOSIIErrorHandler(error_code, 0);
  802c54:	e0bffe03 	ldbu	r2,-8(fp)
  802c58:	11003fcc 	andi	r4,r2,255
  802c5c:	000b883a 	mov	r5,zero
  802c60:	080080c0 	call	80080c <alt_uCOSIIErrorHandler>
             SSSLEDLightshowActive = OS_TRUE;
  802c64:	00800044 	movi	r2,1
  802c68:	e0bffc05 	stb	r2,-16(fp)
  802c6c:	003f9b06 	br	802adc <LEDManagementTask+0x20>
         }
         else
         {
             OSSemPend(SSSLEDLightshowSem, 0, &error_code);
  802c70:	00802174 	movhi	r2,133
  802c74:	10b58d04 	addi	r2,r2,-10700
  802c78:	11000017 	ldw	r4,0(r2)
  802c7c:	e1bffe04 	addi	r6,fp,-8
  802c80:	000b883a 	mov	r5,zero
  802c84:	081508c0 	call	81508c <OSSemPend>
             alt_uCOSIIErrorHandler(error_code, 0); 
  802c88:	e0bffe03 	ldbu	r2,-8(fp)
  802c8c:	11003fcc 	andi	r4,r2,255
  802c90:	000b883a 	mov	r5,zero
  802c94:	080080c0 	call	80080c <alt_uCOSIIErrorHandler>
             SSSLEDLightshowActive = OS_FALSE;
  802c98:	e03ffc05 	stb	zero,-16(fp)
         break;
      default:     
        /* Discard unknown LED commands. */
        break;
    } /* switch led_command */
  } /* while(1) */
  802c9c:	003f8f06 	br	802adc <LEDManagementTask+0x20>

00802ca0 <get_mac_addr>:
* Read the MAC address in a board specific way. Prompt user to enter serial 
* number to generate MAC address if failed to read from flash.
*
*/
int get_mac_addr(NET net, unsigned char mac_addr[6])
{
  802ca0:	defffb04 	addi	sp,sp,-20
  802ca4:	dfc00415 	stw	ra,16(sp)
  802ca8:	df000315 	stw	fp,12(sp)
  802cac:	df000304 	addi	fp,sp,12
  802cb0:	e13ffe15 	stw	r4,-8(fp)
  802cb4:	e17fff15 	stw	r5,-4(fp)
    error_t error = 0;
  802cb8:	e03ffd15 	stw	zero,-12(fp)
    
    error = get_board_mac_addr(mac_addr);
  802cbc:	e13fff17 	ldw	r4,-4(fp)
  802cc0:	08032480 	call	803248 <get_board_mac_addr>
  802cc4:	e0bffd15 	stw	r2,-12(fp)
    
    if(error)
  802cc8:	e0bffd17 	ldw	r2,-12(fp)
  802ccc:	1005003a 	cmpeq	r2,r2,zero
  802cd0:	1000031e 	bne	r2,zero,802ce0 <get_mac_addr+0x40>
    {
        /* Failed read MAC address from flash, prompt user to enter serial 
           number to generate MAC address. */
        error = generate_mac_addr(mac_addr);
  802cd4:	e13fff17 	ldw	r4,-4(fp)
  802cd8:	080310c0 	call	80310c <generate_mac_addr>
  802cdc:	e0bffd15 	stw	r2,-12(fp)
    }
    return error;
  802ce0:	e0bffd17 	ldw	r2,-12(fp)
}
  802ce4:	e037883a 	mov	sp,fp
  802ce8:	dfc00117 	ldw	ra,4(sp)
  802cec:	df000017 	ldw	fp,0(sp)
  802cf0:	dec00204 	addi	sp,sp,8
  802cf4:	f800283a 	ret

00802cf8 <get_ip_addr>:
int get_ip_addr(alt_iniche_dev *p_dev,
                ip_addr* ipaddr,
                ip_addr* netmask,
                ip_addr* gw,
                int* use_dhcp)
{
  802cf8:	defffb04 	addi	sp,sp,-20
  802cfc:	df000415 	stw	fp,16(sp)
  802d00:	df000404 	addi	fp,sp,16
  802d04:	e13ffc15 	stw	r4,-16(fp)
  802d08:	e17ffd15 	stw	r5,-12(fp)
  802d0c:	e1bffe15 	stw	r6,-8(fp)
  802d10:	e1ffff15 	stw	r7,-4(fp)

    IP4_ADDR(*ipaddr, IPADDR0, IPADDR1, IPADDR2, IPADDR3);
  802d14:	e0fffd17 	ldw	r3,-12(fp)
  802d18:	00abc0b4 	movhi	r2,44802
  802d1c:	1080c284 	addi	r2,r2,778
  802d20:	18800015 	stw	r2,0(r3)
    IP4_ADDR(*gw, GWADDR0, GWADDR1, GWADDR2, GWADDR3);
  802d24:	e0ffff17 	ldw	r3,-4(fp)
  802d28:	00bf80b4 	movhi	r2,65026
  802d2c:	1080c284 	addi	r2,r2,778
  802d30:	18800015 	stw	r2,0(r3)
    IP4_ADDR(*netmask, MSKADDR0, MSKADDR1, MSKADDR2, MSKADDR3);
  802d34:	e0fffe17 	ldw	r3,-8(fp)
  802d38:	00804034 	movhi	r2,256
  802d3c:	10bfffc4 	addi	r2,r2,-1
  802d40:	18800015 	stw	r2,0(r3)

#ifdef DHCP_CLIENT
    *use_dhcp = 1;
  802d44:	e0c00117 	ldw	r3,4(fp)
  802d48:	00800044 	movi	r2,1
  802d4c:	18800015 	stw	r2,0(r3)
        ip4_addr3(*ipaddr),
        ip4_addr4(*ipaddr));
#endif /* not DHCP_CLIENT */

    /* Non-standard API: return 1 for success */
    return 1;
  802d50:	00800044 	movi	r2,1
}
  802d54:	e037883a 	mov	sp,fp
  802d58:	df000017 	ldw	fp,0(sp)
  802d5c:	dec00104 	addi	sp,sp,4
  802d60:	f800283a 	ret

00802d64 <get_serial_number>:
*
* Prompt user to enter 9-digit serial number. 
*
*/
alt_u32 get_serial_number (void)
{
  802d64:	defff804 	addi	sp,sp,-32
  802d68:	dfc00715 	stw	ra,28(sp)
  802d6c:	df000615 	stw	fp,24(sp)
  802d70:	dc000515 	stw	r16,20(sp)
  802d74:	df000504 	addi	fp,sp,20
    alt_u32 ser_num = 0;
  802d78:	e03ffc15 	stw	zero,-16(fp)
    char serial_number[9];
    int i = 0;
  802d7c:	e03ffb15 	stw	zero,-20(fp)
    
    while(!ser_num)
  802d80:	00006506 	br	802f18 <get_serial_number+0x1b4>
    {
        printf("Please enter your 9-digit serial number. This is printed on a \n");
  802d84:	01002174 	movhi	r4,133
  802d88:	21203404 	addi	r4,r4,-32560
  802d8c:	08058bc0 	call	8058bc <puts>
        printf("label under your Nios dev. board. The first 3 digits of the \n");
  802d90:	01002174 	movhi	r4,133
  802d94:	21204404 	addi	r4,r4,-32496
  802d98:	08058bc0 	call	8058bc <puts>
        printf("label are ASJ and the serial number follows this.\n -->");
  802d9c:	01002174 	movhi	r4,133
  802da0:	21205404 	addi	r4,r4,-32432
  802da4:	08055940 	call	805594 <printf>
        
        for(i=0; i<9; i++)
  802da8:	e03ffb15 	stw	zero,-20(fp)
  802dac:	00002806 	br	802e50 <get_serial_number+0xec>
        {
            serial_number[i] = getchar();
  802db0:	e43ffb17 	ldw	r16,-20(fp)
  802db4:	00802174 	movhi	r2,133
  802db8:	10b53504 	addi	r2,r2,-11052
  802dbc:	10800017 	ldw	r2,0(r2)
  802dc0:	11000117 	ldw	r4,4(r2)
  802dc4:	08051d40 	call	8051d4 <getc>
  802dc8:	1007883a 	mov	r3,r2
  802dcc:	e0bffd04 	addi	r2,fp,-12
  802dd0:	1405883a 	add	r2,r2,r16
  802dd4:	10c00005 	stb	r3,0(r2)
            putchar(serial_number[i]);
  802dd8:	e0fffb17 	ldw	r3,-20(fp)
  802ddc:	e0bffd04 	addi	r2,fp,-12
  802de0:	10c5883a 	add	r2,r2,r3
  802de4:	10800003 	ldbu	r2,0(r2)
  802de8:	11003fcc 	andi	r4,r2,255
  802dec:	2100201c 	xori	r4,r4,128
  802df0:	213fe004 	addi	r4,r4,-128
  802df4:	00802174 	movhi	r2,133
  802df8:	10b53504 	addi	r2,r2,-11052
  802dfc:	10800017 	ldw	r2,0(r2)
  802e00:	11400217 	ldw	r5,8(r2)
  802e04:	080560c0 	call	80560c <putc>
            
            /* Handle backspaces.  How civilized. */
            if ((serial_number[i] == 0x08) && (i >= 0)) 
  802e08:	e0fffb17 	ldw	r3,-20(fp)
  802e0c:	e0bffd04 	addi	r2,fp,-12
  802e10:	10c5883a 	add	r2,r2,r3
  802e14:	10800003 	ldbu	r2,0(r2)
  802e18:	10803fcc 	andi	r2,r2,255
  802e1c:	1080201c 	xori	r2,r2,128
  802e20:	10bfe004 	addi	r2,r2,-128
  802e24:	10800218 	cmpnei	r2,r2,8
  802e28:	1000061e 	bne	r2,zero,802e44 <get_serial_number+0xe0>
  802e2c:	e0bffb17 	ldw	r2,-20(fp)
  802e30:	1004803a 	cmplt	r2,r2,zero
  802e34:	1000031e 	bne	r2,zero,802e44 <get_serial_number+0xe0>
            {
                i--;
  802e38:	e0bffb17 	ldw	r2,-20(fp)
  802e3c:	10bfffc4 	addi	r2,r2,-1
  802e40:	e0bffb15 	stw	r2,-20(fp)
    {
        printf("Please enter your 9-digit serial number. This is printed on a \n");
        printf("label under your Nios dev. board. The first 3 digits of the \n");
        printf("label are ASJ and the serial number follows this.\n -->");
        
        for(i=0; i<9; i++)
  802e44:	e0bffb17 	ldw	r2,-20(fp)
  802e48:	10800044 	addi	r2,r2,1
  802e4c:	e0bffb15 	stw	r2,-20(fp)
  802e50:	e0bffb17 	ldw	r2,-20(fp)
  802e54:	10800250 	cmplti	r2,r2,9
  802e58:	103fd51e 	bne	r2,zero,802db0 <get_serial_number+0x4c>
            if ((serial_number[i] == 0x08) && (i >= 0)) 
            {
                i--;
            }
        }
        printf("\n");
  802e5c:	01000284 	movi	r4,10
  802e60:	08057f80 	call	8057f8 <putchar>
                
        for(i=0; i<9; i++)
  802e64:	e03ffb15 	stw	zero,-20(fp)
  802e68:	00002806 	br	802f0c <get_serial_number+0x1a8>
        {
            if (isdigit(serial_number[i]))
  802e6c:	e0fffb17 	ldw	r3,-20(fp)
  802e70:	e0bffd04 	addi	r2,fp,-12
  802e74:	10c5883a 	add	r2,r2,r3
  802e78:	10800003 	ldbu	r2,0(r2)
  802e7c:	10803fcc 	andi	r2,r2,255
  802e80:	1080201c 	xori	r2,r2,128
  802e84:	10bfe004 	addi	r2,r2,-128
  802e88:	1007883a 	mov	r3,r2
  802e8c:	00802174 	movhi	r2,133
  802e90:	10b53404 	addi	r2,r2,-11056
  802e94:	10800017 	ldw	r2,0(r2)
  802e98:	1885883a 	add	r2,r3,r2
  802e9c:	10800003 	ldbu	r2,0(r2)
  802ea0:	10803fcc 	andi	r2,r2,255
  802ea4:	1080010c 	andi	r2,r2,4
  802ea8:	1005003a 	cmpeq	r2,r2,zero
  802eac:	1000121e 	bne	r2,zero,802ef8 <get_serial_number+0x194>
            {
                ser_num *= 10;
  802eb0:	e0bffc17 	ldw	r2,-16(fp)
  802eb4:	108002a4 	muli	r2,r2,10
  802eb8:	e0bffc15 	stw	r2,-16(fp)
                ser_num += serial_number[i] - '0';
  802ebc:	e0fffb17 	ldw	r3,-20(fp)
  802ec0:	e0bffd04 	addi	r2,fp,-12
  802ec4:	10c5883a 	add	r2,r2,r3
  802ec8:	10800003 	ldbu	r2,0(r2)
  802ecc:	10c03fcc 	andi	r3,r2,255
  802ed0:	18c0201c 	xori	r3,r3,128
  802ed4:	18ffe004 	addi	r3,r3,-128
  802ed8:	e0bffc17 	ldw	r2,-16(fp)
  802edc:	1885883a 	add	r2,r3,r2
  802ee0:	10bff404 	addi	r2,r2,-48
  802ee4:	e0bffc15 	stw	r2,-16(fp)
                i--;
            }
        }
        printf("\n");
                
        for(i=0; i<9; i++)
  802ee8:	e0bffb17 	ldw	r2,-20(fp)
  802eec:	10800044 	addi	r2,r2,1
  802ef0:	e0bffb15 	stw	r2,-20(fp)
  802ef4:	00000506 	br	802f0c <get_serial_number+0x1a8>
                ser_num *= 10;
                ser_num += serial_number[i] - '0';
            }
            else
            {
                ser_num = 0;
  802ef8:	e03ffc15 	stw	zero,-16(fp)
                printf("Serial number only contains decimal digits and is non-zero\n");
  802efc:	01002174 	movhi	r4,133
  802f00:	21206204 	addi	r4,r4,-32376
  802f04:	08058bc0 	call	8058bc <puts>
                break;
  802f08:	00000306 	br	802f18 <get_serial_number+0x1b4>
                i--;
            }
        }
        printf("\n");
                
        for(i=0; i<9; i++)
  802f0c:	e0bffb17 	ldw	r2,-20(fp)
  802f10:	10800250 	cmplti	r2,r2,9
  802f14:	103fd51e 	bne	r2,zero,802e6c <get_serial_number+0x108>
{
    alt_u32 ser_num = 0;
    char serial_number[9];
    int i = 0;
    
    while(!ser_num)
  802f18:	e0bffc17 	ldw	r2,-16(fp)
  802f1c:	1005003a 	cmpeq	r2,r2,zero
  802f20:	103f981e 	bne	r2,zero,802d84 <get_serial_number+0x20>
                break;
            }
        }
    }
    
    return ser_num;
  802f24:	e0bffc17 	ldw	r2,-16(fp)
}
  802f28:	e037883a 	mov	sp,fp
  802f2c:	dfc00217 	ldw	ra,8(sp)
  802f30:	df000117 	ldw	fp,4(sp)
  802f34:	dc000017 	ldw	r16,0(sp)
  802f38:	dec00304 	addi	sp,sp,12
  802f3c:	f800283a 	ret

00802f40 <generate_and_store_mac_addr>:
 * sections. These fail-safe static settings are compatible with previous
 * Nios Ethernet designs, and allow the "factory-safe" design to behave 
 * as expected if the last flash sector is erased.
 */
error_t generate_and_store_mac_addr()
{
  802f40:	deffef04 	addi	sp,sp,-68
  802f44:	dfc01015 	stw	ra,64(sp)
  802f48:	df000f15 	stw	fp,60(sp)
  802f4c:	df000f04 	addi	fp,sp,60
    error_t error = -1;
  802f50:	00bfffc4 	movi	r2,-1
  802f54:	e0bff715 	stw	r2,-36(fp)
    alt_u32 ser_num = 0;
  802f58:	e03ff615 	stw	zero,-40(fp)
    char flash_content[32];
    alt_flash_fd* flash_handle;
    
    printf("Can't read the MAC address from your board (this probably means\n");
  802f5c:	01002174 	movhi	r4,133
  802f60:	21207104 	addi	r4,r4,-32316
  802f64:	08058bc0 	call	8058bc <puts>
    printf("that your flash was erased). We will assign you a MAC address and\n");
  802f68:	01002174 	movhi	r4,133
  802f6c:	21208104 	addi	r4,r4,-32252
  802f70:	08058bc0 	call	8058bc <puts>
    printf("static network settings\n\n");
  802f74:	01002174 	movhi	r4,133
  802f78:	21209204 	addi	r4,r4,-32184
  802f7c:	08058bc0 	call	8058bc <puts>
    
    ser_num = get_serial_number();
  802f80:	0802d640 	call	802d64 <get_serial_number>
  802f84:	e0bff615 	stw	r2,-40(fp)
  
    if (ser_num)
  802f88:	e0bff617 	ldw	r2,-40(fp)
  802f8c:	1005003a 	cmpeq	r2,r2,zero
  802f90:	1000581e 	bne	r2,zero,8030f4 <generate_and_store_mac_addr+0x1b4>
    {
        /* This says the image is safe */
        flash_content[0] = 0xfe;
  802f94:	00bfff84 	movi	r2,-2
  802f98:	e0bff805 	stb	r2,-32(fp)
        flash_content[1] = 0x5a;
  802f9c:	00801684 	movi	r2,90
  802fa0:	e0bff845 	stb	r2,-31(fp)
        flash_content[2] = 0x0;
  802fa4:	e03ff885 	stb	zero,-30(fp)
        flash_content[3] = 0x0;
  802fa8:	e03ff8c5 	stb	zero,-29(fp)
        
        /* This is the Altera Vendor ID */
        flash_content[4] = 0x0;
  802fac:	e03ff905 	stb	zero,-28(fp)
        flash_content[5] = 0x7;
  802fb0:	008001c4 	movi	r2,7
  802fb4:	e0bff945 	stb	r2,-27(fp)
        flash_content[6] = 0xed;
  802fb8:	00bffb44 	movi	r2,-19
  802fbc:	e0bff985 	stb	r2,-26(fp)
        
        /* Reserverd Board identifier for erase boards */
        flash_content[7] = 0xFF;
  802fc0:	00bfffc4 	movi	r2,-1
  802fc4:	e0bff9c5 	stb	r2,-25(fp)
        flash_content[8] = (ser_num & 0xff00) >> 8;
  802fc8:	e0bff617 	ldw	r2,-40(fp)
  802fcc:	10bfc00c 	andi	r2,r2,65280
  802fd0:	1004d23a 	srli	r2,r2,8
  802fd4:	e0bffa05 	stb	r2,-24(fp)
        flash_content[9] = ser_num & 0xff;
  802fd8:	e0bff617 	ldw	r2,-40(fp)
  802fdc:	e0bffa45 	stb	r2,-23(fp)
        
        /* Then comes a 16-bit "flags" field */
        flash_content[10] = 0xFF;
  802fe0:	00bfffc4 	movi	r2,-1
  802fe4:	e0bffa85 	stb	r2,-22(fp)
        flash_content[11] = 0xFF;
  802fe8:	00bfffc4 	movi	r2,-1
  802fec:	e0bffac5 	stb	r2,-21(fp)
        
        /* Then comes the static IP address */
        flash_content[12] = IPADDR0;
  802ff0:	00800284 	movi	r2,10
  802ff4:	e0bffb05 	stb	r2,-20(fp)
        flash_content[13] = IPADDR1;
  802ff8:	008000c4 	movi	r2,3
  802ffc:	e0bffb45 	stb	r2,-19(fp)
        flash_content[14] = IPADDR2;
  803000:	00800084 	movi	r2,2
  803004:	e0bffb85 	stb	r2,-18(fp)
        flash_content[15] = IPADDR3;
  803008:	00bfebc4 	movi	r2,-81
  80300c:	e0bffbc5 	stb	r2,-17(fp)
        
        /* Then comes the static nameserver address */
        flash_content[16] = 0xFF;
  803010:	00bfffc4 	movi	r2,-1
  803014:	e0bffc05 	stb	r2,-16(fp)
        flash_content[17] = 0xFF;
  803018:	00bfffc4 	movi	r2,-1
  80301c:	e0bffc45 	stb	r2,-15(fp)
        flash_content[18] = 0xFF;
  803020:	00bfffc4 	movi	r2,-1
  803024:	e0bffc85 	stb	r2,-14(fp)
        flash_content[19] = 0xFF;
  803028:	00bfffc4 	movi	r2,-1
  80302c:	e0bffcc5 	stb	r2,-13(fp)
        
        /* Then comes the static subnet mask */
        flash_content[20] = MSKADDR0;
  803030:	00bfffc4 	movi	r2,-1
  803034:	e0bffd05 	stb	r2,-12(fp)
        flash_content[21] = MSKADDR1;
  803038:	00bfffc4 	movi	r2,-1
  80303c:	e0bffd45 	stb	r2,-11(fp)
        flash_content[22] = MSKADDR2;
  803040:	00bfffc4 	movi	r2,-1
  803044:	e0bffd85 	stb	r2,-10(fp)
        flash_content[23] = MSKADDR3;
  803048:	e03ffdc5 	stb	zero,-9(fp)
        
        /* Then comes the static gateway address */
        flash_content[24] = GWADDR0;
  80304c:	00800284 	movi	r2,10
  803050:	e0bffe05 	stb	r2,-8(fp)
        flash_content[25] = GWADDR1;
  803054:	008000c4 	movi	r2,3
  803058:	e0bffe45 	stb	r2,-7(fp)
        flash_content[26] = GWADDR2;
  80305c:	00800084 	movi	r2,2
  803060:	e0bffe85 	stb	r2,-6(fp)
        flash_content[27] = GWADDR3;
  803064:	00bfff84 	movi	r2,-2
  803068:	e0bffec5 	stb	r2,-5(fp)
        
        /* And finally whether to use DHCP - set all bits to be safe */
        flash_content[28] = 0xFF;
  80306c:	00bfffc4 	movi	r2,-1
  803070:	e0bfff05 	stb	r2,-4(fp)
        flash_content[29] = 0xFF;
  803074:	00bfffc4 	movi	r2,-1
  803078:	e0bfff45 	stb	r2,-3(fp)
        flash_content[30] = 0xFF;
  80307c:	00bfffc4 	movi	r2,-1
  803080:	e0bfff85 	stb	r2,-2(fp)
        flash_content[31] = 0xFF;
  803084:	00bfffc4 	movi	r2,-1
  803088:	e0bfffc5 	stb	r2,-1(fp)
        
        /* Write the MAC address to flash */
        flash_handle = alt_flash_open_dev(CFI_FLASH_0_NAME);
  80308c:	01002174 	movhi	r4,133
  803090:	21209904 	addi	r4,r4,-32156
  803094:	080e93c0 	call	80e93c <alt_flash_open_dev>
  803098:	e0bff515 	stw	r2,-44(fp)
        if (flash_handle)
  80309c:	e0bff517 	ldw	r2,-44(fp)
  8030a0:	1005003a 	cmpeq	r2,r2,zero
  8030a4:	1000131e 	bne	r2,zero,8030f4 <generate_and_store_mac_addr+0x1b4>
        {
            alt_write_flash(flash_handle,
  8030a8:	d0a05217 	ldw	r2,-32440(gp)
  8030ac:	1007883a 	mov	r3,r2
  8030b0:	e0bff517 	ldw	r2,-44(fp)
  8030b4:	e0bff115 	stw	r2,-60(fp)
  8030b8:	e0fff215 	stw	r3,-56(fp)
  8030bc:	e0bff804 	addi	r2,fp,-32
  8030c0:	e0bff315 	stw	r2,-52(fp)
  8030c4:	00800804 	movi	r2,32
  8030c8:	e0bff415 	stw	r2,-48(fp)
                                                           alt_flash_fd* fd, 
                                                           int offset, 
                                                           const void* src_addr, 
                                                           int length )
{
  return fd->write( fd, offset, src_addr, length );
  8030cc:	e0bff117 	ldw	r2,-60(fp)
  8030d0:	10800517 	ldw	r2,20(r2)
  8030d4:	e13ff117 	ldw	r4,-60(fp)
  8030d8:	e17ff217 	ldw	r5,-56(fp)
  8030dc:	e1bff317 	ldw	r6,-52(fp)
  8030e0:	e1fff417 	ldw	r7,-48(fp)
  8030e4:	103ee83a 	callr	r2
                            last_flash_sector_offset,
                            flash_content,
                            32);
            alt_flash_close_dev(flash_handle);
  8030e8:	e13ff517 	ldw	r4,-44(fp)
  8030ec:	080e9b80 	call	80e9b8 <alt_flash_close_dev>
            error = 0;
  8030f0:	e03ff715 	stw	zero,-36(fp)
        }
    }

    return error;    
  8030f4:	e0bff717 	ldw	r2,-36(fp)
}
  8030f8:	e037883a 	mov	sp,fp
  8030fc:	dfc00117 	ldw	ra,4(sp)
  803100:	df000017 	ldw	fp,0(sp)
  803104:	dec00204 	addi	sp,sp,8
  803108:	f800283a 	ret

0080310c <generate_mac_addr>:
 * Development Board serial number is 040800017, the corresponding ethernet 
 * number generated will be 00:07:ED:FF:8F:11.
 * 
 */
error_t generate_mac_addr(unsigned char mac_addr[6])
{
  80310c:	defff804 	addi	sp,sp,-32
  803110:	dfc00715 	stw	ra,28(sp)
  803114:	df000615 	stw	fp,24(sp)
  803118:	df000604 	addi	fp,sp,24
  80311c:	e13fff15 	stw	r4,-4(fp)
    error_t error = -1;
  803120:	00bfffc4 	movi	r2,-1
  803124:	e0bffe15 	stw	r2,-8(fp)
    alt_u32 ser_num = 0;
  803128:	e03ffd15 	stw	zero,-12(fp)
    
    printf("\nCan't read the MAC address from your board. We will assign you\n");
  80312c:	01002174 	movhi	r4,133
  803130:	21209e04 	addi	r4,r4,-32136
  803134:	08058bc0 	call	8058bc <puts>
    printf("a MAC address.\n\n");
  803138:	01002174 	movhi	r4,133
  80313c:	2120ae04 	addi	r4,r4,-32072
  803140:	08058bc0 	call	8058bc <puts>
    
    ser_num = get_serial_number();
  803144:	0802d640 	call	802d64 <get_serial_number>
  803148:	e0bffd15 	stw	r2,-12(fp)
  
    if (ser_num)
  80314c:	e0bffd17 	ldw	r2,-12(fp)
  803150:	1005003a 	cmpeq	r2,r2,zero
  803154:	1000361e 	bne	r2,zero,803230 <generate_mac_addr+0x124>
    {
        /* This is the Altera Vendor ID */
        mac_addr[0] = 0x0;
  803158:	e0bfff17 	ldw	r2,-4(fp)
  80315c:	10000005 	stb	zero,0(r2)
        mac_addr[1] = 0x7;
  803160:	e0bfff17 	ldw	r2,-4(fp)
  803164:	10c00044 	addi	r3,r2,1
  803168:	008001c4 	movi	r2,7
  80316c:	18800005 	stb	r2,0(r3)
        mac_addr[2] = 0xed;
  803170:	e0bfff17 	ldw	r2,-4(fp)
  803174:	10c00084 	addi	r3,r2,2
  803178:	00bffb44 	movi	r2,-19
  80317c:	18800005 	stb	r2,0(r3)
        
        /* Reserverd Board identifier */
        mac_addr[3] = 0xFF;
  803180:	e0bfff17 	ldw	r2,-4(fp)
  803184:	10c000c4 	addi	r3,r2,3
  803188:	00bfffc4 	movi	r2,-1
  80318c:	18800005 	stb	r2,0(r3)
        mac_addr[4] = (ser_num & 0xff00) >> 8;
  803190:	e0bfff17 	ldw	r2,-4(fp)
  803194:	10c00104 	addi	r3,r2,4
  803198:	e0bffd17 	ldw	r2,-12(fp)
  80319c:	10bfc00c 	andi	r2,r2,65280
  8031a0:	1004d23a 	srli	r2,r2,8
  8031a4:	18800005 	stb	r2,0(r3)
        mac_addr[5] = ser_num & 0xff;
  8031a8:	e0bfff17 	ldw	r2,-4(fp)
  8031ac:	10c00144 	addi	r3,r2,5
  8031b0:	e0bffd17 	ldw	r2,-12(fp)
  8031b4:	18800005 	stb	r2,0(r3)
        
        printf("Your Ethernet MAC address is %02x:%02x:%02x:%02x:%02x:%02x\n", 
  8031b8:	e0bfff17 	ldw	r2,-4(fp)
  8031bc:	10800003 	ldbu	r2,0(r2)
  8031c0:	11403fcc 	andi	r5,r2,255
  8031c4:	e0bfff17 	ldw	r2,-4(fp)
  8031c8:	10800044 	addi	r2,r2,1
  8031cc:	10800003 	ldbu	r2,0(r2)
  8031d0:	11803fcc 	andi	r6,r2,255
  8031d4:	e0bfff17 	ldw	r2,-4(fp)
  8031d8:	10800084 	addi	r2,r2,2
  8031dc:	10800003 	ldbu	r2,0(r2)
  8031e0:	11c03fcc 	andi	r7,r2,255
  8031e4:	e0bfff17 	ldw	r2,-4(fp)
  8031e8:	108000c4 	addi	r2,r2,3
  8031ec:	10800003 	ldbu	r2,0(r2)
  8031f0:	10c03fcc 	andi	r3,r2,255
  8031f4:	e0bfff17 	ldw	r2,-4(fp)
  8031f8:	10800104 	addi	r2,r2,4
  8031fc:	10800003 	ldbu	r2,0(r2)
  803200:	11003fcc 	andi	r4,r2,255
  803204:	e0bfff17 	ldw	r2,-4(fp)
  803208:	10800144 	addi	r2,r2,5
  80320c:	10800003 	ldbu	r2,0(r2)
  803210:	10803fcc 	andi	r2,r2,255
  803214:	d8c00015 	stw	r3,0(sp)
  803218:	d9000115 	stw	r4,4(sp)
  80321c:	d8800215 	stw	r2,8(sp)
  803220:	01002174 	movhi	r4,133
  803224:	2120b204 	addi	r4,r4,-32056
  803228:	08055940 	call	805594 <printf>
            mac_addr[2],
            mac_addr[3],
            mac_addr[4],
            mac_addr[5]);
        
        error = 0;
  80322c:	e03ffe15 	stw	zero,-8(fp)
    }
  
    return error;    
  803230:	e0bffe17 	ldw	r2,-8(fp)
}
  803234:	e037883a 	mov	sp,fp
  803238:	dfc00117 	ldw	ra,4(sp)
  80323c:	df000017 	ldw	fp,0(sp)
  803240:	dec00204 	addi	sp,sp,8
  803244:	f800283a 	ret

00803248 <get_board_mac_addr>:
*
* Read the MAC address in a board specific way
*
*/
error_t get_board_mac_addr(unsigned char mac_addr[6])
{
  803248:	defff804 	addi	sp,sp,-32
  80324c:	dfc00715 	stw	ra,28(sp)
  803250:	df000615 	stw	fp,24(sp)
  803254:	df000604 	addi	fp,sp,24
  803258:	e13fff15 	stw	r4,-4(fp)
    error_t error = 0;
  80325c:	e03ffe15 	stw	zero,-8(fp)
    alt_u32 signature;
    
    /* Get the flash sector with the MAC address. */
    error = FindLastFlashSectorOffset(&last_flash_sector_offset);
  803260:	d1205204 	addi	r4,gp,-32440
  803264:	08006c80 	call	8006c8 <FindLastFlashSectorOffset>
  803268:	e0bffe15 	stw	r2,-8(fp)
    if (!error)
  80326c:	e0bffe17 	ldw	r2,-8(fp)
  803270:	1004c03a 	cmpne	r2,r2,zero
  803274:	1000041e 	bne	r2,zero,803288 <get_board_mac_addr+0x40>
        last_flash_sector = CFI_FLASH_0_BASE + last_flash_sector_offset;
  803278:	d0a05217 	ldw	r2,-32440(gp)
  80327c:	00c05034 	movhi	r3,320
  803280:	10c5883a 	add	r2,r2,r3
  803284:	d0a05315 	stw	r2,-32436(gp)
     * valid network settings are present, indicated by a signature of 0x00005afe at 
     * the first address of the last flash sector.  This hex value is chosen as the 
     * signature since it looks like the english word "SAFE", meaning that it is 
     * safe to use these network address values.  
    */
    if (!error)
  803288:	e0bffe17 	ldw	r2,-8(fp)
  80328c:	1004c03a 	cmpne	r2,r2,zero
  803290:	1000081e 	bne	r2,zero,8032b4 <get_board_mac_addr+0x6c>
    {
        signature = IORD_32DIRECT(last_flash_sector, 0);
  803294:	d0a05317 	ldw	r2,-32436(gp)
  803298:	10800037 	ldwio	r2,0(r2)
  80329c:	e0bffd15 	stw	r2,-12(fp)
        if (signature != 0x00005afe)
  8032a0:	e0bffd17 	ldw	r2,-12(fp)
  8032a4:	1096bfa0 	cmpeqi	r2,r2,23294
  8032a8:	1000021e 	bne	r2,zero,8032b4 <get_board_mac_addr+0x6c>
        {
          error = generate_and_store_mac_addr();
  8032ac:	0802f400 	call	802f40 <generate_and_store_mac_addr>
  8032b0:	e0bffe15 	stw	r2,-8(fp)
        }
    }
  
    if (!error)
  8032b4:	e0bffe17 	ldw	r2,-8(fp)
  8032b8:	1004c03a 	cmpne	r2,r2,zero
  8032bc:	1000411e 	bne	r2,zero,8033c4 <get_board_mac_addr+0x17c>
    {
        mac_addr[0] = IORD_8DIRECT(last_flash_sector, 4);
  8032c0:	d0a05317 	ldw	r2,-32436(gp)
  8032c4:	10800104 	addi	r2,r2,4
  8032c8:	10800023 	ldbuio	r2,0(r2)
  8032cc:	1007883a 	mov	r3,r2
  8032d0:	e0bfff17 	ldw	r2,-4(fp)
  8032d4:	10c00005 	stb	r3,0(r2)
        mac_addr[1] = IORD_8DIRECT(last_flash_sector, 5);
  8032d8:	e0bfff17 	ldw	r2,-4(fp)
  8032dc:	10c00044 	addi	r3,r2,1
  8032e0:	d0a05317 	ldw	r2,-32436(gp)
  8032e4:	10800144 	addi	r2,r2,5
  8032e8:	10800023 	ldbuio	r2,0(r2)
  8032ec:	18800005 	stb	r2,0(r3)
        mac_addr[2] = IORD_8DIRECT(last_flash_sector, 6);
  8032f0:	e0bfff17 	ldw	r2,-4(fp)
  8032f4:	10c00084 	addi	r3,r2,2
  8032f8:	d0a05317 	ldw	r2,-32436(gp)
  8032fc:	10800184 	addi	r2,r2,6
  803300:	10800023 	ldbuio	r2,0(r2)
  803304:	18800005 	stb	r2,0(r3)
        mac_addr[3] = IORD_8DIRECT(last_flash_sector, 7);
  803308:	e0bfff17 	ldw	r2,-4(fp)
  80330c:	10c000c4 	addi	r3,r2,3
  803310:	d0a05317 	ldw	r2,-32436(gp)
  803314:	108001c4 	addi	r2,r2,7
  803318:	10800023 	ldbuio	r2,0(r2)
  80331c:	18800005 	stb	r2,0(r3)
        mac_addr[4] = IORD_8DIRECT(last_flash_sector, 8);
  803320:	e0bfff17 	ldw	r2,-4(fp)
  803324:	10c00104 	addi	r3,r2,4
  803328:	d0a05317 	ldw	r2,-32436(gp)
  80332c:	10800204 	addi	r2,r2,8
  803330:	10800023 	ldbuio	r2,0(r2)
  803334:	18800005 	stb	r2,0(r3)
        mac_addr[5] = IORD_8DIRECT(last_flash_sector, 9);
  803338:	e0bfff17 	ldw	r2,-4(fp)
  80333c:	10c00144 	addi	r3,r2,5
  803340:	d0a05317 	ldw	r2,-32436(gp)
  803344:	10800244 	addi	r2,r2,9
  803348:	10800023 	ldbuio	r2,0(r2)
  80334c:	18800005 	stb	r2,0(r3)
    
        printf("Your Ethernet MAC address is %02x:%02x:%02x:%02x:%02x:%02x\n", 
  803350:	e0bfff17 	ldw	r2,-4(fp)
  803354:	10800003 	ldbu	r2,0(r2)
  803358:	11403fcc 	andi	r5,r2,255
  80335c:	e0bfff17 	ldw	r2,-4(fp)
  803360:	10800044 	addi	r2,r2,1
  803364:	10800003 	ldbu	r2,0(r2)
  803368:	11803fcc 	andi	r6,r2,255
  80336c:	e0bfff17 	ldw	r2,-4(fp)
  803370:	10800084 	addi	r2,r2,2
  803374:	10800003 	ldbu	r2,0(r2)
  803378:	11c03fcc 	andi	r7,r2,255
  80337c:	e0bfff17 	ldw	r2,-4(fp)
  803380:	108000c4 	addi	r2,r2,3
  803384:	10800003 	ldbu	r2,0(r2)
  803388:	10c03fcc 	andi	r3,r2,255
  80338c:	e0bfff17 	ldw	r2,-4(fp)
  803390:	10800104 	addi	r2,r2,4
  803394:	10800003 	ldbu	r2,0(r2)
  803398:	11003fcc 	andi	r4,r2,255
  80339c:	e0bfff17 	ldw	r2,-4(fp)
  8033a0:	10800144 	addi	r2,r2,5
  8033a4:	10800003 	ldbu	r2,0(r2)
  8033a8:	10803fcc 	andi	r2,r2,255
  8033ac:	d8c00015 	stw	r3,0(sp)
  8033b0:	d9000115 	stw	r4,4(sp)
  8033b4:	d8800215 	stw	r2,8(sp)
  8033b8:	01002174 	movhi	r4,133
  8033bc:	2120b204 	addi	r4,r4,-32056
  8033c0:	08055940 	call	805594 <printf>
            mac_addr[4],
            mac_addr[5]);
    
    }
    
    return error;
  8033c4:	e0bffe17 	ldw	r2,-8(fp)
}
  8033c8:	e037883a 	mov	sp,fp
  8033cc:	dfc00117 	ldw	ra,4(sp)
  8033d0:	df000017 	ldw	fp,0(sp)
  8033d4:	dec00204 	addi	sp,sp,8
  8033d8:	f800283a 	ret

008033dc <SSSCreateOSDataStructs>:
/*
 * Create our MicroC/OS-II resources. All of the resources beginning with 
 * "SSS" are declared in this file, and created in this function.
 */
void SSSCreateOSDataStructs(void)
{
  8033dc:	defffd04 	addi	sp,sp,-12
  8033e0:	dfc00215 	stw	ra,8(sp)
  8033e4:	df000115 	stw	fp,4(sp)
  8033e8:	df000104 	addi	fp,sp,4
  /*
  * Create the resource for our MicroC/OS-II Queue for sending commands 
  * received on the TCP/IP socket from the SSSSimpleSocketServerTask()
  * to the LEDManagementTask().
  */
  SSSLEDCommandQ = OSQCreate(&SSSLEDCommandQTbl[0], SSS_LED_COMMAND_Q_SIZE);
  8033ec:	01002174 	movhi	r4,133
  8033f0:	2107c104 	addi	r4,r4,7940
  8033f4:	01400784 	movi	r5,30
  8033f8:	0813a380 	call	813a38 <OSQCreate>
  8033fc:	d0a05815 	stw	r2,-32416(gp)
  if (!SSSLEDCommandQ)
  803400:	d0a05817 	ldw	r2,-32416(gp)
  803404:	1004c03a 	cmpne	r2,r2,zero
  803408:	1000041e 	bne	r2,zero,80341c <SSSCreateOSDataStructs+0x40>
  {
     alt_uCOSIIErrorHandler(EXPANDED_DIAGNOSIS_CODE, 
  80340c:	01003fc4 	movi	r4,255
  803410:	01402174 	movhi	r5,133
